
kernel/kernel:     file format elf64-x86-64


Disassembly of section .text:

ffffffff80000000 <_RNvNvNtNtCsksYxuqllC4c_4core5slice3raw14from_raw_parts18precondition_checkCs3n1TFLxi7h8_20limine_rust_template>:
ffffffff80000000:	48 83 ec 78          	sub    $0x78,%rsp
ffffffff80000004:	4c 89 44 24 08       	mov    %r8,0x8(%rsp)
ffffffff80000009:	48 89 4c 24 10       	mov    %rcx,0x10(%rsp)
ffffffff8000000e:	48 89 54 24 18       	mov    %rdx,0x18(%rsp)
ffffffff80000013:	48 89 f0             	mov    %rsi,%rax
ffffffff80000016:	48 8b 74 24 18       	mov    0x18(%rsp),%rsi
ffffffff8000001b:	48 89 44 24 20       	mov    %rax,0x20(%rsp)
ffffffff80000020:	48 89 7c 24 28       	mov    %rdi,0x28(%rsp)
ffffffff80000025:	48 89 7c 24 38       	mov    %rdi,0x38(%rsp)
ffffffff8000002a:	48 89 44 24 40       	mov    %rax,0x40(%rsp)
ffffffff8000002f:	48 89 74 24 48       	mov    %rsi,0x48(%rsp)
ffffffff80000034:	48 89 4c 24 50       	mov    %rcx,0x50(%rsp)
ffffffff80000039:	c6 44 24 5f 00       	movb   $0x0,0x5f(%rsp)
ffffffff8000003e:	48 89 7c 24 60       	mov    %rdi,0x60(%rsp)
ffffffff80000043:	e8 48 0c 00 00       	call   ffffffff80000c90 <_RNvMNtNtCsksYxuqllC4c_4core3ptr9const_ptrPu13is_aligned_toCshIj2jc3egO4_8bytemuck>
ffffffff80000048:	a8 01                	test   $0x1,%al
ffffffff8000004a:	75 02                	jne    ffffffff8000004e <_RNvNvNtNtCsksYxuqllC4c_4core5slice3raw14from_raw_parts18precondition_checkCs3n1TFLxi7h8_20limine_rust_template+0x4e>
ffffffff8000004c:	eb 12                	jmp    ffffffff80000060 <_RNvNvNtNtCsksYxuqllC4c_4core5slice3raw14from_raw_parts18precondition_checkCs3n1TFLxi7h8_20limine_rust_template+0x60>
ffffffff8000004e:	48 8b 44 24 28       	mov    0x28(%rsp),%rax
ffffffff80000053:	48 83 f8 00          	cmp    $0x0,%rax
ffffffff80000057:	0f 94 c0             	sete   %al
ffffffff8000005a:	34 ff                	xor    $0xff,%al
ffffffff8000005c:	a8 01                	test   $0x1,%al
ffffffff8000005e:	75 02                	jne    ffffffff80000062 <_RNvNvNtNtCsksYxuqllC4c_4core5slice3raw14from_raw_parts18precondition_checkCs3n1TFLxi7h8_20limine_rust_template+0x62>
ffffffff80000060:	eb 18                	jmp    ffffffff8000007a <_RNvNvNtNtCsksYxuqllC4c_4core5slice3raw14from_raw_parts18precondition_checkCs3n1TFLxi7h8_20limine_rust_template+0x7a>
ffffffff80000062:	48 8b 44 24 20       	mov    0x20(%rsp),%rax
ffffffff80000067:	48 83 f8 00          	cmp    $0x0,%rax
ffffffff8000006b:	0f 94 c1             	sete   %cl
ffffffff8000006e:	88 4c 24 07          	mov    %cl,0x7(%rsp)
ffffffff80000072:	48 83 f8 00          	cmp    $0x0,%rax
ffffffff80000076:	74 2c                	je     ffffffff800000a4 <_RNvNvNtNtCsksYxuqllC4c_4core5slice3raw14from_raw_parts18precondition_checkCs3n1TFLxi7h8_20limine_rust_template+0xa4>
ffffffff80000078:	eb 35                	jmp    ffffffff800000af <_RNvNvNtNtCsksYxuqllC4c_4core5slice3raw14from_raw_parts18precondition_checkCs3n1TFLxi7h8_20limine_rust_template+0xaf>
ffffffff8000007a:	48 8b 4c 24 08       	mov    0x8(%rsp),%rcx
ffffffff8000007f:	48 c7 44 24 68 a0 c3 	movq   $0xffffffff8000c3a0,0x68(%rsp)
ffffffff80000086:	00 80 
ffffffff80000088:	48 c7 44 24 70 17 01 	movq   $0x117,0x70(%rsp)
ffffffff8000008f:	00 00 
ffffffff80000091:	48 c7 c7 a0 c3 00 80 	mov    $0xffffffff8000c3a0,%rdi
ffffffff80000098:	be 2f 02 00 00       	mov    $0x22f,%esi
ffffffff8000009d:	31 d2                	xor    %edx,%edx
ffffffff8000009f:	e8 dc ac 00 00       	call   ffffffff8000ad80 <_RNvNtCsksYxuqllC4c_4core9panicking18panic_nounwind_fmt>
ffffffff800000a4:	48 c7 44 24 30 ff ff 	movq   $0xffffffffffffffff,0x30(%rsp)
ffffffff800000ab:	ff ff 
ffffffff800000ad:	eb 0a                	jmp    ffffffff800000b9 <_RNvNvNtNtCsksYxuqllC4c_4core5slice3raw14from_raw_parts18precondition_checkCs3n1TFLxi7h8_20limine_rust_template+0xb9>
ffffffff800000af:	8a 44 24 07          	mov    0x7(%rsp),%al
ffffffff800000b3:	a8 01                	test   $0x1,%al
ffffffff800000b5:	75 2b                	jne    ffffffff800000e2 <_RNvNvNtNtCsksYxuqllC4c_4core5slice3raw14from_raw_parts18precondition_checkCs3n1TFLxi7h8_20limine_rust_template+0xe2>
ffffffff800000b7:	eb 0e                	jmp    ffffffff800000c7 <_RNvNvNtNtCsksYxuqllC4c_4core5slice3raw14from_raw_parts18precondition_checkCs3n1TFLxi7h8_20limine_rust_template+0xc7>
ffffffff800000b9:	48 8b 44 24 10       	mov    0x10(%rsp),%rax
ffffffff800000be:	48 3b 44 24 30       	cmp    0x30(%rsp),%rax
ffffffff800000c3:	76 2b                	jbe    ffffffff800000f0 <_RNvNvNtNtCsksYxuqllC4c_4core5slice3raw14from_raw_parts18precondition_checkCs3n1TFLxi7h8_20limine_rust_template+0xf0>
ffffffff800000c5:	eb 27                	jmp    ffffffff800000ee <_RNvNvNtNtCsksYxuqllC4c_4core5slice3raw14from_raw_parts18precondition_checkCs3n1TFLxi7h8_20limine_rust_template+0xee>
ffffffff800000c7:	48 8b 4c 24 20       	mov    0x20(%rsp),%rcx
ffffffff800000cc:	48 b8 ff ff ff ff ff 	movabs $0x7fffffffffffffff,%rax
ffffffff800000d3:	ff ff 7f 
ffffffff800000d6:	31 d2                	xor    %edx,%edx
ffffffff800000d8:	48 f7 f1             	div    %rcx
ffffffff800000db:	48 89 44 24 30       	mov    %rax,0x30(%rsp)
ffffffff800000e0:	eb d7                	jmp    ffffffff800000b9 <_RNvNvNtNtCsksYxuqllC4c_4core5slice3raw14from_raw_parts18precondition_checkCs3n1TFLxi7h8_20limine_rust_template+0xb9>
ffffffff800000e2:	48 c7 c7 88 c3 00 80 	mov    $0xffffffff8000c388,%rdi
ffffffff800000e9:	e8 f2 b0 00 00       	call   ffffffff8000b1e0 <_RNvNtNtCsksYxuqllC4c_4core9panicking11panic_const23panic_const_div_by_zero>
ffffffff800000ee:	eb 8a                	jmp    ffffffff8000007a <_RNvNvNtNtCsksYxuqllC4c_4core5slice3raw14from_raw_parts18precondition_checkCs3n1TFLxi7h8_20limine_rust_template+0x7a>
ffffffff800000f0:	48 83 c4 78          	add    $0x78,%rsp
ffffffff800000f4:	c3                   	ret
ffffffff800000f5:	cc                   	int3
ffffffff800000f6:	cc                   	int3
ffffffff800000f7:	cc                   	int3
ffffffff800000f8:	cc                   	int3
ffffffff800000f9:	cc                   	int3
ffffffff800000fa:	cc                   	int3
ffffffff800000fb:	cc                   	int3
ffffffff800000fc:	cc                   	int3
ffffffff800000fd:	cc                   	int3
ffffffff800000fe:	cc                   	int3
ffffffff800000ff:	cc                   	int3

ffffffff80000100 <_RNvNvNtNtCsksYxuqllC4c_4core5slice3raw18from_raw_parts_mut18precondition_checkCs3n1TFLxi7h8_20limine_rust_template>:
ffffffff80000100:	48 83 ec 78          	sub    $0x78,%rsp
ffffffff80000104:	4c 89 44 24 08       	mov    %r8,0x8(%rsp)
ffffffff80000109:	48 89 4c 24 10       	mov    %rcx,0x10(%rsp)
ffffffff8000010e:	48 89 54 24 18       	mov    %rdx,0x18(%rsp)
ffffffff80000113:	48 89 f0             	mov    %rsi,%rax
ffffffff80000116:	48 8b 74 24 18       	mov    0x18(%rsp),%rsi
ffffffff8000011b:	48 89 44 24 20       	mov    %rax,0x20(%rsp)
ffffffff80000120:	48 89 7c 24 28       	mov    %rdi,0x28(%rsp)
ffffffff80000125:	48 89 7c 24 38       	mov    %rdi,0x38(%rsp)
ffffffff8000012a:	48 89 44 24 40       	mov    %rax,0x40(%rsp)
ffffffff8000012f:	48 89 74 24 48       	mov    %rsi,0x48(%rsp)
ffffffff80000134:	48 89 4c 24 50       	mov    %rcx,0x50(%rsp)
ffffffff80000139:	c6 44 24 5f 00       	movb   $0x0,0x5f(%rsp)
ffffffff8000013e:	48 89 7c 24 60       	mov    %rdi,0x60(%rsp)
ffffffff80000143:	e8 48 0b 00 00       	call   ffffffff80000c90 <_RNvMNtNtCsksYxuqllC4c_4core3ptr9const_ptrPu13is_aligned_toCshIj2jc3egO4_8bytemuck>
ffffffff80000148:	a8 01                	test   $0x1,%al
ffffffff8000014a:	75 02                	jne    ffffffff8000014e <_RNvNvNtNtCsksYxuqllC4c_4core5slice3raw18from_raw_parts_mut18precondition_checkCs3n1TFLxi7h8_20limine_rust_template+0x4e>
ffffffff8000014c:	eb 12                	jmp    ffffffff80000160 <_RNvNvNtNtCsksYxuqllC4c_4core5slice3raw18from_raw_parts_mut18precondition_checkCs3n1TFLxi7h8_20limine_rust_template+0x60>
ffffffff8000014e:	48 8b 44 24 28       	mov    0x28(%rsp),%rax
ffffffff80000153:	48 83 f8 00          	cmp    $0x0,%rax
ffffffff80000157:	0f 94 c0             	sete   %al
ffffffff8000015a:	34 ff                	xor    $0xff,%al
ffffffff8000015c:	a8 01                	test   $0x1,%al
ffffffff8000015e:	75 02                	jne    ffffffff80000162 <_RNvNvNtNtCsksYxuqllC4c_4core5slice3raw18from_raw_parts_mut18precondition_checkCs3n1TFLxi7h8_20limine_rust_template+0x62>
ffffffff80000160:	eb 18                	jmp    ffffffff8000017a <_RNvNvNtNtCsksYxuqllC4c_4core5slice3raw18from_raw_parts_mut18precondition_checkCs3n1TFLxi7h8_20limine_rust_template+0x7a>
ffffffff80000162:	48 8b 44 24 20       	mov    0x20(%rsp),%rax
ffffffff80000167:	48 83 f8 00          	cmp    $0x0,%rax
ffffffff8000016b:	0f 94 c1             	sete   %cl
ffffffff8000016e:	88 4c 24 07          	mov    %cl,0x7(%rsp)
ffffffff80000172:	48 83 f8 00          	cmp    $0x0,%rax
ffffffff80000176:	74 2c                	je     ffffffff800001a4 <_RNvNvNtNtCsksYxuqllC4c_4core5slice3raw18from_raw_parts_mut18precondition_checkCs3n1TFLxi7h8_20limine_rust_template+0xa4>
ffffffff80000178:	eb 35                	jmp    ffffffff800001af <_RNvNvNtNtCsksYxuqllC4c_4core5slice3raw18from_raw_parts_mut18precondition_checkCs3n1TFLxi7h8_20limine_rust_template+0xaf>
ffffffff8000017a:	48 8b 4c 24 08       	mov    0x8(%rsp),%rcx
ffffffff8000017f:	48 c7 44 24 68 b7 c4 	movq   $0xffffffff8000c4b7,0x68(%rsp)
ffffffff80000186:	00 80 
ffffffff80000188:	48 c7 44 24 70 1b 01 	movq   $0x11b,0x70(%rsp)
ffffffff8000018f:	00 00 
ffffffff80000191:	48 c7 c7 b7 c4 00 80 	mov    $0xffffffff8000c4b7,%rdi
ffffffff80000198:	be 37 02 00 00       	mov    $0x237,%esi
ffffffff8000019d:	31 d2                	xor    %edx,%edx
ffffffff8000019f:	e8 dc ab 00 00       	call   ffffffff8000ad80 <_RNvNtCsksYxuqllC4c_4core9panicking18panic_nounwind_fmt>
ffffffff800001a4:	48 c7 44 24 30 ff ff 	movq   $0xffffffffffffffff,0x30(%rsp)
ffffffff800001ab:	ff ff 
ffffffff800001ad:	eb 0a                	jmp    ffffffff800001b9 <_RNvNvNtNtCsksYxuqllC4c_4core5slice3raw18from_raw_parts_mut18precondition_checkCs3n1TFLxi7h8_20limine_rust_template+0xb9>
ffffffff800001af:	8a 44 24 07          	mov    0x7(%rsp),%al
ffffffff800001b3:	a8 01                	test   $0x1,%al
ffffffff800001b5:	75 2b                	jne    ffffffff800001e2 <_RNvNvNtNtCsksYxuqllC4c_4core5slice3raw18from_raw_parts_mut18precondition_checkCs3n1TFLxi7h8_20limine_rust_template+0xe2>
ffffffff800001b7:	eb 0e                	jmp    ffffffff800001c7 <_RNvNvNtNtCsksYxuqllC4c_4core5slice3raw18from_raw_parts_mut18precondition_checkCs3n1TFLxi7h8_20limine_rust_template+0xc7>
ffffffff800001b9:	48 8b 44 24 10       	mov    0x10(%rsp),%rax
ffffffff800001be:	48 3b 44 24 30       	cmp    0x30(%rsp),%rax
ffffffff800001c3:	76 2b                	jbe    ffffffff800001f0 <_RNvNvNtNtCsksYxuqllC4c_4core5slice3raw18from_raw_parts_mut18precondition_checkCs3n1TFLxi7h8_20limine_rust_template+0xf0>
ffffffff800001c5:	eb 27                	jmp    ffffffff800001ee <_RNvNvNtNtCsksYxuqllC4c_4core5slice3raw18from_raw_parts_mut18precondition_checkCs3n1TFLxi7h8_20limine_rust_template+0xee>
ffffffff800001c7:	48 8b 4c 24 20       	mov    0x20(%rsp),%rcx
ffffffff800001cc:	48 b8 ff ff ff ff ff 	movabs $0x7fffffffffffffff,%rax
ffffffff800001d3:	ff ff 7f 
ffffffff800001d6:	31 d2                	xor    %edx,%edx
ffffffff800001d8:	48 f7 f1             	div    %rcx
ffffffff800001db:	48 89 44 24 30       	mov    %rax,0x30(%rsp)
ffffffff800001e0:	eb d7                	jmp    ffffffff800001b9 <_RNvNvNtNtCsksYxuqllC4c_4core5slice3raw18from_raw_parts_mut18precondition_checkCs3n1TFLxi7h8_20limine_rust_template+0xb9>
ffffffff800001e2:	48 c7 c7 88 c3 00 80 	mov    $0xffffffff8000c388,%rdi
ffffffff800001e9:	e8 f2 af 00 00       	call   ffffffff8000b1e0 <_RNvNtNtCsksYxuqllC4c_4core9panicking11panic_const23panic_const_div_by_zero>
ffffffff800001ee:	eb 8a                	jmp    ffffffff8000017a <_RNvNvNtNtCsksYxuqllC4c_4core5slice3raw18from_raw_parts_mut18precondition_checkCs3n1TFLxi7h8_20limine_rust_template+0x7a>
ffffffff800001f0:	48 83 c4 78          	add    $0x78,%rsp
ffffffff800001f4:	c3                   	ret
ffffffff800001f5:	cc                   	int3
ffffffff800001f6:	cc                   	int3
ffffffff800001f7:	cc                   	int3
ffffffff800001f8:	cc                   	int3
ffffffff800001f9:	cc                   	int3
ffffffff800001fa:	cc                   	int3
ffffffff800001fb:	cc                   	int3
ffffffff800001fc:	cc                   	int3
ffffffff800001fd:	cc                   	int3
ffffffff800001fe:	cc                   	int3
ffffffff800001ff:	cc                   	int3

ffffffff80000200 <_RNvMs2_NtCsksYxuqllC4c_4core3fmtNtB5_9Arguments17from_str_nonconstCs3n1TFLxi7h8_20limine_rust_template>:
ffffffff80000200:	48 83 ec 18          	sub    $0x18,%rsp
ffffffff80000204:	48 89 7c 24 08       	mov    %rdi,0x8(%rsp)
ffffffff80000209:	48 89 74 24 10       	mov    %rsi,0x10(%rsp)
ffffffff8000020e:	e8 ed 00 00 00       	call   ffffffff80000300 <_RNvMs4_NtCsksYxuqllC4c_4core3fmtNtB5_9Arguments8from_strCs3n1TFLxi7h8_20limine_rust_template>
ffffffff80000213:	48 83 c4 18          	add    $0x18,%rsp
ffffffff80000217:	c3                   	ret
ffffffff80000218:	cc                   	int3
ffffffff80000219:	cc                   	int3
ffffffff8000021a:	cc                   	int3
ffffffff8000021b:	cc                   	int3
ffffffff8000021c:	cc                   	int3
ffffffff8000021d:	cc                   	int3
ffffffff8000021e:	cc                   	int3
ffffffff8000021f:	cc                   	int3

ffffffff80000220 <_RNvMs4_NtCsksYxuqllC4c_4core3fmtNtB5_9Arguments23as_statically_known_strCs3n1TFLxi7h8_20limine_rust_template>:
ffffffff80000220:	48 83 ec 78          	sub    $0x78,%rsp
ffffffff80000224:	48 89 7c 24 18       	mov    %rdi,0x18(%rsp)
ffffffff80000229:	48 89 7c 24 38       	mov    %rdi,0x38(%rsp)
ffffffff8000022e:	48 8b 47 08          	mov    0x8(%rdi),%rax
ffffffff80000232:	48 89 44 24 20       	mov    %rax,0x20(%rsp)
ffffffff80000237:	48 89 44 24 40       	mov    %rax,0x40(%rsp)
ffffffff8000023c:	48 83 e0 01          	and    $0x1,%rax
ffffffff80000240:	48 83 f8 01          	cmp    $0x1,%rax
ffffffff80000244:	75 2b                	jne    ffffffff80000271 <_RNvMs4_NtCsksYxuqllC4c_4core3fmtNtB5_9Arguments23as_statically_known_strCs3n1TFLxi7h8_20limine_rust_template+0x51>
ffffffff80000246:	48 8b 44 24 20       	mov    0x20(%rsp),%rax
ffffffff8000024b:	48 8b 4c 24 18       	mov    0x18(%rsp),%rcx
ffffffff80000250:	48 8b 09             	mov    (%rcx),%rcx
ffffffff80000253:	48 89 4c 24 08       	mov    %rcx,0x8(%rsp)
ffffffff80000258:	48 89 4c 24 48       	mov    %rcx,0x48(%rsp)
ffffffff8000025d:	48 89 4c 24 50       	mov    %rcx,0x50(%rsp)
ffffffff80000262:	48 d1 e8             	shr    $1,%rax
ffffffff80000265:	48 89 44 24 10       	mov    %rax,0x10(%rsp)
ffffffff8000026a:	48 89 44 24 58       	mov    %rax,0x58(%rsp)
ffffffff8000026f:	eb 1a                	jmp    ffffffff8000028b <_RNvMs4_NtCsksYxuqllC4c_4core3fmtNtB5_9Arguments23as_statically_known_strCs3n1TFLxi7h8_20limine_rust_template+0x6b>
ffffffff80000271:	48 8b 0d 88 c3 00 00 	mov    0xc388(%rip),%rcx        # ffffffff8000c600 <memcpy+0x1200>
ffffffff80000278:	48 8b 05 89 c3 00 00 	mov    0xc389(%rip),%rax        # ffffffff8000c608 <memcpy+0x1208>
ffffffff8000027f:	48 89 4c 24 28       	mov    %rcx,0x28(%rsp)
ffffffff80000284:	48 89 44 24 30       	mov    %rax,0x30(%rsp)
ffffffff80000289:	eb 3c                	jmp    ffffffff800002c7 <_RNvMs4_NtCsksYxuqllC4c_4core3fmtNtB5_9Arguments23as_statically_known_strCs3n1TFLxi7h8_20limine_rust_template+0xa7>
ffffffff8000028b:	48 8b 4c 24 10       	mov    0x10(%rsp),%rcx
ffffffff80000290:	48 8b 7c 24 08       	mov    0x8(%rsp),%rdi
ffffffff80000295:	49 c7 c0 d8 c5 00 80 	mov    $0xffffffff8000c5d8,%r8
ffffffff8000029c:	ba 01 00 00 00       	mov    $0x1,%edx
ffffffff800002a1:	48 89 d6             	mov    %rdx,%rsi
ffffffff800002a4:	e8 57 fd ff ff       	call   ffffffff80000000 <_RNvNvNtNtCsksYxuqllC4c_4core5slice3raw14from_raw_parts18precondition_checkCs3n1TFLxi7h8_20limine_rust_template>
ffffffff800002a9:	48 8b 44 24 10       	mov    0x10(%rsp),%rax
ffffffff800002ae:	48 8b 4c 24 08       	mov    0x8(%rsp),%rcx
ffffffff800002b3:	48 89 4c 24 60       	mov    %rcx,0x60(%rsp)
ffffffff800002b8:	48 89 44 24 68       	mov    %rax,0x68(%rsp)
ffffffff800002bd:	48 89 4c 24 28       	mov    %rcx,0x28(%rsp)
ffffffff800002c2:	48 89 44 24 30       	mov    %rax,0x30(%rsp)
ffffffff800002c7:	c6 44 24 77 00       	movb   $0x0,0x77(%rsp)
ffffffff800002cc:	f6 44 24 77 01       	testb  $0x1,0x77(%rsp)
ffffffff800002d1:	75 1a                	jne    ffffffff800002ed <_RNvMs4_NtCsksYxuqllC4c_4core3fmtNtB5_9Arguments23as_statically_known_strCs3n1TFLxi7h8_20limine_rust_template+0xcd>
ffffffff800002d3:	48 8b 0d 26 c3 00 00 	mov    0xc326(%rip),%rcx        # ffffffff8000c600 <memcpy+0x1200>
ffffffff800002da:	48 8b 05 27 c3 00 00 	mov    0xc327(%rip),%rax        # ffffffff8000c608 <memcpy+0x1208>
ffffffff800002e1:	48 89 4c 24 28       	mov    %rcx,0x28(%rsp)
ffffffff800002e6:	48 89 44 24 30       	mov    %rax,0x30(%rsp)
ffffffff800002eb:	eb 02                	jmp    ffffffff800002ef <_RNvMs4_NtCsksYxuqllC4c_4core3fmtNtB5_9Arguments23as_statically_known_strCs3n1TFLxi7h8_20limine_rust_template+0xcf>
ffffffff800002ed:	eb 00                	jmp    ffffffff800002ef <_RNvMs4_NtCsksYxuqllC4c_4core3fmtNtB5_9Arguments23as_statically_known_strCs3n1TFLxi7h8_20limine_rust_template+0xcf>
ffffffff800002ef:	48 8b 44 24 28       	mov    0x28(%rsp),%rax
ffffffff800002f4:	48 8b 54 24 30       	mov    0x30(%rsp),%rdx
ffffffff800002f9:	48 83 c4 78          	add    $0x78,%rsp
ffffffff800002fd:	c3                   	ret
ffffffff800002fe:	cc                   	int3
ffffffff800002ff:	cc                   	int3

ffffffff80000300 <_RNvMs4_NtCsksYxuqllC4c_4core3fmtNtB5_9Arguments8from_strCs3n1TFLxi7h8_20limine_rust_template>:
ffffffff80000300:	48 83 ec 10          	sub    $0x10,%rsp
ffffffff80000304:	48 89 f8             	mov    %rdi,%rax
ffffffff80000307:	48 89 04 24          	mov    %rax,(%rsp)
ffffffff8000030b:	48 89 74 24 08       	mov    %rsi,0x8(%rsp)
ffffffff80000310:	48 8d 54 36 01       	lea    0x1(%rsi,%rsi,1),%rdx
ffffffff80000315:	48 83 c4 10          	add    $0x10,%rsp
ffffffff80000319:	c3                   	ret
ffffffff8000031a:	cc                   	int3
ffffffff8000031b:	cc                   	int3
ffffffff8000031c:	cc                   	int3
ffffffff8000031d:	cc                   	int3
ffffffff8000031e:	cc                   	int3
ffffffff8000031f:	cc                   	int3

ffffffff80000320 <_RNvXs2E_NtNtCsksYxuqllC4c_4core5slice4iterINtB6_4IterPNtNtCsebKla8rmeo1_6limine11framebuffer14RawFramebufferENtNtNtNtBa_4iter6traits8iterator8Iterator4nextCs3n1TFLxi7h8_20limine_rust_template>:
ffffffff80000320:	48 83 ec 48          	sub    $0x48,%rsp
ffffffff80000324:	48 89 3c 24          	mov    %rdi,(%rsp)
ffffffff80000328:	48 89 7c 24 20       	mov    %rdi,0x20(%rsp)
ffffffff8000032d:	48 c7 44 24 28 01 00 	movq   $0x1,0x28(%rsp)
ffffffff80000334:	00 00 
ffffffff80000336:	48 c7 44 24 30 01 00 	movq   $0x1,0x30(%rsp)
ffffffff8000033d:	00 00 
ffffffff8000033f:	48 8b 07             	mov    (%rdi),%rax
ffffffff80000342:	48 89 44 24 08       	mov    %rax,0x8(%rsp)
ffffffff80000347:	48 89 44 24 38       	mov    %rax,0x38(%rsp)
ffffffff8000034c:	48 8b 47 08          	mov    0x8(%rdi),%rax
ffffffff80000350:	48 89 44 24 10       	mov    %rax,0x10(%rsp)
ffffffff80000355:	48 89 44 24 40       	mov    %rax,0x40(%rsp)
ffffffff8000035a:	48 8b 44 24 08       	mov    0x8(%rsp),%rax
ffffffff8000035f:	48 8b 4c 24 10       	mov    0x10(%rsp),%rcx
ffffffff80000364:	48 39 c8             	cmp    %rcx,%rax
ffffffff80000367:	74 12                	je     ffffffff8000037b <_RNvXs2E_NtNtCsksYxuqllC4c_4core5slice4iterINtB6_4IterPNtNtCsebKla8rmeo1_6limine11framebuffer14RawFramebufferENtNtNtNtBa_4iter6traits8iterator8Iterator4nextCs3n1TFLxi7h8_20limine_rust_template+0x5b>
ffffffff80000369:	48 8b 04 24          	mov    (%rsp),%rax
ffffffff8000036d:	48 8b 4c 24 08       	mov    0x8(%rsp),%rcx
ffffffff80000372:	48 83 c1 08          	add    $0x8,%rcx
ffffffff80000376:	48 89 08             	mov    %rcx,(%rax)
ffffffff80000379:	eb 0b                	jmp    ffffffff80000386 <_RNvXs2E_NtNtCsksYxuqllC4c_4core5slice4iterINtB6_4IterPNtNtCsebKla8rmeo1_6limine11framebuffer14RawFramebufferENtNtNtNtBa_4iter6traits8iterator8Iterator4nextCs3n1TFLxi7h8_20limine_rust_template+0x66>
ffffffff8000037b:	48 c7 44 24 18 00 00 	movq   $0x0,0x18(%rsp)
ffffffff80000382:	00 00 
ffffffff80000384:	eb 14                	jmp    ffffffff8000039a <_RNvXs2E_NtNtCsksYxuqllC4c_4core5slice4iterINtB6_4IterPNtNtCsebKla8rmeo1_6limine11framebuffer14RawFramebufferENtNtNtNtBa_4iter6traits8iterator8Iterator4nextCs3n1TFLxi7h8_20limine_rust_template+0x7a>
ffffffff80000386:	48 8b 44 24 08       	mov    0x8(%rsp),%rax
ffffffff8000038b:	48 89 44 24 18       	mov    %rax,0x18(%rsp)
ffffffff80000390:	48 8b 44 24 18       	mov    0x18(%rsp),%rax
ffffffff80000395:	48 83 c4 48          	add    $0x48,%rsp
ffffffff80000399:	c3                   	ret
ffffffff8000039a:	eb f4                	jmp    ffffffff80000390 <_RNvXs2E_NtNtCsksYxuqllC4c_4core5slice4iterINtB6_4IterPNtNtCsebKla8rmeo1_6limine11framebuffer14RawFramebufferENtNtNtNtBa_4iter6traits8iterator8Iterator4nextCs3n1TFLxi7h8_20limine_rust_template+0x70>
ffffffff8000039c:	cc                   	int3
ffffffff8000039d:	cc                   	int3
ffffffff8000039e:	cc                   	int3
ffffffff8000039f:	cc                   	int3

ffffffff800003a0 <_RNvXs_NvNtNtCsksYxuqllC4c_4core3fmt5Write9write_fmtQNtNtCs5YlR77XNAoe_20limine_rust_template2ft4BallNtB4_12SpecWriteFmt14spec_write_fmtCs3n1TFLxi7h8_20limine_rust_template>:
ffffffff800003a0:	48 83 ec 48          	sub    $0x48,%rsp
ffffffff800003a4:	48 89 3c 24          	mov    %rdi,(%rsp)
ffffffff800003a8:	48 89 74 24 08       	mov    %rsi,0x8(%rsp)
ffffffff800003ad:	48 89 54 24 10       	mov    %rdx,0x10(%rsp)
ffffffff800003b2:	48 89 7c 24 30       	mov    %rdi,0x30(%rsp)
ffffffff800003b7:	48 8d 7c 24 08       	lea    0x8(%rsp),%rdi
ffffffff800003bc:	e8 5f fe ff ff       	call   ffffffff80000220 <_RNvMs4_NtCsksYxuqllC4c_4core3fmtNtB5_9Arguments23as_statically_known_strCs3n1TFLxi7h8_20limine_rust_template>
ffffffff800003c1:	48 89 44 24 20       	mov    %rax,0x20(%rsp)
ffffffff800003c6:	48 89 54 24 28       	mov    %rdx,0x28(%rsp)
ffffffff800003cb:	48 8b 54 24 20       	mov    0x20(%rsp),%rdx
ffffffff800003d0:	b8 01 00 00 00       	mov    $0x1,%eax
ffffffff800003d5:	31 c9                	xor    %ecx,%ecx
ffffffff800003d7:	48 83 fa 00          	cmp    $0x0,%rdx
ffffffff800003db:	48 0f 44 c1          	cmove  %rcx,%rax
ffffffff800003df:	48 a9 01 00 00 00    	test   $0x1,%rax
ffffffff800003e5:	74 25                	je     ffffffff8000040c <_RNvXs_NvNtNtCsksYxuqllC4c_4core3fmt5Write9write_fmtQNtNtCs5YlR77XNAoe_20limine_rust_template2ft4BallNtB4_12SpecWriteFmt14spec_write_fmtCs3n1TFLxi7h8_20limine_rust_template+0x6c>
ffffffff800003e7:	48 8b 3c 24          	mov    (%rsp),%rdi
ffffffff800003eb:	48 8b 74 24 20       	mov    0x20(%rsp),%rsi
ffffffff800003f0:	48 8b 54 24 28       	mov    0x28(%rsp),%rdx
ffffffff800003f5:	48 89 74 24 38       	mov    %rsi,0x38(%rsp)
ffffffff800003fa:	48 89 54 24 40       	mov    %rdx,0x40(%rsp)
ffffffff800003ff:	e8 9c 07 00 00       	call   ffffffff80000ba0 <_RNvXNtCs5YlR77XNAoe_20limine_rust_template2ftNtB2_4BallNtNtCsksYxuqllC4c_4core3fmt5Write9write_str>
ffffffff80000404:	24 01                	and    $0x1,%al
ffffffff80000406:	88 44 24 1f          	mov    %al,0x1f(%rsp)
ffffffff8000040a:	eb 20                	jmp    ffffffff8000042c <_RNvXs_NvNtNtCsksYxuqllC4c_4core3fmt5Write9write_fmtQNtNtCs5YlR77XNAoe_20limine_rust_template2ft4BallNtB4_12SpecWriteFmt14spec_write_fmtCs3n1TFLxi7h8_20limine_rust_template+0x8c>
ffffffff8000040c:	48 8b 3c 24          	mov    (%rsp),%rdi
ffffffff80000410:	48 8b 54 24 08       	mov    0x8(%rsp),%rdx
ffffffff80000415:	48 8b 4c 24 10       	mov    0x10(%rsp),%rcx
ffffffff8000041a:	48 c7 c6 10 c6 00 80 	mov    $0xffffffff8000c610,%rsi
ffffffff80000421:	e8 4a a7 00 00       	call   ffffffff8000ab70 <_RNvNtCsksYxuqllC4c_4core3fmt5write>
ffffffff80000426:	24 01                	and    $0x1,%al
ffffffff80000428:	88 44 24 1f          	mov    %al,0x1f(%rsp)
ffffffff8000042c:	8a 44 24 1f          	mov    0x1f(%rsp),%al
ffffffff80000430:	24 01                	and    $0x1,%al
ffffffff80000432:	48 83 c4 48          	add    $0x48,%rsp
ffffffff80000436:	c3                   	ret
ffffffff80000437:	cc                   	int3
ffffffff80000438:	cc                   	int3
ffffffff80000439:	cc                   	int3
ffffffff8000043a:	cc                   	int3
ffffffff8000043b:	cc                   	int3
ffffffff8000043c:	cc                   	int3
ffffffff8000043d:	cc                   	int3
ffffffff8000043e:	cc                   	int3
ffffffff8000043f:	cc                   	int3

ffffffff80000440 <_RNvYNtNtCs5YlR77XNAoe_20limine_rust_template2ft4BallNtNtCsksYxuqllC4c_4core3fmt5Write10write_charCs3n1TFLxi7h8_20limine_rust_template>:
ffffffff80000440:	48 83 ec 48          	sub    $0x48,%rsp
ffffffff80000444:	89 74 24 04          	mov    %esi,0x4(%rsp)
ffffffff80000448:	48 89 f8             	mov    %rdi,%rax
ffffffff8000044b:	8b 7c 24 04          	mov    0x4(%rsp),%edi
ffffffff8000044f:	48 89 44 24 08       	mov    %rax,0x8(%rsp)
ffffffff80000454:	48 89 44 24 18       	mov    %rax,0x18(%rsp)
ffffffff80000459:	89 7c 24 24          	mov    %edi,0x24(%rsp)
ffffffff8000045d:	31 c0                	xor    %eax,%eax
ffffffff8000045f:	c7 44 24 14 00 00 00 	movl   $0x0,0x14(%rsp)
ffffffff80000466:	00 
ffffffff80000467:	48 8d 44 24 14       	lea    0x14(%rsp),%rax
ffffffff8000046c:	48 89 44 24 28       	mov    %rax,0x28(%rsp)
ffffffff80000471:	48 c7 44 24 30 04 00 	movq   $0x4,0x30(%rsp)
ffffffff80000478:	00 00 
ffffffff8000047a:	48 8d 74 24 14       	lea    0x14(%rsp),%rsi
ffffffff8000047f:	ba 04 00 00 00       	mov    $0x4,%edx
ffffffff80000484:	e8 d7 00 00 00       	call   ffffffff80000560 <_RNvNtNtCsksYxuqllC4c_4core4char7methods15encode_utf8_rawCs3n1TFLxi7h8_20limine_rust_template>
ffffffff80000489:	48 8b 7c 24 08       	mov    0x8(%rsp),%rdi
ffffffff8000048e:	48 89 c6             	mov    %rax,%rsi
ffffffff80000491:	48 89 74 24 38       	mov    %rsi,0x38(%rsp)
ffffffff80000496:	48 89 54 24 40       	mov    %rdx,0x40(%rsp)
ffffffff8000049b:	e8 00 07 00 00       	call   ffffffff80000ba0 <_RNvXNtCs5YlR77XNAoe_20limine_rust_template2ftNtB2_4BallNtNtCsksYxuqllC4c_4core3fmt5Write9write_str>
ffffffff800004a0:	24 01                	and    $0x1,%al
ffffffff800004a2:	48 83 c4 48          	add    $0x48,%rsp
ffffffff800004a6:	c3                   	ret
ffffffff800004a7:	cc                   	int3
ffffffff800004a8:	cc                   	int3
ffffffff800004a9:	cc                   	int3
ffffffff800004aa:	cc                   	int3
ffffffff800004ab:	cc                   	int3
ffffffff800004ac:	cc                   	int3
ffffffff800004ad:	cc                   	int3
ffffffff800004ae:	cc                   	int3
ffffffff800004af:	cc                   	int3

ffffffff800004b0 <_RNvYNtNtCs5YlR77XNAoe_20limine_rust_template2ft4BallNtNtCsksYxuqllC4c_4core3fmt5Write9write_fmtCs3n1TFLxi7h8_20limine_rust_template>:
ffffffff800004b0:	48 83 ec 18          	sub    $0x18,%rsp
ffffffff800004b4:	48 89 3c 24          	mov    %rdi,(%rsp)
ffffffff800004b8:	48 89 74 24 08       	mov    %rsi,0x8(%rsp)
ffffffff800004bd:	48 89 54 24 10       	mov    %rdx,0x10(%rsp)
ffffffff800004c2:	e8 d9 fe ff ff       	call   ffffffff800003a0 <_RNvXs_NvNtNtCsksYxuqllC4c_4core3fmt5Write9write_fmtQNtNtCs5YlR77XNAoe_20limine_rust_template2ft4BallNtB4_12SpecWriteFmt14spec_write_fmtCs3n1TFLxi7h8_20limine_rust_template>
ffffffff800004c7:	24 01                	and    $0x1,%al
ffffffff800004c9:	48 83 c4 18          	add    $0x18,%rsp
ffffffff800004cd:	c3                   	ret
ffffffff800004ce:	cc                   	int3
ffffffff800004cf:	cc                   	int3

ffffffff800004d0 <_RNvXs0_NtNtNtCsksYxuqllC4c_4core4iter8adapters3mapINtB5_3MapINtNtNtBb_5slice4iter4IterPNtNtCsebKla8rmeo1_6limine11framebuffer14RawFramebufferENCNvMs6_NtB1r_8responseNtB2o_19FramebufferResponse12framebuffers0ENtNtNtB9_6traits8iterator8Iterator4nextCs3n1TFLxi7h8_20limine_rust_template>:
ffffffff800004d0:	48 83 ec 48          	sub    $0x48,%rsp
ffffffff800004d4:	48 89 3c 24          	mov    %rdi,(%rsp)
ffffffff800004d8:	48 89 7c 24 28       	mov    %rdi,0x28(%rsp)
ffffffff800004dd:	e8 3e fe ff ff       	call   ffffffff80000320 <_RNvXs2E_NtNtCsksYxuqllC4c_4core5slice4iterINtB6_4IterPNtNtCsebKla8rmeo1_6limine11framebuffer14RawFramebufferENtNtNtNtBa_4iter6traits8iterator8Iterator4nextCs3n1TFLxi7h8_20limine_rust_template>
ffffffff800004e2:	48 8b 3c 24          	mov    (%rsp),%rdi
ffffffff800004e6:	48 89 44 24 20       	mov    %rax,0x20(%rsp)
ffffffff800004eb:	48 83 c7 10          	add    $0x10,%rdi
ffffffff800004ef:	48 89 7c 24 08       	mov    %rdi,0x8(%rsp)
ffffffff800004f4:	48 89 7c 24 30       	mov    %rdi,0x30(%rsp)
ffffffff800004f9:	48 8b 54 24 20       	mov    0x20(%rsp),%rdx
ffffffff800004fe:	b8 01 00 00 00       	mov    $0x1,%eax
ffffffff80000503:	31 c9                	xor    %ecx,%ecx
ffffffff80000505:	48 83 fa 00          	cmp    $0x0,%rdx
ffffffff80000509:	48 0f 44 c1          	cmove  %rcx,%rax
ffffffff8000050d:	48 a9 01 00 00 00    	test   $0x1,%rax
ffffffff80000513:	74 25                	je     ffffffff8000053a <_RNvXs0_NtNtNtCsksYxuqllC4c_4core4iter8adapters3mapINtB5_3MapINtNtNtBb_5slice4iter4IterPNtNtCsebKla8rmeo1_6limine11framebuffer14RawFramebufferENCNvMs6_NtB1r_8responseNtB2o_19FramebufferResponse12framebuffers0ENtNtNtB9_6traits8iterator8Iterator4nextCs3n1TFLxi7h8_20limine_rust_template+0x6a>
ffffffff80000515:	48 8b 7c 24 08       	mov    0x8(%rsp),%rdi
ffffffff8000051a:	48 8b 74 24 20       	mov    0x20(%rsp),%rsi
ffffffff8000051f:	48 89 74 24 38       	mov    %rsi,0x38(%rsp)
ffffffff80000524:	48 89 74 24 40       	mov    %rsi,0x40(%rsp)
ffffffff80000529:	e8 c2 05 00 00       	call   ffffffff80000af0 <_RNCNvMs6_NtCsebKla8rmeo1_6limine8responseNtB7_19FramebufferResponse12framebuffers0Cs3n1TFLxi7h8_20limine_rust_template>
ffffffff8000052e:	48 89 44 24 10       	mov    %rax,0x10(%rsp)
ffffffff80000533:	48 89 54 24 18       	mov    %rdx,0x18(%rsp)
ffffffff80000538:	eb 09                	jmp    ffffffff80000543 <_RNvXs0_NtNtNtCsksYxuqllC4c_4core4iter8adapters3mapINtB5_3MapINtNtNtBb_5slice4iter4IterPNtNtCsebKla8rmeo1_6limine11framebuffer14RawFramebufferENCNvMs6_NtB1r_8responseNtB2o_19FramebufferResponse12framebuffers0ENtNtNtB9_6traits8iterator8Iterator4nextCs3n1TFLxi7h8_20limine_rust_template+0x73>
ffffffff8000053a:	48 c7 44 24 10 00 00 	movq   $0x0,0x10(%rsp)
ffffffff80000541:	00 00 
ffffffff80000543:	48 8b 44 24 10       	mov    0x10(%rsp),%rax
ffffffff80000548:	48 8b 54 24 18       	mov    0x18(%rsp),%rdx
ffffffff8000054d:	48 83 c4 48          	add    $0x48,%rsp
ffffffff80000551:	c3                   	ret
ffffffff80000552:	cc                   	int3
ffffffff80000553:	cc                   	int3
ffffffff80000554:	cc                   	int3
ffffffff80000555:	cc                   	int3
ffffffff80000556:	cc                   	int3
ffffffff80000557:	cc                   	int3
ffffffff80000558:	cc                   	int3
ffffffff80000559:	cc                   	int3
ffffffff8000055a:	cc                   	int3
ffffffff8000055b:	cc                   	int3
ffffffff8000055c:	cc                   	int3
ffffffff8000055d:	cc                   	int3
ffffffff8000055e:	cc                   	int3
ffffffff8000055f:	cc                   	int3

ffffffff80000560 <_RNvNtNtCsksYxuqllC4c_4core4char7methods15encode_utf8_rawCs3n1TFLxi7h8_20limine_rust_template>:
ffffffff80000560:	48 83 ec 48          	sub    $0x48,%rsp
ffffffff80000564:	48 89 14 24          	mov    %rdx,(%rsp)
ffffffff80000568:	48 89 74 24 08       	mov    %rsi,0x8(%rsp)
ffffffff8000056d:	89 7c 24 14          	mov    %edi,0x14(%rsp)
ffffffff80000571:	89 7c 24 24          	mov    %edi,0x24(%rsp)
ffffffff80000575:	48 89 74 24 28       	mov    %rsi,0x28(%rsp)
ffffffff8000057a:	48 89 54 24 30       	mov    %rdx,0x30(%rsp)
ffffffff8000057f:	81 ff 80 00 00 00    	cmp    $0x80,%edi
ffffffff80000585:	72 0d                	jb     ffffffff80000594 <_RNvNtNtCsksYxuqllC4c_4core4char7methods15encode_utf8_rawCs3n1TFLxi7h8_20limine_rust_template+0x34>
ffffffff80000587:	8b 44 24 14          	mov    0x14(%rsp),%eax
ffffffff8000058b:	3d 00 08 00 00       	cmp    $0x800,%eax
ffffffff80000590:	72 1a                	jb     ffffffff800005ac <_RNvNtNtCsksYxuqllC4c_4core4char7methods15encode_utf8_rawCs3n1TFLxi7h8_20limine_rust_template+0x4c>
ffffffff80000592:	eb 0b                	jmp    ffffffff8000059f <_RNvNtNtCsksYxuqllC4c_4core4char7methods15encode_utf8_rawCs3n1TFLxi7h8_20limine_rust_template+0x3f>
ffffffff80000594:	48 c7 44 24 18 01 00 	movq   $0x1,0x18(%rsp)
ffffffff8000059b:	00 00 
ffffffff8000059d:	eb 2c                	jmp    ffffffff800005cb <_RNvNtNtCsksYxuqllC4c_4core4char7methods15encode_utf8_rawCs3n1TFLxi7h8_20limine_rust_template+0x6b>
ffffffff8000059f:	8b 44 24 14          	mov    0x14(%rsp),%eax
ffffffff800005a3:	3d 00 00 01 00       	cmp    $0x10000,%eax
ffffffff800005a8:	72 18                	jb     ffffffff800005c2 <_RNvNtNtCsksYxuqllC4c_4core4char7methods15encode_utf8_rawCs3n1TFLxi7h8_20limine_rust_template+0x62>
ffffffff800005aa:	eb 0b                	jmp    ffffffff800005b7 <_RNvNtNtCsksYxuqllC4c_4core4char7methods15encode_utf8_rawCs3n1TFLxi7h8_20limine_rust_template+0x57>
ffffffff800005ac:	48 c7 44 24 18 02 00 	movq   $0x2,0x18(%rsp)
ffffffff800005b3:	00 00 
ffffffff800005b5:	eb 14                	jmp    ffffffff800005cb <_RNvNtNtCsksYxuqllC4c_4core4char7methods15encode_utf8_rawCs3n1TFLxi7h8_20limine_rust_template+0x6b>
ffffffff800005b7:	48 c7 44 24 18 04 00 	movq   $0x4,0x18(%rsp)
ffffffff800005be:	00 00 
ffffffff800005c0:	eb 09                	jmp    ffffffff800005cb <_RNvNtNtCsksYxuqllC4c_4core4char7methods15encode_utf8_rawCs3n1TFLxi7h8_20limine_rust_template+0x6b>
ffffffff800005c2:	48 c7 44 24 18 03 00 	movq   $0x3,0x18(%rsp)
ffffffff800005c9:	00 00 
ffffffff800005cb:	48 8b 04 24          	mov    (%rsp),%rax
ffffffff800005cf:	48 89 44 24 38       	mov    %rax,0x38(%rsp)
ffffffff800005d4:	48 3b 44 24 18       	cmp    0x18(%rsp),%rax
ffffffff800005d9:	72 1a                	jb     ffffffff800005f5 <_RNvNtNtCsksYxuqllC4c_4core4char7methods15encode_utf8_rawCs3n1TFLxi7h8_20limine_rust_template+0x95>
ffffffff800005db:	48 8b 74 24 08       	mov    0x8(%rsp),%rsi
ffffffff800005e0:	8b 7c 24 14          	mov    0x14(%rsp),%edi
ffffffff800005e4:	e8 57 00 00 00       	call   ffffffff80000640 <_RNvNtNtCsksYxuqllC4c_4core4char7methods25encode_utf8_raw_uncheckedCs3n1TFLxi7h8_20limine_rust_template>
ffffffff800005e9:	48 8b 44 24 08       	mov    0x8(%rsp),%rax
ffffffff800005ee:	48 89 44 24 40       	mov    %rax,0x40(%rsp)
ffffffff800005f3:	eb 19                	jmp    ffffffff8000060e <_RNvNtNtCsksYxuqllC4c_4core4char7methods15encode_utf8_rawCs3n1TFLxi7h8_20limine_rust_template+0xae>
ffffffff800005f5:	48 8b 14 24          	mov    (%rsp),%rdx
ffffffff800005f9:	8b 7c 24 14          	mov    0x14(%rsp),%edi
ffffffff800005fd:	48 8b 74 24 18       	mov    0x18(%rsp),%rsi
ffffffff80000602:	48 c7 c1 58 c6 00 80 	mov    $0xffffffff8000c658,%rcx
ffffffff80000609:	e8 72 ac 00 00       	call   ffffffff8000b280 <_RNvNvNvNtNtCsksYxuqllC4c_4core4char7methods15encode_utf8_raw8do_panic7runtime>
ffffffff8000060e:	48 8b 7c 24 08       	mov    0x8(%rsp),%rdi
ffffffff80000613:	48 8b 4c 24 18       	mov    0x18(%rsp),%rcx
ffffffff80000618:	49 c7 c0 40 c6 00 80 	mov    $0xffffffff8000c640,%r8
ffffffff8000061f:	ba 01 00 00 00       	mov    $0x1,%edx
ffffffff80000624:	48 89 d6             	mov    %rdx,%rsi
ffffffff80000627:	e8 d4 fa ff ff       	call   ffffffff80000100 <_RNvNvNtNtCsksYxuqllC4c_4core5slice3raw18from_raw_parts_mut18precondition_checkCs3n1TFLxi7h8_20limine_rust_template>
ffffffff8000062c:	48 8b 44 24 08       	mov    0x8(%rsp),%rax
ffffffff80000631:	48 8b 54 24 18       	mov    0x18(%rsp),%rdx
ffffffff80000636:	48 83 c4 48          	add    $0x48,%rsp
ffffffff8000063a:	c3                   	ret
ffffffff8000063b:	cc                   	int3
ffffffff8000063c:	cc                   	int3
ffffffff8000063d:	cc                   	int3
ffffffff8000063e:	cc                   	int3
ffffffff8000063f:	cc                   	int3

ffffffff80000640 <_RNvNtNtCsksYxuqllC4c_4core4char7methods25encode_utf8_raw_uncheckedCs3n1TFLxi7h8_20limine_rust_template>:
ffffffff80000640:	48 83 ec 68          	sub    $0x68,%rsp
ffffffff80000644:	48 89 74 24 08       	mov    %rsi,0x8(%rsp)
ffffffff80000649:	89 7c 24 14          	mov    %edi,0x14(%rsp)
ffffffff8000064d:	89 7c 24 24          	mov    %edi,0x24(%rsp)
ffffffff80000651:	48 89 74 24 28       	mov    %rsi,0x28(%rsp)
ffffffff80000656:	48 c7 44 24 30 01 00 	movq   $0x1,0x30(%rsp)
ffffffff8000065d:	00 00 
ffffffff8000065f:	48 c7 44 24 38 01 00 	movq   $0x1,0x38(%rsp)
ffffffff80000666:	00 00 
ffffffff80000668:	48 c7 44 24 40 01 00 	movq   $0x1,0x40(%rsp)
ffffffff8000066f:	00 00 
ffffffff80000671:	48 c7 44 24 48 02 00 	movq   $0x2,0x48(%rsp)
ffffffff80000678:	00 00 
ffffffff8000067a:	48 c7 44 24 50 02 00 	movq   $0x2,0x50(%rsp)
ffffffff80000681:	00 00 
ffffffff80000683:	48 c7 44 24 58 03 00 	movq   $0x3,0x58(%rsp)
ffffffff8000068a:	00 00 
ffffffff8000068c:	81 ff 80 00 00 00    	cmp    $0x80,%edi
ffffffff80000692:	72 0d                	jb     ffffffff800006a1 <_RNvNtNtCsksYxuqllC4c_4core4char7methods25encode_utf8_raw_uncheckedCs3n1TFLxi7h8_20limine_rust_template+0x61>
ffffffff80000694:	8b 44 24 14          	mov    0x14(%rsp),%eax
ffffffff80000698:	3d 00 08 00 00       	cmp    $0x800,%eax
ffffffff8000069d:	72 28                	jb     ffffffff800006c7 <_RNvNtNtCsksYxuqllC4c_4core4char7methods25encode_utf8_raw_uncheckedCs3n1TFLxi7h8_20limine_rust_template+0x87>
ffffffff8000069f:	eb 19                	jmp    ffffffff800006ba <_RNvNtNtCsksYxuqllC4c_4core4char7methods25encode_utf8_raw_uncheckedCs3n1TFLxi7h8_20limine_rust_template+0x7a>
ffffffff800006a1:	48 8b 44 24 08       	mov    0x8(%rsp),%rax
ffffffff800006a6:	8b 4c 24 14          	mov    0x14(%rsp),%ecx
ffffffff800006aa:	48 c7 44 24 18 01 00 	movq   $0x1,0x18(%rsp)
ffffffff800006b1:	00 00 
ffffffff800006b3:	88 08                	mov    %cl,(%rax)
ffffffff800006b5:	e9 9f 00 00 00       	jmp    ffffffff80000759 <_RNvNtNtCsksYxuqllC4c_4core4char7methods25encode_utf8_raw_uncheckedCs3n1TFLxi7h8_20limine_rust_template+0x119>
ffffffff800006ba:	8b 44 24 14          	mov    0x14(%rsp),%eax
ffffffff800006be:	3d 00 00 01 00       	cmp    $0x10000,%eax
ffffffff800006c3:	72 18                	jb     ffffffff800006dd <_RNvNtNtCsksYxuqllC4c_4core4char7methods25encode_utf8_raw_uncheckedCs3n1TFLxi7h8_20limine_rust_template+0x9d>
ffffffff800006c5:	eb 0b                	jmp    ffffffff800006d2 <_RNvNtNtCsksYxuqllC4c_4core4char7methods25encode_utf8_raw_uncheckedCs3n1TFLxi7h8_20limine_rust_template+0x92>
ffffffff800006c7:	48 c7 44 24 18 02 00 	movq   $0x2,0x18(%rsp)
ffffffff800006ce:	00 00 
ffffffff800006d0:	eb 14                	jmp    ffffffff800006e6 <_RNvNtNtCsksYxuqllC4c_4core4char7methods25encode_utf8_raw_uncheckedCs3n1TFLxi7h8_20limine_rust_template+0xa6>
ffffffff800006d2:	48 c7 44 24 18 04 00 	movq   $0x4,0x18(%rsp)
ffffffff800006d9:	00 00 
ffffffff800006db:	eb 09                	jmp    ffffffff800006e6 <_RNvNtNtCsksYxuqllC4c_4core4char7methods25encode_utf8_raw_uncheckedCs3n1TFLxi7h8_20limine_rust_template+0xa6>
ffffffff800006dd:	48 c7 44 24 18 03 00 	movq   $0x3,0x18(%rsp)
ffffffff800006e4:	00 00 
ffffffff800006e6:	8b 44 24 14          	mov    0x14(%rsp),%eax
ffffffff800006ea:	89 c1                	mov    %eax,%ecx
ffffffff800006ec:	83 e1 3f             	and    $0x3f,%ecx
ffffffff800006ef:	80 c9 80             	or     $0x80,%cl
ffffffff800006f2:	88 4c 24 04          	mov    %cl,0x4(%rsp)
ffffffff800006f6:	88 4c 24 64          	mov    %cl,0x64(%rsp)
ffffffff800006fa:	89 c1                	mov    %eax,%ecx
ffffffff800006fc:	c1 e9 06             	shr    $0x6,%ecx
ffffffff800006ff:	83 e1 3f             	and    $0x3f,%ecx
ffffffff80000702:	80 c9 80             	or     $0x80,%cl
ffffffff80000705:	88 4c 24 05          	mov    %cl,0x5(%rsp)
ffffffff80000709:	88 4c 24 65          	mov    %cl,0x65(%rsp)
ffffffff8000070d:	89 c1                	mov    %eax,%ecx
ffffffff8000070f:	c1 e9 0c             	shr    $0xc,%ecx
ffffffff80000712:	83 e1 3f             	and    $0x3f,%ecx
ffffffff80000715:	80 c9 80             	or     $0x80,%cl
ffffffff80000718:	88 4c 24 06          	mov    %cl,0x6(%rsp)
ffffffff8000071c:	88 4c 24 66          	mov    %cl,0x66(%rsp)
ffffffff80000720:	c1 e8 12             	shr    $0x12,%eax
ffffffff80000723:	83 e0 3f             	and    $0x3f,%eax
ffffffff80000726:	0c f0                	or     $0xf0,%al
ffffffff80000728:	88 44 24 07          	mov    %al,0x7(%rsp)
ffffffff8000072c:	88 44 24 67          	mov    %al,0x67(%rsp)
ffffffff80000730:	48 83 7c 24 18 02    	cmpq   $0x2,0x18(%rsp)
ffffffff80000736:	75 17                	jne    ffffffff8000074f <_RNvNtNtCsksYxuqllC4c_4core4char7methods25encode_utf8_raw_uncheckedCs3n1TFLxi7h8_20limine_rust_template+0x10f>
ffffffff80000738:	48 8b 44 24 08       	mov    0x8(%rsp),%rax
ffffffff8000073d:	8a 4c 24 04          	mov    0x4(%rsp),%cl
ffffffff80000741:	8a 54 24 05          	mov    0x5(%rsp),%dl
ffffffff80000745:	80 ca c0             	or     $0xc0,%dl
ffffffff80000748:	88 10                	mov    %dl,(%rax)
ffffffff8000074a:	88 48 01             	mov    %cl,0x1(%rax)
ffffffff8000074d:	eb 0a                	jmp    ffffffff80000759 <_RNvNtNtCsksYxuqllC4c_4core4char7methods25encode_utf8_raw_uncheckedCs3n1TFLxi7h8_20limine_rust_template+0x119>
ffffffff8000074f:	48 83 7c 24 18 03    	cmpq   $0x3,0x18(%rsp)
ffffffff80000755:	74 04                	je     ffffffff8000075b <_RNvNtNtCsksYxuqllC4c_4core4char7methods25encode_utf8_raw_uncheckedCs3n1TFLxi7h8_20limine_rust_template+0x11b>
ffffffff80000757:	eb 23                	jmp    ffffffff8000077c <_RNvNtNtCsksYxuqllC4c_4core4char7methods25encode_utf8_raw_uncheckedCs3n1TFLxi7h8_20limine_rust_template+0x13c>
ffffffff80000759:	eb 45                	jmp    ffffffff800007a0 <_RNvNtNtCsksYxuqllC4c_4core4char7methods25encode_utf8_raw_uncheckedCs3n1TFLxi7h8_20limine_rust_template+0x160>
ffffffff8000075b:	48 8b 44 24 08       	mov    0x8(%rsp),%rax
ffffffff80000760:	8a 4c 24 04          	mov    0x4(%rsp),%cl
ffffffff80000764:	8a 54 24 05          	mov    0x5(%rsp),%dl
ffffffff80000768:	40 8a 74 24 06       	mov    0x6(%rsp),%sil
ffffffff8000076d:	40 80 ce e0          	or     $0xe0,%sil
ffffffff80000771:	40 88 30             	mov    %sil,(%rax)
ffffffff80000774:	88 50 01             	mov    %dl,0x1(%rax)
ffffffff80000777:	88 48 02             	mov    %cl,0x2(%rax)
ffffffff8000077a:	eb dd                	jmp    ffffffff80000759 <_RNvNtNtCsksYxuqllC4c_4core4char7methods25encode_utf8_raw_uncheckedCs3n1TFLxi7h8_20limine_rust_template+0x119>
ffffffff8000077c:	48 8b 44 24 08       	mov    0x8(%rsp),%rax
ffffffff80000781:	8a 4c 24 04          	mov    0x4(%rsp),%cl
ffffffff80000785:	8a 54 24 05          	mov    0x5(%rsp),%dl
ffffffff80000789:	40 8a 74 24 06       	mov    0x6(%rsp),%sil
ffffffff8000078e:	40 8a 7c 24 07       	mov    0x7(%rsp),%dil
ffffffff80000793:	40 88 38             	mov    %dil,(%rax)
ffffffff80000796:	40 88 70 01          	mov    %sil,0x1(%rax)
ffffffff8000079a:	88 50 02             	mov    %dl,0x2(%rax)
ffffffff8000079d:	88 48 03             	mov    %cl,0x3(%rax)
ffffffff800007a0:	48 83 c4 68          	add    $0x68,%rsp
ffffffff800007a4:	c3                   	ret
ffffffff800007a5:	cc                   	int3
ffffffff800007a6:	cc                   	int3
ffffffff800007a7:	cc                   	int3
ffffffff800007a8:	cc                   	int3
ffffffff800007a9:	cc                   	int3
ffffffff800007aa:	cc                   	int3
ffffffff800007ab:	cc                   	int3
ffffffff800007ac:	cc                   	int3
ffffffff800007ad:	cc                   	int3
ffffffff800007ae:	cc                   	int3
ffffffff800007af:	cc                   	int3

ffffffff800007b0 <_RNvCs3n1TFLxi7h8_20limine_rust_template3hcf>:
ffffffff800007b0:	50                   	push   %rax
ffffffff800007b1:	eb 00                	jmp    ffffffff800007b3 <_RNvCs3n1TFLxi7h8_20limine_rust_template3hcf+0x3>
ffffffff800007b3:	f4                   	hlt
ffffffff800007b4:	eb fd                	jmp    ffffffff800007b3 <_RNvCs3n1TFLxi7h8_20limine_rust_template3hcf+0x3>
ffffffff800007b6:	cc                   	int3
ffffffff800007b7:	cc                   	int3
ffffffff800007b8:	cc                   	int3
ffffffff800007b9:	cc                   	int3
ffffffff800007ba:	cc                   	int3
ffffffff800007bb:	cc                   	int3
ffffffff800007bc:	cc                   	int3
ffffffff800007bd:	cc                   	int3
ffffffff800007be:	cc                   	int3
ffffffff800007bf:	cc                   	int3

ffffffff800007c0 <_RNvCs7fQ7oicRsDF_7___rustc17rust_begin_unwind>:
ffffffff800007c0:	50                   	push   %rax
ffffffff800007c1:	48 89 3c 24          	mov    %rdi,(%rsp)
ffffffff800007c5:	e8 e6 ff ff ff       	call   ffffffff800007b0 <_RNvCs3n1TFLxi7h8_20limine_rust_template3hcf>
ffffffff800007ca:	cc                   	int3
ffffffff800007cb:	cc                   	int3
ffffffff800007cc:	cc                   	int3
ffffffff800007cd:	cc                   	int3
ffffffff800007ce:	cc                   	int3
ffffffff800007cf:	cc                   	int3

ffffffff800007d0 <kmain>:
ffffffff800007d0:	55                   	push   %rbp
ffffffff800007d1:	53                   	push   %rbx
ffffffff800007d2:	48 81 ec 28 01 00 00 	sub    $0x128,%rsp
ffffffff800007d9:	48 c7 c7 38 f0 00 80 	mov    $0xffffffff8000f038,%rdi
ffffffff800007e0:	e8 fb 0a 00 00       	call   ffffffff800012e0 <_RNvMCsebKla8rmeo1_6limineNtB2_12BaseRevision12is_supported>
ffffffff800007e5:	a8 01                	test   $0x1,%al
ffffffff800007e7:	75 18                	jne    ffffffff80000801 <kmain+0x31>
ffffffff800007e9:	48 c7 c7 70 c6 00 80 	mov    $0xffffffff8000c670,%rdi
ffffffff800007f0:	48 c7 c2 a0 c6 00 80 	mov    $0xffffffff8000c6a0,%rdx
ffffffff800007f7:	be 2e 00 00 00       	mov    $0x2e,%esi
ffffffff800007fc:	e8 cf a5 00 00       	call   ffffffff8000add0 <_RNvNtCsksYxuqllC4c_4core9panicking5panic>
ffffffff80000801:	48 c7 c7 50 f0 00 80 	mov    $0xffffffff8000f050,%rdi
ffffffff80000808:	e8 03 0c 00 00       	call   ffffffff80001410 <_RNvMs8_NtCsebKla8rmeo1_6limine7requestNtB5_18FramebufferRequest12get_response>
ffffffff8000080d:	48 89 84 24 d8 00 00 	mov    %rax,0xd8(%rsp)
ffffffff80000814:	00 
ffffffff80000815:	48 8b 94 24 d8 00 00 	mov    0xd8(%rsp),%rdx
ffffffff8000081c:	00 
ffffffff8000081d:	b8 01 00 00 00       	mov    $0x1,%eax
ffffffff80000822:	31 c9                	xor    %ecx,%ecx
ffffffff80000824:	48 83 fa 00          	cmp    $0x0,%rdx
ffffffff80000828:	48 0f 44 c1          	cmove  %rcx,%rax
ffffffff8000082c:	48 a9 01 00 00 00    	test   $0x1,%rax
ffffffff80000832:	74 59                	je     ffffffff8000088d <kmain+0xbd>
ffffffff80000834:	48 8b b4 24 d8 00 00 	mov    0xd8(%rsp),%rsi
ffffffff8000083b:	00 
ffffffff8000083c:	48 89 b4 24 18 01 00 	mov    %rsi,0x118(%rsp)
ffffffff80000843:	00 
ffffffff80000844:	48 8d bc 24 f0 00 00 	lea    0xf0(%rsp),%rdi
ffffffff8000084b:	00 
ffffffff8000084c:	e8 2f 05 00 00       	call   ffffffff80000d80 <_RNvMs6_NtCsebKla8rmeo1_6limine8responseNtB5_19FramebufferResponse12framebuffers>
ffffffff80000851:	48 8d bc 24 f0 00 00 	lea    0xf0(%rsp),%rdi
ffffffff80000858:	00 
ffffffff80000859:	e8 72 fc ff ff       	call   ffffffff800004d0 <_RNvXs0_NtNtNtCsksYxuqllC4c_4core4iter8adapters3mapINtB5_3MapINtNtNtBb_5slice4iter4IterPNtNtCsebKla8rmeo1_6limine11framebuffer14RawFramebufferENCNvMs6_NtB1r_8responseNtB2o_19FramebufferResponse12framebuffers0ENtNtNtB9_6traits8iterator8Iterator4nextCs3n1TFLxi7h8_20limine_rust_template>
ffffffff8000085e:	48 89 84 24 e0 00 00 	mov    %rax,0xe0(%rsp)
ffffffff80000865:	00 
ffffffff80000866:	48 89 94 24 e8 00 00 	mov    %rdx,0xe8(%rsp)
ffffffff8000086d:	00 
ffffffff8000086e:	48 8b 94 24 e0 00 00 	mov    0xe0(%rsp),%rdx
ffffffff80000875:	00 
ffffffff80000876:	b8 01 00 00 00       	mov    $0x1,%eax
ffffffff8000087b:	31 c9                	xor    %ecx,%ecx
ffffffff8000087d:	48 83 fa 00          	cmp    $0x0,%rdx
ffffffff80000881:	48 0f 44 c1          	cmove  %rcx,%rax
ffffffff80000885:	48 a9 01 00 00 00    	test   $0x1,%rax
ffffffff8000088b:	75 05                	jne    ffffffff80000892 <kmain+0xc2>
ffffffff8000088d:	e8 1e ff ff ff       	call   ffffffff800007b0 <_RNvCs3n1TFLxi7h8_20limine_rust_template3hcf>
ffffffff80000892:	48 8b 8c 24 e0 00 00 	mov    0xe0(%rsp),%rcx
ffffffff80000899:	00 
ffffffff8000089a:	48 8b 84 24 e8 00 00 	mov    0xe8(%rsp),%rax
ffffffff800008a1:	00 
ffffffff800008a2:	48 89 8c 24 08 01 00 	mov    %rcx,0x108(%rsp)
ffffffff800008a9:	00 
ffffffff800008aa:	48 89 84 24 10 01 00 	mov    %rax,0x110(%rsp)
ffffffff800008b1:	00 
ffffffff800008b2:	48 8d bc 24 08 01 00 	lea    0x108(%rsp),%rdi
ffffffff800008b9:	00 
ffffffff800008ba:	48 89 bc 24 a0 00 00 	mov    %rdi,0xa0(%rsp)
ffffffff800008c1:	00 
ffffffff800008c2:	e8 79 07 00 00       	call   ffffffff80001040 <_RNvMs_NtCsebKla8rmeo1_6limine11framebufferNtB4_11Framebuffer4addr>
ffffffff800008c7:	48 8b bc 24 a0 00 00 	mov    0xa0(%rsp),%rdi
ffffffff800008ce:	00 
ffffffff800008cf:	48 89 84 24 b0 00 00 	mov    %rax,0xb0(%rsp)
ffffffff800008d6:	00 
ffffffff800008d7:	e8 24 08 00 00       	call   ffffffff80001100 <_RNvMs_NtCsebKla8rmeo1_6limine11framebufferNtB4_11Framebuffer5width>
ffffffff800008dc:	48 8b bc 24 a0 00 00 	mov    0xa0(%rsp),%rdi
ffffffff800008e3:	00 
ffffffff800008e4:	48 89 84 24 b8 00 00 	mov    %rax,0xb8(%rsp)
ffffffff800008eb:	00 
ffffffff800008ec:	e8 6f 08 00 00       	call   ffffffff80001160 <_RNvMs_NtCsebKla8rmeo1_6limine11framebufferNtB4_11Framebuffer6height>
ffffffff800008f1:	48 8b bc 24 a0 00 00 	mov    0xa0(%rsp),%rdi
ffffffff800008f8:	00 
ffffffff800008f9:	48 89 84 24 c0 00 00 	mov    %rax,0xc0(%rsp)
ffffffff80000900:	00 
ffffffff80000901:	e8 9a 07 00 00       	call   ffffffff800010a0 <_RNvMs_NtCsebKla8rmeo1_6limine11framebufferNtB4_11Framebuffer5pitch>
ffffffff80000906:	48 8b bc 24 a0 00 00 	mov    0xa0(%rsp),%rdi
ffffffff8000090d:	00 
ffffffff8000090e:	48 89 84 24 c8 00 00 	mov    %rax,0xc8(%rsp)
ffffffff80000915:	00 
ffffffff80000916:	e8 c5 04 00 00       	call   ffffffff80000de0 <_RNvMs_NtCsebKla8rmeo1_6limine11framebufferNtB4_11Framebuffer13red_mask_size>
ffffffff8000091b:	48 8b bc 24 a0 00 00 	mov    0xa0(%rsp),%rdi
ffffffff80000922:	00 
ffffffff80000923:	88 84 24 af 00 00 00 	mov    %al,0xaf(%rsp)
ffffffff8000092a:	e8 71 05 00 00       	call   ffffffff80000ea0 <_RNvMs_NtCsebKla8rmeo1_6limine11framebufferNtB4_11Framebuffer14red_mask_shift>
ffffffff8000092f:	48 8b bc 24 a0 00 00 	mov    0xa0(%rsp),%rdi
ffffffff80000936:	00 
ffffffff80000937:	88 84 24 ae 00 00 00 	mov    %al,0xae(%rsp)
ffffffff8000093e:	e8 1d 06 00 00       	call   ffffffff80000f60 <_RNvMs_NtCsebKla8rmeo1_6limine11framebufferNtB4_11Framebuffer15green_mask_size>
ffffffff80000943:	48 8b bc 24 a0 00 00 	mov    0xa0(%rsp),%rdi
ffffffff8000094a:	00 
ffffffff8000094b:	88 84 24 ad 00 00 00 	mov    %al,0xad(%rsp)
ffffffff80000952:	e8 69 06 00 00       	call   ffffffff80000fc0 <_RNvMs_NtCsebKla8rmeo1_6limine11framebufferNtB4_11Framebuffer16green_mask_shift>
ffffffff80000957:	48 8b bc 24 a0 00 00 	mov    0xa0(%rsp),%rdi
ffffffff8000095e:	00 
ffffffff8000095f:	88 84 24 ac 00 00 00 	mov    %al,0xac(%rsp)
ffffffff80000966:	e8 d5 04 00 00       	call   ffffffff80000e40 <_RNvMs_NtCsebKla8rmeo1_6limine11framebufferNtB4_11Framebuffer14blue_mask_size>
ffffffff8000096b:	48 8b bc 24 a0 00 00 	mov    0xa0(%rsp),%rdi
ffffffff80000972:	00 
ffffffff80000973:	88 c3                	mov    %al,%bl
ffffffff80000975:	e8 86 05 00 00       	call   ffffffff80000f00 <_RNvMs_NtCsebKla8rmeo1_6limine11framebufferNtB4_11Framebuffer15blue_mask_shift>
ffffffff8000097a:	44 8a 9c 24 ac 00 00 	mov    0xac(%rsp),%r11b
ffffffff80000981:	00 
ffffffff80000982:	44 8a 94 24 ad 00 00 	mov    0xad(%rsp),%r10b
ffffffff80000989:	00 
ffffffff8000098a:	40 8a bc 24 ae 00 00 	mov    0xae(%rsp),%dil
ffffffff80000991:	00 
ffffffff80000992:	40 8a b4 24 af 00 00 	mov    0xaf(%rsp),%sil
ffffffff80000999:	00 
ffffffff8000099a:	48 8b 94 24 b0 00 00 	mov    0xb0(%rsp),%rdx
ffffffff800009a1:	00 
ffffffff800009a2:	48 8b 8c 24 b8 00 00 	mov    0xb8(%rsp),%rcx
ffffffff800009a9:	00 
ffffffff800009aa:	4c 8b 84 24 c0 00 00 	mov    0xc0(%rsp),%r8
ffffffff800009b1:	00 
ffffffff800009b2:	4c 8b 8c 24 c8 00 00 	mov    0xc8(%rsp),%r9
ffffffff800009b9:	00 
ffffffff800009ba:	0f b6 e8             	movzbl %al,%ebp
ffffffff800009bd:	48 89 e0             	mov    %rsp,%rax
ffffffff800009c0:	48 89 84 24 d0 00 00 	mov    %rax,0xd0(%rsp)
ffffffff800009c7:	00 
ffffffff800009c8:	89 68 28             	mov    %ebp,0x28(%rax)
ffffffff800009cb:	0f b6 db             	movzbl %bl,%ebx
ffffffff800009ce:	89 58 20             	mov    %ebx,0x20(%rax)
ffffffff800009d1:	45 0f b6 db          	movzbl %r11b,%r11d
ffffffff800009d5:	44 89 58 18          	mov    %r11d,0x18(%rax)
ffffffff800009d9:	45 0f b6 d2          	movzbl %r10b,%r10d
ffffffff800009dd:	44 89 50 10          	mov    %r10d,0x10(%rax)
ffffffff800009e1:	40 0f b6 ff          	movzbl %dil,%edi
ffffffff800009e5:	89 78 08             	mov    %edi,0x8(%rax)
ffffffff800009e8:	40 0f b6 f6          	movzbl %sil,%esi
ffffffff800009ec:	89 30                	mov    %esi,(%rax)
ffffffff800009ee:	48 c7 80 98 00 00 00 	movq   $0x32,0x98(%rax)
ffffffff800009f5:	32 00 00 00 
ffffffff800009f9:	48 c7 80 90 00 00 00 	movq   $0x1,0x90(%rax)
ffffffff80000a00:	01 00 00 00 
ffffffff80000a04:	48 c7 80 88 00 00 00 	movq   $0x1,0x88(%rax)
ffffffff80000a0b:	01 00 00 00 
ffffffff80000a0f:	48 c7 80 80 00 00 00 	movq   $0x0,0x80(%rax)
ffffffff80000a16:	00 00 00 00 
ffffffff80000a1a:	48 c7 40 78 00 00 00 	movq   $0x0,0x78(%rax)
ffffffff80000a21:	00 
ffffffff80000a22:	48 c7 40 70 00 00 00 	movq   $0x0,0x70(%rax)
ffffffff80000a29:	00 
ffffffff80000a2a:	48 c7 40 68 00 00 00 	movq   $0x0,0x68(%rax)
ffffffff80000a31:	00 
ffffffff80000a32:	48 c7 40 60 00 00 00 	movq   $0x0,0x60(%rax)
ffffffff80000a39:	00 
ffffffff80000a3a:	48 c7 40 58 00 00 00 	movq   $0x0,0x58(%rax)
ffffffff80000a41:	00 
ffffffff80000a42:	48 c7 40 50 00 00 00 	movq   $0x0,0x50(%rax)
ffffffff80000a49:	00 
ffffffff80000a4a:	48 c7 40 48 00 00 00 	movq   $0x0,0x48(%rax)
ffffffff80000a51:	00 
ffffffff80000a52:	48 c7 40 40 00 00 00 	movq   $0x0,0x40(%rax)
ffffffff80000a59:	00 
ffffffff80000a5a:	48 c7 40 38 00 00 00 	movq   $0x0,0x38(%rax)
ffffffff80000a61:	00 
ffffffff80000a62:	48 c7 40 30 00 00 00 	movq   $0x0,0x30(%rax)
ffffffff80000a69:	00 
ffffffff80000a6a:	31 c0                	xor    %eax,%eax
ffffffff80000a6c:	89 c6                	mov    %eax,%esi
ffffffff80000a6e:	48 89 f7             	mov    %rsi,%rdi
ffffffff80000a71:	e8 0d 78 00 00       	call   ffffffff80008283 <flanterm_fb_init>
ffffffff80000a76:	48 89 c7             	mov    %rax,%rdi
ffffffff80000a79:	e8 02 01 00 00       	call   ffffffff80000b80 <_RNvNtCs5YlR77XNAoe_20limine_rust_template2ft13init_terminal>
ffffffff80000a7e:	e8 9d 00 00 00       	call   ffffffff80000b20 <_RNvNtNtCs5YlR77XNAoe_20limine_rust_template4arch3gdt8gdt_init>
ffffffff80000a83:	48 8b 05 26 e6 00 00 	mov    0xe626(%rip),%rax        # ffffffff8000f0b0 <_RNvNtCs5YlR77XNAoe_20limine_rust_template2ft8TERMINAL>
ffffffff80000a8a:	48 a9 01 00 00 00    	test   $0x1,%rax
ffffffff80000a90:	0f 84 f7 fd ff ff    	je     ffffffff8000088d <kmain+0xbd>
ffffffff80000a96:	48 c7 c0 b0 f0 00 80 	mov    $0xffffffff8000f0b0,%rax
ffffffff80000a9d:	48 85 c0             	test   %rax,%rax
ffffffff80000aa0:	0f 94 c0             	sete   %al
ffffffff80000aa3:	24 ff                	and    $0xff,%al
ffffffff80000aa5:	34 ff                	xor    $0xff,%al
ffffffff80000aa7:	a8 01                	test   $0x1,%al
ffffffff80000aa9:	75 02                	jne    ffffffff80000aad <kmain+0x2dd>
ffffffff80000aab:	eb 31                	jmp    ffffffff80000ade <kmain+0x30e>
ffffffff80000aad:	48 c7 84 24 20 01 00 	movq   $0xffffffff8000f0b8,0x120(%rsp)
ffffffff80000ab4:	00 b8 f0 00 80 
ffffffff80000ab9:	48 c7 c7 d0 c6 00 80 	mov    $0xffffffff8000c6d0,%rdi
ffffffff80000ac0:	be 04 00 00 00       	mov    $0x4,%esi
ffffffff80000ac5:	e8 36 f7 ff ff       	call   ffffffff80000200 <_RNvMs2_NtCsksYxuqllC4c_4core3fmtNtB5_9Arguments17from_str_nonconstCs3n1TFLxi7h8_20limine_rust_template>
ffffffff80000aca:	48 89 c6             	mov    %rax,%rsi
ffffffff80000acd:	48 c7 c7 b8 f0 00 80 	mov    $0xffffffff8000f0b8,%rdi
ffffffff80000ad4:	e8 d7 f9 ff ff       	call   ffffffff800004b0 <_RNvYNtNtCs5YlR77XNAoe_20limine_rust_template2ft4BallNtNtCsksYxuqllC4c_4core3fmt5Write9write_fmtCs3n1TFLxi7h8_20limine_rust_template>
ffffffff80000ad9:	e9 af fd ff ff       	jmp    ffffffff8000088d <kmain+0xbd>
ffffffff80000ade:	48 c7 c7 b8 c6 00 80 	mov    $0xffffffff8000c6b8,%rdi
ffffffff80000ae5:	e8 c3 a2 00 00       	call   ffffffff8000adad <_RNvNtCsksYxuqllC4c_4core9panicking30panic_null_pointer_dereference>
ffffffff80000aea:	cc                   	int3
ffffffff80000aeb:	cc                   	int3
ffffffff80000aec:	cc                   	int3
ffffffff80000aed:	cc                   	int3
ffffffff80000aee:	cc                   	int3
ffffffff80000aef:	cc                   	int3

ffffffff80000af0 <_RNCNvMs6_NtCsebKla8rmeo1_6limine8responseNtB7_19FramebufferResponse12framebuffers0Cs3n1TFLxi7h8_20limine_rust_template>:
ffffffff80000af0:	48 83 ec 18          	sub    $0x18,%rsp
ffffffff80000af4:	48 89 3c 24          	mov    %rdi,(%rsp)
ffffffff80000af8:	48 89 74 24 08       	mov    %rsi,0x8(%rsp)
ffffffff80000afd:	48 8b 36             	mov    (%rsi),%rsi
ffffffff80000b00:	48 89 74 24 10       	mov    %rsi,0x10(%rsp)
ffffffff80000b05:	48 8b 07             	mov    (%rdi),%rax
ffffffff80000b08:	48 8b 38             	mov    (%rax),%rdi
ffffffff80000b0b:	e8 10 05 00 00       	call   ffffffff80001020 <_RNvMs_NtCsebKla8rmeo1_6limine11framebufferNtB4_11Framebuffer3new>
ffffffff80000b10:	48 83 c4 18          	add    $0x18,%rsp
ffffffff80000b14:	c3                   	ret
ffffffff80000b15:	cc                   	int3
ffffffff80000b16:	cc                   	int3
ffffffff80000b17:	cc                   	int3
ffffffff80000b18:	cc                   	int3
ffffffff80000b19:	cc                   	int3
ffffffff80000b1a:	cc                   	int3
ffffffff80000b1b:	cc                   	int3
ffffffff80000b1c:	cc                   	int3
ffffffff80000b1d:	cc                   	int3
ffffffff80000b1e:	cc                   	int3
ffffffff80000b1f:	cc                   	int3

ffffffff80000b20 <_RNvNtNtCs5YlR77XNAoe_20limine_rust_template4arch3gdt8gdt_init>:
ffffffff80000b20:	50                   	push   %rax
ffffffff80000b21:	b8 18 00 00 00       	mov    $0x18,%eax
ffffffff80000b26:	48 83 e8 01          	sub    $0x1,%rax
ffffffff80000b2a:	48 89 04 24          	mov    %rax,(%rsp)
ffffffff80000b2e:	b8 18 00 00 00       	mov    $0x18,%eax
ffffffff80000b33:	48 83 f8 01          	cmp    $0x1,%rax
ffffffff80000b37:	72 33                	jb     ffffffff80000b6c <_RNvNtNtCs5YlR77XNAoe_20limine_rust_template4arch3gdt8gdt_init+0x4c>
ffffffff80000b39:	48 8b 04 24          	mov    (%rsp),%rax
ffffffff80000b3d:	66 89 05 5c e5 00 00 	mov    %ax,0xe55c(%rip)        # ffffffff8000f0a0 <_RNvNtNtCs5YlR77XNAoe_20limine_rust_template4arch3gdt4GDTR>
ffffffff80000b44:	48 c7 05 53 e5 00 00 	movq   $0xffffffff8000c6f0,0xe553(%rip)        # ffffffff8000f0a2 <_RNvNtNtCs5YlR77XNAoe_20limine_rust_template4arch3gdt4GDTR+0x2>
ffffffff80000b4b:	f0 c6 00 80 
ffffffff80000b4f:	48 c7 c0 a0 f0 00 80 	mov    $0xffffffff8000f0a0,%rax
ffffffff80000b56:	0f 01 10             	lgdt   (%rax)
ffffffff80000b59:	6a 40                	push   $0x40
ffffffff80000b5b:	48 8d 04 25 66 0b 00 	lea    0xffffffff80000b66,%rax
ffffffff80000b62:	80 
ffffffff80000b63:	50                   	push   %rax
ffffffff80000b64:	48 cb                	lretq
ffffffff80000b66:	66 b8 80 00          	mov    $0x80,%ax
ffffffff80000b6a:	58                   	pop    %rax
ffffffff80000b6b:	c3                   	ret
ffffffff80000b6c:	48 c7 c7 d8 c6 00 80 	mov    $0xffffffff8000c6d8,%rdi
ffffffff80000b73:	e8 88 a6 00 00       	call   ffffffff8000b200 <_RNvNtNtCsksYxuqllC4c_4core9panicking11panic_const24panic_const_sub_overflow>
ffffffff80000b78:	cc                   	int3
ffffffff80000b79:	cc                   	int3
ffffffff80000b7a:	cc                   	int3
ffffffff80000b7b:	cc                   	int3
ffffffff80000b7c:	cc                   	int3
ffffffff80000b7d:	cc                   	int3
ffffffff80000b7e:	cc                   	int3
ffffffff80000b7f:	cc                   	int3

ffffffff80000b80 <_RNvNtCs5YlR77XNAoe_20limine_rust_template2ft13init_terminal>:
ffffffff80000b80:	50                   	push   %rax
ffffffff80000b81:	48 89 3c 24          	mov    %rdi,(%rsp)
ffffffff80000b85:	48 c7 05 20 e5 00 00 	movq   $0x1,0xe520(%rip)        # ffffffff8000f0b0 <_RNvNtCs5YlR77XNAoe_20limine_rust_template2ft8TERMINAL>
ffffffff80000b8c:	01 00 00 00 
ffffffff80000b90:	48 89 3d 21 e5 00 00 	mov    %rdi,0xe521(%rip)        # ffffffff8000f0b8 <_RNvNtCs5YlR77XNAoe_20limine_rust_template2ft8TERMINAL+0x8>
ffffffff80000b97:	58                   	pop    %rax
ffffffff80000b98:	c3                   	ret
ffffffff80000b99:	cc                   	int3
ffffffff80000b9a:	cc                   	int3
ffffffff80000b9b:	cc                   	int3
ffffffff80000b9c:	cc                   	int3
ffffffff80000b9d:	cc                   	int3
ffffffff80000b9e:	cc                   	int3
ffffffff80000b9f:	cc                   	int3

ffffffff80000ba0 <_RNvXNtCs5YlR77XNAoe_20limine_rust_template2ftNtB2_4BallNtNtCsksYxuqllC4c_4core3fmt5Write9write_str>:
ffffffff80000ba0:	48 83 ec 58          	sub    $0x58,%rsp
ffffffff80000ba4:	48 89 54 24 10       	mov    %rdx,0x10(%rsp)
ffffffff80000ba9:	48 89 74 24 18       	mov    %rsi,0x18(%rsp)
ffffffff80000bae:	48 89 7c 24 20       	mov    %rdi,0x20(%rsp)
ffffffff80000bb3:	48 89 7c 24 30       	mov    %rdi,0x30(%rsp)
ffffffff80000bb8:	48 89 74 24 38       	mov    %rsi,0x38(%rsp)
ffffffff80000bbd:	48 89 54 24 40       	mov    %rdx,0x40(%rsp)
ffffffff80000bc2:	48 8b 3f             	mov    (%rdi),%rdi
ffffffff80000bc5:	e8 b6 00 00 00       	call   ffffffff80000c80 <_RNvMNtNtCsksYxuqllC4c_4core3ptr7mut_ptrONtNtCs4GlyYEYgXtH_16flantermbindings8flanterm16flanterm_context7is_nullCs5YlR77XNAoe_20limine_rust_template>
ffffffff80000bca:	a8 01                	test   $0x1,%al
ffffffff80000bcc:	75 15                	jne    ffffffff80000be3 <_RNvXNtCs5YlR77XNAoe_20limine_rust_template2ftNtB2_4BallNtNtCsksYxuqllC4c_4core3fmt5Write9write_str+0x43>
ffffffff80000bce:	48 8b 74 24 10       	mov    0x10(%rsp),%rsi
ffffffff80000bd3:	48 8b 7c 24 18       	mov    0x18(%rsp),%rdi
ffffffff80000bd8:	e8 83 00 00 00       	call   ffffffff80000c60 <_RNvMNtCsksYxuqllC4c_4core3stre8is_emptyCs5YlR77XNAoe_20limine_rust_template>
ffffffff80000bdd:	a8 01                	test   $0x1,%al
ffffffff80000bdf:	75 48                	jne    ffffffff80000c29 <_RNvXNtCs5YlR77XNAoe_20limine_rust_template2ftNtB2_4BallNtNtCsksYxuqllC4c_4core3fmt5Write9write_str+0x89>
ffffffff80000be1:	eb 07                	jmp    ffffffff80000bea <_RNvXNtCs5YlR77XNAoe_20limine_rust_template2ftNtB2_4BallNtNtCsksYxuqllC4c_4core3fmt5Write9write_str+0x4a>
ffffffff80000be3:	c6 44 24 2f 01       	movb   $0x1,0x2f(%rsp)
ffffffff80000be8:	eb 44                	jmp    ffffffff80000c2e <_RNvXNtCs5YlR77XNAoe_20limine_rust_template2ftNtB2_4BallNtNtCsksYxuqllC4c_4core3fmt5Write9write_str+0x8e>
ffffffff80000bea:	48 8b 7c 24 18       	mov    0x18(%rsp),%rdi
ffffffff80000bef:	48 8b 74 24 10       	mov    0x10(%rsp),%rsi
ffffffff80000bf4:	48 8b 44 24 20       	mov    0x20(%rsp),%rax
ffffffff80000bf9:	48 8b 00             	mov    (%rax),%rax
ffffffff80000bfc:	48 89 44 24 08       	mov    %rax,0x8(%rsp)
ffffffff80000c01:	48 89 7c 24 48       	mov    %rdi,0x48(%rsp)
ffffffff80000c06:	48 89 74 24 50       	mov    %rsi,0x50(%rsp)
ffffffff80000c0b:	e8 30 00 00 00       	call   ffffffff80000c40 <_RNvMNtCsksYxuqllC4c_4core3stre3lenCs5YlR77XNAoe_20limine_rust_template>
ffffffff80000c10:	48 8b 7c 24 08       	mov    0x8(%rsp),%rdi
ffffffff80000c15:	48 8b 74 24 18       	mov    0x18(%rsp),%rsi
ffffffff80000c1a:	48 89 c2             	mov    %rax,%rdx
ffffffff80000c1d:	e8 4c 0b 00 00       	call   ffffffff8000176e <flanterm_write>
ffffffff80000c22:	c6 44 24 2f 00       	movb   $0x0,0x2f(%rsp)
ffffffff80000c27:	eb 05                	jmp    ffffffff80000c2e <_RNvXNtCs5YlR77XNAoe_20limine_rust_template2ftNtB2_4BallNtNtCsksYxuqllC4c_4core3fmt5Write9write_str+0x8e>
ffffffff80000c29:	c6 44 24 2f 00       	movb   $0x0,0x2f(%rsp)
ffffffff80000c2e:	8a 44 24 2f          	mov    0x2f(%rsp),%al
ffffffff80000c32:	24 01                	and    $0x1,%al
ffffffff80000c34:	48 83 c4 58          	add    $0x58,%rsp
ffffffff80000c38:	c3                   	ret
ffffffff80000c39:	cc                   	int3
ffffffff80000c3a:	cc                   	int3
ffffffff80000c3b:	cc                   	int3
ffffffff80000c3c:	cc                   	int3
ffffffff80000c3d:	cc                   	int3
ffffffff80000c3e:	cc                   	int3
ffffffff80000c3f:	cc                   	int3

ffffffff80000c40 <_RNvMNtCsksYxuqllC4c_4core3stre3lenCs5YlR77XNAoe_20limine_rust_template>:
ffffffff80000c40:	48 83 ec 10          	sub    $0x10,%rsp
ffffffff80000c44:	48 89 f0             	mov    %rsi,%rax
ffffffff80000c47:	48 89 3c 24          	mov    %rdi,(%rsp)
ffffffff80000c4b:	48 89 44 24 08       	mov    %rax,0x8(%rsp)
ffffffff80000c50:	48 83 c4 10          	add    $0x10,%rsp
ffffffff80000c54:	c3                   	ret
ffffffff80000c55:	cc                   	int3
ffffffff80000c56:	cc                   	int3
ffffffff80000c57:	cc                   	int3
ffffffff80000c58:	cc                   	int3
ffffffff80000c59:	cc                   	int3
ffffffff80000c5a:	cc                   	int3
ffffffff80000c5b:	cc                   	int3
ffffffff80000c5c:	cc                   	int3
ffffffff80000c5d:	cc                   	int3
ffffffff80000c5e:	cc                   	int3
ffffffff80000c5f:	cc                   	int3

ffffffff80000c60 <_RNvMNtCsksYxuqllC4c_4core3stre8is_emptyCs5YlR77XNAoe_20limine_rust_template>:
ffffffff80000c60:	48 83 ec 10          	sub    $0x10,%rsp
ffffffff80000c64:	48 89 3c 24          	mov    %rdi,(%rsp)
ffffffff80000c68:	48 89 74 24 08       	mov    %rsi,0x8(%rsp)
ffffffff80000c6d:	48 83 fe 00          	cmp    $0x0,%rsi
ffffffff80000c71:	0f 94 c0             	sete   %al
ffffffff80000c74:	24 01                	and    $0x1,%al
ffffffff80000c76:	48 83 c4 10          	add    $0x10,%rsp
ffffffff80000c7a:	c3                   	ret
ffffffff80000c7b:	cc                   	int3
ffffffff80000c7c:	cc                   	int3
ffffffff80000c7d:	cc                   	int3
ffffffff80000c7e:	cc                   	int3
ffffffff80000c7f:	cc                   	int3

ffffffff80000c80 <_RNvMNtNtCsksYxuqllC4c_4core3ptr7mut_ptrONtNtCs4GlyYEYgXtH_16flantermbindings8flanterm16flanterm_context7is_nullCs5YlR77XNAoe_20limine_rust_template>:
ffffffff80000c80:	50                   	push   %rax
ffffffff80000c81:	48 89 3c 24          	mov    %rdi,(%rsp)
ffffffff80000c85:	48 83 ff 00          	cmp    $0x0,%rdi
ffffffff80000c89:	0f 94 c0             	sete   %al
ffffffff80000c8c:	24 01                	and    $0x1,%al
ffffffff80000c8e:	59                   	pop    %rcx
ffffffff80000c8f:	c3                   	ret

ffffffff80000c90 <_RNvMNtNtCsksYxuqllC4c_4core3ptr9const_ptrPu13is_aligned_toCshIj2jc3egO4_8bytemuck>:
ffffffff80000c90:	48 83 ec 38          	sub    $0x38,%rsp
ffffffff80000c94:	48 89 f1             	mov    %rsi,%rcx
ffffffff80000c97:	48 89 0c 24          	mov    %rcx,(%rsp)
ffffffff80000c9b:	48 89 7c 24 08       	mov    %rdi,0x8(%rsp)
ffffffff80000ca0:	48 89 7c 24 10       	mov    %rdi,0x10(%rsp)
ffffffff80000ca5:	48 89 4c 24 18       	mov    %rcx,0x18(%rsp)
ffffffff80000caa:	48 89 c8             	mov    %rcx,%rax
ffffffff80000cad:	48 d1 e8             	shr    $1,%rax
ffffffff80000cb0:	48 ba 55 55 55 55 55 	movabs $0x5555555555555555,%rdx
ffffffff80000cb7:	55 55 55 
ffffffff80000cba:	48 21 d0             	and    %rdx,%rax
ffffffff80000cbd:	48 29 c1             	sub    %rax,%rcx
ffffffff80000cc0:	48 ba 33 33 33 33 33 	movabs $0x3333333333333333,%rdx
ffffffff80000cc7:	33 33 33 
ffffffff80000cca:	48 89 c8             	mov    %rcx,%rax
ffffffff80000ccd:	48 21 d0             	and    %rdx,%rax
ffffffff80000cd0:	48 c1 e9 02          	shr    $0x2,%rcx
ffffffff80000cd4:	48 21 d1             	and    %rdx,%rcx
ffffffff80000cd7:	48 01 c8             	add    %rcx,%rax
ffffffff80000cda:	48 89 c1             	mov    %rax,%rcx
ffffffff80000cdd:	48 c1 e9 04          	shr    $0x4,%rcx
ffffffff80000ce1:	48 01 c8             	add    %rcx,%rax
ffffffff80000ce4:	48 b9 0f 0f 0f 0f 0f 	movabs $0xf0f0f0f0f0f0f0f,%rcx
ffffffff80000ceb:	0f 0f 0f 
ffffffff80000cee:	48 21 c8             	and    %rcx,%rax
ffffffff80000cf1:	48 b9 01 01 01 01 01 	movabs $0x101010101010101,%rcx
ffffffff80000cf8:	01 01 01 
ffffffff80000cfb:	48 0f af c1          	imul   %rcx,%rax
ffffffff80000cff:	48 c1 e8 38          	shr    $0x38,%rax
ffffffff80000d03:	89 44 24 24          	mov    %eax,0x24(%rsp)
ffffffff80000d07:	83 7c 24 24 01       	cmpl   $0x1,0x24(%rsp)
ffffffff80000d0c:	75 1e                	jne    ffffffff80000d2c <_RNvMNtNtCsksYxuqllC4c_4core3ptr9const_ptrPu13is_aligned_toCshIj2jc3egO4_8bytemuck+0x9c>
ffffffff80000d0e:	48 8b 44 24 08       	mov    0x8(%rsp),%rax
ffffffff80000d13:	48 8b 0c 24          	mov    (%rsp),%rcx
ffffffff80000d17:	48 83 e9 01          	sub    $0x1,%rcx
ffffffff80000d1b:	48 21 c8             	and    %rcx,%rax
ffffffff80000d1e:	48 83 f8 00          	cmp    $0x0,%rax
ffffffff80000d22:	0f 94 c0             	sete   %al
ffffffff80000d25:	24 01                	and    $0x1,%al
ffffffff80000d27:	48 83 c4 38          	add    $0x38,%rsp
ffffffff80000d2b:	c3                   	ret
ffffffff80000d2c:	48 c7 44 24 28 10 c7 	movq   $0xffffffff8000c710,0x28(%rsp)
ffffffff80000d33:	00 80 
ffffffff80000d35:	48 c7 44 24 30 2a 00 	movq   $0x2a,0x30(%rsp)
ffffffff80000d3c:	00 00 
ffffffff80000d3e:	48 c7 c7 10 c7 00 80 	mov    $0xffffffff8000c710,%rdi
ffffffff80000d45:	48 c7 c2 40 c7 00 80 	mov    $0xffffffff8000c740,%rdx
ffffffff80000d4c:	be 55 00 00 00       	mov    $0x55,%esi
ffffffff80000d51:	e8 9a a0 00 00       	call   ffffffff8000adf0 <_RNvNtCsksYxuqllC4c_4core9panicking9panic_fmt>
ffffffff80000d56:	cc                   	int3
ffffffff80000d57:	cc                   	int3
ffffffff80000d58:	cc                   	int3
ffffffff80000d59:	cc                   	int3
ffffffff80000d5a:	cc                   	int3
ffffffff80000d5b:	cc                   	int3
ffffffff80000d5c:	cc                   	int3
ffffffff80000d5d:	cc                   	int3
ffffffff80000d5e:	cc                   	int3
ffffffff80000d5f:	cc                   	int3

ffffffff80000d60 <_RNvMNtCsksYxuqllC4c_4core5sliceSPNtNtCsebKla8rmeo1_6limine11framebuffer14RawFramebuffer4iterBz_>:
ffffffff80000d60:	48 83 ec 18          	sub    $0x18,%rsp
ffffffff80000d64:	48 89 7c 24 08       	mov    %rdi,0x8(%rsp)
ffffffff80000d69:	48 89 74 24 10       	mov    %rsi,0x10(%rsp)
ffffffff80000d6e:	e8 3d 06 00 00       	call   ffffffff800013b0 <_RNvMs4_NtNtCsksYxuqllC4c_4core5slice4iterINtB5_4IterPNtNtCsebKla8rmeo1_6limine11framebuffer14RawFramebufferE3newBT_>
ffffffff80000d73:	48 83 c4 18          	add    $0x18,%rsp
ffffffff80000d77:	c3                   	ret
ffffffff80000d78:	cc                   	int3
ffffffff80000d79:	cc                   	int3
ffffffff80000d7a:	cc                   	int3
ffffffff80000d7b:	cc                   	int3
ffffffff80000d7c:	cc                   	int3
ffffffff80000d7d:	cc                   	int3
ffffffff80000d7e:	cc                   	int3
ffffffff80000d7f:	cc                   	int3

ffffffff80000d80 <_RNvMs6_NtCsebKla8rmeo1_6limine8responseNtB5_19FramebufferResponse12framebuffers>:
ffffffff80000d80:	48 83 ec 28          	sub    $0x28,%rsp
ffffffff80000d84:	48 89 74 24 10       	mov    %rsi,0x10(%rsp)
ffffffff80000d89:	48 89 7c 24 08       	mov    %rdi,0x8(%rsp)
ffffffff80000d8e:	48 89 7c 24 18       	mov    %rdi,0x18(%rsp)
ffffffff80000d93:	48 89 74 24 20       	mov    %rsi,0x20(%rsp)
ffffffff80000d98:	48 8b 7e 10          	mov    0x10(%rsi),%rdi
ffffffff80000d9c:	48 8b 76 08          	mov    0x8(%rsi),%rsi
ffffffff80000da0:	48 c7 c2 58 c7 00 80 	mov    $0xffffffff8000c758,%rdx
ffffffff80000da7:	e8 b4 04 00 00       	call   ffffffff80001260 <_RINvNtNtCsksYxuqllC4c_4core5slice3raw14from_raw_partsPNtNtCsebKla8rmeo1_6limine11framebuffer14RawFramebufferEBU_>
ffffffff80000dac:	48 89 c7             	mov    %rax,%rdi
ffffffff80000daf:	48 89 d6             	mov    %rdx,%rsi
ffffffff80000db2:	e8 a9 ff ff ff       	call   ffffffff80000d60 <_RNvMNtCsksYxuqllC4c_4core5sliceSPNtNtCsebKla8rmeo1_6limine11framebuffer14RawFramebuffer4iterBz_>
ffffffff80000db7:	48 8b 7c 24 08       	mov    0x8(%rsp),%rdi
ffffffff80000dbc:	48 8b 4c 24 10       	mov    0x10(%rsp),%rcx
ffffffff80000dc1:	48 89 c6             	mov    %rax,%rsi
ffffffff80000dc4:	e8 e7 04 00 00       	call   ffffffff800012b0 <_RINvYINtNtNtCsksYxuqllC4c_4core5slice4iter4IterPNtNtCsebKla8rmeo1_6limine11framebuffer14RawFramebufferENtNtNtNtBa_4iter6traits8iterator8Iterator3mapNtBM_11FramebufferNCNvMs6_NtBO_8responseNtB2M_19FramebufferResponse12framebuffers0EBO_>
ffffffff80000dc9:	48 8b 44 24 18       	mov    0x18(%rsp),%rax
ffffffff80000dce:	48 83 c4 28          	add    $0x28,%rsp
ffffffff80000dd2:	c3                   	ret
ffffffff80000dd3:	cc                   	int3
ffffffff80000dd4:	cc                   	int3
ffffffff80000dd5:	cc                   	int3
ffffffff80000dd6:	cc                   	int3
ffffffff80000dd7:	cc                   	int3
ffffffff80000dd8:	cc                   	int3
ffffffff80000dd9:	cc                   	int3
ffffffff80000dda:	cc                   	int3
ffffffff80000ddb:	cc                   	int3
ffffffff80000ddc:	cc                   	int3
ffffffff80000ddd:	cc                   	int3
ffffffff80000dde:	cc                   	int3
ffffffff80000ddf:	cc                   	int3

ffffffff80000de0 <_RNvMs_NtCsebKla8rmeo1_6limine11framebufferNtB4_11Framebuffer13red_mask_size>:
ffffffff80000de0:	48 83 ec 48          	sub    $0x48,%rsp
ffffffff80000de4:	48 89 7c 24 40       	mov    %rdi,0x40(%rsp)
ffffffff80000de9:	48 8b 0f             	mov    (%rdi),%rcx
ffffffff80000dec:	48 8b 41 38          	mov    0x38(%rcx),%rax
ffffffff80000df0:	48 89 44 24 38       	mov    %rax,0x38(%rsp)
ffffffff80000df5:	48 8b 41 30          	mov    0x30(%rcx),%rax
ffffffff80000df9:	48 89 44 24 30       	mov    %rax,0x30(%rsp)
ffffffff80000dfe:	48 8b 41 28          	mov    0x28(%rcx),%rax
ffffffff80000e02:	48 89 44 24 28       	mov    %rax,0x28(%rsp)
ffffffff80000e07:	48 8b 41 20          	mov    0x20(%rcx),%rax
ffffffff80000e0b:	48 89 44 24 20       	mov    %rax,0x20(%rsp)
ffffffff80000e10:	48 8b 41 18          	mov    0x18(%rcx),%rax
ffffffff80000e14:	48 89 44 24 18       	mov    %rax,0x18(%rsp)
ffffffff80000e19:	48 8b 41 10          	mov    0x10(%rcx),%rax
ffffffff80000e1d:	48 89 44 24 10       	mov    %rax,0x10(%rsp)
ffffffff80000e22:	48 8b 01             	mov    (%rcx),%rax
ffffffff80000e25:	48 8b 49 08          	mov    0x8(%rcx),%rcx
ffffffff80000e29:	48 89 4c 24 08       	mov    %rcx,0x8(%rsp)
ffffffff80000e2e:	48 89 04 24          	mov    %rax,(%rsp)
ffffffff80000e32:	8a 44 24 23          	mov    0x23(%rsp),%al
ffffffff80000e36:	48 83 c4 48          	add    $0x48,%rsp
ffffffff80000e3a:	c3                   	ret
ffffffff80000e3b:	cc                   	int3
ffffffff80000e3c:	cc                   	int3
ffffffff80000e3d:	cc                   	int3
ffffffff80000e3e:	cc                   	int3
ffffffff80000e3f:	cc                   	int3

ffffffff80000e40 <_RNvMs_NtCsebKla8rmeo1_6limine11framebufferNtB4_11Framebuffer14blue_mask_size>:
ffffffff80000e40:	48 83 ec 48          	sub    $0x48,%rsp
ffffffff80000e44:	48 89 7c 24 40       	mov    %rdi,0x40(%rsp)
ffffffff80000e49:	48 8b 0f             	mov    (%rdi),%rcx
ffffffff80000e4c:	48 8b 41 38          	mov    0x38(%rcx),%rax
ffffffff80000e50:	48 89 44 24 38       	mov    %rax,0x38(%rsp)
ffffffff80000e55:	48 8b 41 30          	mov    0x30(%rcx),%rax
ffffffff80000e59:	48 89 44 24 30       	mov    %rax,0x30(%rsp)
ffffffff80000e5e:	48 8b 41 28          	mov    0x28(%rcx),%rax
ffffffff80000e62:	48 89 44 24 28       	mov    %rax,0x28(%rsp)
ffffffff80000e67:	48 8b 41 20          	mov    0x20(%rcx),%rax
ffffffff80000e6b:	48 89 44 24 20       	mov    %rax,0x20(%rsp)
ffffffff80000e70:	48 8b 41 18          	mov    0x18(%rcx),%rax
ffffffff80000e74:	48 89 44 24 18       	mov    %rax,0x18(%rsp)
ffffffff80000e79:	48 8b 41 10          	mov    0x10(%rcx),%rax
ffffffff80000e7d:	48 89 44 24 10       	mov    %rax,0x10(%rsp)
ffffffff80000e82:	48 8b 01             	mov    (%rcx),%rax
ffffffff80000e85:	48 8b 49 08          	mov    0x8(%rcx),%rcx
ffffffff80000e89:	48 89 4c 24 08       	mov    %rcx,0x8(%rsp)
ffffffff80000e8e:	48 89 04 24          	mov    %rax,(%rsp)
ffffffff80000e92:	8a 44 24 27          	mov    0x27(%rsp),%al
ffffffff80000e96:	48 83 c4 48          	add    $0x48,%rsp
ffffffff80000e9a:	c3                   	ret
ffffffff80000e9b:	cc                   	int3
ffffffff80000e9c:	cc                   	int3
ffffffff80000e9d:	cc                   	int3
ffffffff80000e9e:	cc                   	int3
ffffffff80000e9f:	cc                   	int3

ffffffff80000ea0 <_RNvMs_NtCsebKla8rmeo1_6limine11framebufferNtB4_11Framebuffer14red_mask_shift>:
ffffffff80000ea0:	48 83 ec 48          	sub    $0x48,%rsp
ffffffff80000ea4:	48 89 7c 24 40       	mov    %rdi,0x40(%rsp)
ffffffff80000ea9:	48 8b 0f             	mov    (%rdi),%rcx
ffffffff80000eac:	48 8b 41 38          	mov    0x38(%rcx),%rax
ffffffff80000eb0:	48 89 44 24 38       	mov    %rax,0x38(%rsp)
ffffffff80000eb5:	48 8b 41 30          	mov    0x30(%rcx),%rax
ffffffff80000eb9:	48 89 44 24 30       	mov    %rax,0x30(%rsp)
ffffffff80000ebe:	48 8b 41 28          	mov    0x28(%rcx),%rax
ffffffff80000ec2:	48 89 44 24 28       	mov    %rax,0x28(%rsp)
ffffffff80000ec7:	48 8b 41 20          	mov    0x20(%rcx),%rax
ffffffff80000ecb:	48 89 44 24 20       	mov    %rax,0x20(%rsp)
ffffffff80000ed0:	48 8b 41 18          	mov    0x18(%rcx),%rax
ffffffff80000ed4:	48 89 44 24 18       	mov    %rax,0x18(%rsp)
ffffffff80000ed9:	48 8b 41 10          	mov    0x10(%rcx),%rax
ffffffff80000edd:	48 89 44 24 10       	mov    %rax,0x10(%rsp)
ffffffff80000ee2:	48 8b 01             	mov    (%rcx),%rax
ffffffff80000ee5:	48 8b 49 08          	mov    0x8(%rcx),%rcx
ffffffff80000ee9:	48 89 4c 24 08       	mov    %rcx,0x8(%rsp)
ffffffff80000eee:	48 89 04 24          	mov    %rax,(%rsp)
ffffffff80000ef2:	8a 44 24 24          	mov    0x24(%rsp),%al
ffffffff80000ef6:	48 83 c4 48          	add    $0x48,%rsp
ffffffff80000efa:	c3                   	ret
ffffffff80000efb:	cc                   	int3
ffffffff80000efc:	cc                   	int3
ffffffff80000efd:	cc                   	int3
ffffffff80000efe:	cc                   	int3
ffffffff80000eff:	cc                   	int3

ffffffff80000f00 <_RNvMs_NtCsebKla8rmeo1_6limine11framebufferNtB4_11Framebuffer15blue_mask_shift>:
ffffffff80000f00:	48 83 ec 48          	sub    $0x48,%rsp
ffffffff80000f04:	48 89 7c 24 40       	mov    %rdi,0x40(%rsp)
ffffffff80000f09:	48 8b 0f             	mov    (%rdi),%rcx
ffffffff80000f0c:	48 8b 41 38          	mov    0x38(%rcx),%rax
ffffffff80000f10:	48 89 44 24 38       	mov    %rax,0x38(%rsp)
ffffffff80000f15:	48 8b 41 30          	mov    0x30(%rcx),%rax
ffffffff80000f19:	48 89 44 24 30       	mov    %rax,0x30(%rsp)
ffffffff80000f1e:	48 8b 41 28          	mov    0x28(%rcx),%rax
ffffffff80000f22:	48 89 44 24 28       	mov    %rax,0x28(%rsp)
ffffffff80000f27:	48 8b 41 20          	mov    0x20(%rcx),%rax
ffffffff80000f2b:	48 89 44 24 20       	mov    %rax,0x20(%rsp)
ffffffff80000f30:	48 8b 41 18          	mov    0x18(%rcx),%rax
ffffffff80000f34:	48 89 44 24 18       	mov    %rax,0x18(%rsp)
ffffffff80000f39:	48 8b 41 10          	mov    0x10(%rcx),%rax
ffffffff80000f3d:	48 89 44 24 10       	mov    %rax,0x10(%rsp)
ffffffff80000f42:	48 8b 01             	mov    (%rcx),%rax
ffffffff80000f45:	48 8b 49 08          	mov    0x8(%rcx),%rcx
ffffffff80000f49:	48 89 4c 24 08       	mov    %rcx,0x8(%rsp)
ffffffff80000f4e:	48 89 04 24          	mov    %rax,(%rsp)
ffffffff80000f52:	8a 44 24 28          	mov    0x28(%rsp),%al
ffffffff80000f56:	48 83 c4 48          	add    $0x48,%rsp
ffffffff80000f5a:	c3                   	ret
ffffffff80000f5b:	cc                   	int3
ffffffff80000f5c:	cc                   	int3
ffffffff80000f5d:	cc                   	int3
ffffffff80000f5e:	cc                   	int3
ffffffff80000f5f:	cc                   	int3

ffffffff80000f60 <_RNvMs_NtCsebKla8rmeo1_6limine11framebufferNtB4_11Framebuffer15green_mask_size>:
ffffffff80000f60:	48 83 ec 48          	sub    $0x48,%rsp
ffffffff80000f64:	48 89 7c 24 40       	mov    %rdi,0x40(%rsp)
ffffffff80000f69:	48 8b 0f             	mov    (%rdi),%rcx
ffffffff80000f6c:	48 8b 41 38          	mov    0x38(%rcx),%rax
ffffffff80000f70:	48 89 44 24 38       	mov    %rax,0x38(%rsp)
ffffffff80000f75:	48 8b 41 30          	mov    0x30(%rcx),%rax
ffffffff80000f79:	48 89 44 24 30       	mov    %rax,0x30(%rsp)
ffffffff80000f7e:	48 8b 41 28          	mov    0x28(%rcx),%rax
ffffffff80000f82:	48 89 44 24 28       	mov    %rax,0x28(%rsp)
ffffffff80000f87:	48 8b 41 20          	mov    0x20(%rcx),%rax
ffffffff80000f8b:	48 89 44 24 20       	mov    %rax,0x20(%rsp)
ffffffff80000f90:	48 8b 41 18          	mov    0x18(%rcx),%rax
ffffffff80000f94:	48 89 44 24 18       	mov    %rax,0x18(%rsp)
ffffffff80000f99:	48 8b 41 10          	mov    0x10(%rcx),%rax
ffffffff80000f9d:	48 89 44 24 10       	mov    %rax,0x10(%rsp)
ffffffff80000fa2:	48 8b 01             	mov    (%rcx),%rax
ffffffff80000fa5:	48 8b 49 08          	mov    0x8(%rcx),%rcx
ffffffff80000fa9:	48 89 4c 24 08       	mov    %rcx,0x8(%rsp)
ffffffff80000fae:	48 89 04 24          	mov    %rax,(%rsp)
ffffffff80000fb2:	8a 44 24 25          	mov    0x25(%rsp),%al
ffffffff80000fb6:	48 83 c4 48          	add    $0x48,%rsp
ffffffff80000fba:	c3                   	ret
ffffffff80000fbb:	cc                   	int3
ffffffff80000fbc:	cc                   	int3
ffffffff80000fbd:	cc                   	int3
ffffffff80000fbe:	cc                   	int3
ffffffff80000fbf:	cc                   	int3

ffffffff80000fc0 <_RNvMs_NtCsebKla8rmeo1_6limine11framebufferNtB4_11Framebuffer16green_mask_shift>:
ffffffff80000fc0:	48 83 ec 48          	sub    $0x48,%rsp
ffffffff80000fc4:	48 89 7c 24 40       	mov    %rdi,0x40(%rsp)
ffffffff80000fc9:	48 8b 0f             	mov    (%rdi),%rcx
ffffffff80000fcc:	48 8b 41 38          	mov    0x38(%rcx),%rax
ffffffff80000fd0:	48 89 44 24 38       	mov    %rax,0x38(%rsp)
ffffffff80000fd5:	48 8b 41 30          	mov    0x30(%rcx),%rax
ffffffff80000fd9:	48 89 44 24 30       	mov    %rax,0x30(%rsp)
ffffffff80000fde:	48 8b 41 28          	mov    0x28(%rcx),%rax
ffffffff80000fe2:	48 89 44 24 28       	mov    %rax,0x28(%rsp)
ffffffff80000fe7:	48 8b 41 20          	mov    0x20(%rcx),%rax
ffffffff80000feb:	48 89 44 24 20       	mov    %rax,0x20(%rsp)
ffffffff80000ff0:	48 8b 41 18          	mov    0x18(%rcx),%rax
ffffffff80000ff4:	48 89 44 24 18       	mov    %rax,0x18(%rsp)
ffffffff80000ff9:	48 8b 41 10          	mov    0x10(%rcx),%rax
ffffffff80000ffd:	48 89 44 24 10       	mov    %rax,0x10(%rsp)
ffffffff80001002:	48 8b 01             	mov    (%rcx),%rax
ffffffff80001005:	48 8b 49 08          	mov    0x8(%rcx),%rcx
ffffffff80001009:	48 89 4c 24 08       	mov    %rcx,0x8(%rsp)
ffffffff8000100e:	48 89 04 24          	mov    %rax,(%rsp)
ffffffff80001012:	8a 44 24 26          	mov    0x26(%rsp),%al
ffffffff80001016:	48 83 c4 48          	add    $0x48,%rsp
ffffffff8000101a:	c3                   	ret
ffffffff8000101b:	cc                   	int3
ffffffff8000101c:	cc                   	int3
ffffffff8000101d:	cc                   	int3
ffffffff8000101e:	cc                   	int3
ffffffff8000101f:	cc                   	int3

ffffffff80001020 <_RNvMs_NtCsebKla8rmeo1_6limine11framebufferNtB4_11Framebuffer3new>:
ffffffff80001020:	48 83 ec 10          	sub    $0x10,%rsp
ffffffff80001024:	48 89 f0             	mov    %rsi,%rax
ffffffff80001027:	48 89 fa             	mov    %rdi,%rdx
ffffffff8000102a:	48 89 14 24          	mov    %rdx,(%rsp)
ffffffff8000102e:	48 89 44 24 08       	mov    %rax,0x8(%rsp)
ffffffff80001033:	48 83 c4 10          	add    $0x10,%rsp
ffffffff80001037:	c3                   	ret
ffffffff80001038:	cc                   	int3
ffffffff80001039:	cc                   	int3
ffffffff8000103a:	cc                   	int3
ffffffff8000103b:	cc                   	int3
ffffffff8000103c:	cc                   	int3
ffffffff8000103d:	cc                   	int3
ffffffff8000103e:	cc                   	int3
ffffffff8000103f:	cc                   	int3

ffffffff80001040 <_RNvMs_NtCsebKla8rmeo1_6limine11framebufferNtB4_11Framebuffer4addr>:
ffffffff80001040:	48 83 ec 50          	sub    $0x50,%rsp
ffffffff80001044:	48 89 7c 24 40       	mov    %rdi,0x40(%rsp)
ffffffff80001049:	48 8b 0f             	mov    (%rdi),%rcx
ffffffff8000104c:	48 8b 41 38          	mov    0x38(%rcx),%rax
ffffffff80001050:	48 89 44 24 38       	mov    %rax,0x38(%rsp)
ffffffff80001055:	48 8b 41 30          	mov    0x30(%rcx),%rax
ffffffff80001059:	48 89 44 24 30       	mov    %rax,0x30(%rsp)
ffffffff8000105e:	48 8b 41 28          	mov    0x28(%rcx),%rax
ffffffff80001062:	48 89 44 24 28       	mov    %rax,0x28(%rsp)
ffffffff80001067:	48 8b 41 20          	mov    0x20(%rcx),%rax
ffffffff8000106b:	48 89 44 24 20       	mov    %rax,0x20(%rsp)
ffffffff80001070:	48 8b 41 18          	mov    0x18(%rcx),%rax
ffffffff80001074:	48 89 44 24 18       	mov    %rax,0x18(%rsp)
ffffffff80001079:	48 8b 41 10          	mov    0x10(%rcx),%rax
ffffffff8000107d:	48 89 44 24 10       	mov    %rax,0x10(%rsp)
ffffffff80001082:	48 8b 01             	mov    (%rcx),%rax
ffffffff80001085:	48 8b 49 08          	mov    0x8(%rcx),%rcx
ffffffff80001089:	48 89 4c 24 08       	mov    %rcx,0x8(%rsp)
ffffffff8000108e:	48 89 04 24          	mov    %rax,(%rsp)
ffffffff80001092:	48 8b 04 24          	mov    (%rsp),%rax
ffffffff80001096:	48 89 44 24 48       	mov    %rax,0x48(%rsp)
ffffffff8000109b:	48 83 c4 50          	add    $0x50,%rsp
ffffffff8000109f:	c3                   	ret

ffffffff800010a0 <_RNvMs_NtCsebKla8rmeo1_6limine11framebufferNtB4_11Framebuffer5pitch>:
ffffffff800010a0:	48 83 ec 48          	sub    $0x48,%rsp
ffffffff800010a4:	48 89 7c 24 40       	mov    %rdi,0x40(%rsp)
ffffffff800010a9:	48 8b 0f             	mov    (%rdi),%rcx
ffffffff800010ac:	48 8b 41 38          	mov    0x38(%rcx),%rax
ffffffff800010b0:	48 89 44 24 38       	mov    %rax,0x38(%rsp)
ffffffff800010b5:	48 8b 41 30          	mov    0x30(%rcx),%rax
ffffffff800010b9:	48 89 44 24 30       	mov    %rax,0x30(%rsp)
ffffffff800010be:	48 8b 41 28          	mov    0x28(%rcx),%rax
ffffffff800010c2:	48 89 44 24 28       	mov    %rax,0x28(%rsp)
ffffffff800010c7:	48 8b 41 20          	mov    0x20(%rcx),%rax
ffffffff800010cb:	48 89 44 24 20       	mov    %rax,0x20(%rsp)
ffffffff800010d0:	48 8b 41 18          	mov    0x18(%rcx),%rax
ffffffff800010d4:	48 89 44 24 18       	mov    %rax,0x18(%rsp)
ffffffff800010d9:	48 8b 41 10          	mov    0x10(%rcx),%rax
ffffffff800010dd:	48 89 44 24 10       	mov    %rax,0x10(%rsp)
ffffffff800010e2:	48 8b 01             	mov    (%rcx),%rax
ffffffff800010e5:	48 8b 49 08          	mov    0x8(%rcx),%rcx
ffffffff800010e9:	48 89 4c 24 08       	mov    %rcx,0x8(%rsp)
ffffffff800010ee:	48 89 04 24          	mov    %rax,(%rsp)
ffffffff800010f2:	48 8b 44 24 18       	mov    0x18(%rsp),%rax
ffffffff800010f7:	48 83 c4 48          	add    $0x48,%rsp
ffffffff800010fb:	c3                   	ret
ffffffff800010fc:	cc                   	int3
ffffffff800010fd:	cc                   	int3
ffffffff800010fe:	cc                   	int3
ffffffff800010ff:	cc                   	int3

ffffffff80001100 <_RNvMs_NtCsebKla8rmeo1_6limine11framebufferNtB4_11Framebuffer5width>:
ffffffff80001100:	48 83 ec 48          	sub    $0x48,%rsp
ffffffff80001104:	48 89 7c 24 40       	mov    %rdi,0x40(%rsp)
ffffffff80001109:	48 8b 0f             	mov    (%rdi),%rcx
ffffffff8000110c:	48 8b 41 38          	mov    0x38(%rcx),%rax
ffffffff80001110:	48 89 44 24 38       	mov    %rax,0x38(%rsp)
ffffffff80001115:	48 8b 41 30          	mov    0x30(%rcx),%rax
ffffffff80001119:	48 89 44 24 30       	mov    %rax,0x30(%rsp)
ffffffff8000111e:	48 8b 41 28          	mov    0x28(%rcx),%rax
ffffffff80001122:	48 89 44 24 28       	mov    %rax,0x28(%rsp)
ffffffff80001127:	48 8b 41 20          	mov    0x20(%rcx),%rax
ffffffff8000112b:	48 89 44 24 20       	mov    %rax,0x20(%rsp)
ffffffff80001130:	48 8b 41 18          	mov    0x18(%rcx),%rax
ffffffff80001134:	48 89 44 24 18       	mov    %rax,0x18(%rsp)
ffffffff80001139:	48 8b 41 10          	mov    0x10(%rcx),%rax
ffffffff8000113d:	48 89 44 24 10       	mov    %rax,0x10(%rsp)
ffffffff80001142:	48 8b 01             	mov    (%rcx),%rax
ffffffff80001145:	48 8b 49 08          	mov    0x8(%rcx),%rcx
ffffffff80001149:	48 89 4c 24 08       	mov    %rcx,0x8(%rsp)
ffffffff8000114e:	48 89 04 24          	mov    %rax,(%rsp)
ffffffff80001152:	48 8b 44 24 08       	mov    0x8(%rsp),%rax
ffffffff80001157:	48 83 c4 48          	add    $0x48,%rsp
ffffffff8000115b:	c3                   	ret
ffffffff8000115c:	cc                   	int3
ffffffff8000115d:	cc                   	int3
ffffffff8000115e:	cc                   	int3
ffffffff8000115f:	cc                   	int3

ffffffff80001160 <_RNvMs_NtCsebKla8rmeo1_6limine11framebufferNtB4_11Framebuffer6height>:
ffffffff80001160:	48 83 ec 48          	sub    $0x48,%rsp
ffffffff80001164:	48 89 7c 24 40       	mov    %rdi,0x40(%rsp)
ffffffff80001169:	48 8b 0f             	mov    (%rdi),%rcx
ffffffff8000116c:	48 8b 41 38          	mov    0x38(%rcx),%rax
ffffffff80001170:	48 89 44 24 38       	mov    %rax,0x38(%rsp)
ffffffff80001175:	48 8b 41 30          	mov    0x30(%rcx),%rax
ffffffff80001179:	48 89 44 24 30       	mov    %rax,0x30(%rsp)
ffffffff8000117e:	48 8b 41 28          	mov    0x28(%rcx),%rax
ffffffff80001182:	48 89 44 24 28       	mov    %rax,0x28(%rsp)
ffffffff80001187:	48 8b 41 20          	mov    0x20(%rcx),%rax
ffffffff8000118b:	48 89 44 24 20       	mov    %rax,0x20(%rsp)
ffffffff80001190:	48 8b 41 18          	mov    0x18(%rcx),%rax
ffffffff80001194:	48 89 44 24 18       	mov    %rax,0x18(%rsp)
ffffffff80001199:	48 8b 41 10          	mov    0x10(%rcx),%rax
ffffffff8000119d:	48 89 44 24 10       	mov    %rax,0x10(%rsp)
ffffffff800011a2:	48 8b 01             	mov    (%rcx),%rax
ffffffff800011a5:	48 8b 49 08          	mov    0x8(%rcx),%rcx
ffffffff800011a9:	48 89 4c 24 08       	mov    %rcx,0x8(%rsp)
ffffffff800011ae:	48 89 04 24          	mov    %rax,(%rsp)
ffffffff800011b2:	48 8b 44 24 10       	mov    0x10(%rsp),%rax
ffffffff800011b7:	48 83 c4 48          	add    $0x48,%rsp
ffffffff800011bb:	c3                   	ret
ffffffff800011bc:	cc                   	int3
ffffffff800011bd:	cc                   	int3
ffffffff800011be:	cc                   	int3
ffffffff800011bf:	cc                   	int3

ffffffff800011c0 <_RNvXsJ_NtCsksYxuqllC4c_4core6optionINtB5_6OptionINtNtNtB7_3ptr8non_null7NonNullNtNtCsebKla8rmeo1_6limine8response19FramebufferResponseEENtNtNtB7_3ops9try_trait3Try6branchB1j_>:
ffffffff800011c0:	48 83 ec 18          	sub    $0x18,%rsp
ffffffff800011c4:	48 89 3c 24          	mov    %rdi,(%rsp)
ffffffff800011c8:	48 8b 14 24          	mov    (%rsp),%rdx
ffffffff800011cc:	b8 01 00 00 00       	mov    $0x1,%eax
ffffffff800011d1:	31 c9                	xor    %ecx,%ecx
ffffffff800011d3:	48 83 fa 00          	cmp    $0x0,%rdx
ffffffff800011d7:	48 0f 44 c1          	cmove  %rcx,%rax
ffffffff800011db:	48 a9 01 00 00 00    	test   $0x1,%rax
ffffffff800011e1:	74 10                	je     ffffffff800011f3 <_RNvXsJ_NtCsksYxuqllC4c_4core6optionINtB5_6OptionINtNtNtB7_3ptr8non_null7NonNullNtNtCsebKla8rmeo1_6limine8response19FramebufferResponseEENtNtNtB7_3ops9try_trait3Try6branchB1j_+0x33>
ffffffff800011e3:	48 8b 04 24          	mov    (%rsp),%rax
ffffffff800011e7:	48 89 44 24 10       	mov    %rax,0x10(%rsp)
ffffffff800011ec:	48 89 44 24 08       	mov    %rax,0x8(%rsp)
ffffffff800011f1:	eb 09                	jmp    ffffffff800011fc <_RNvXsJ_NtCsksYxuqllC4c_4core6optionINtB5_6OptionINtNtNtB7_3ptr8non_null7NonNullNtNtCsebKla8rmeo1_6limine8response19FramebufferResponseEENtNtNtB7_3ops9try_trait3Try6branchB1j_+0x3c>
ffffffff800011f3:	48 c7 44 24 08 00 00 	movq   $0x0,0x8(%rsp)
ffffffff800011fa:	00 00 
ffffffff800011fc:	48 8b 44 24 08       	mov    0x8(%rsp),%rax
ffffffff80001201:	48 83 c4 18          	add    $0x18,%rsp
ffffffff80001205:	c3                   	ret
ffffffff80001206:	cc                   	int3
ffffffff80001207:	cc                   	int3
ffffffff80001208:	cc                   	int3
ffffffff80001209:	cc                   	int3
ffffffff8000120a:	cc                   	int3
ffffffff8000120b:	cc                   	int3
ffffffff8000120c:	cc                   	int3
ffffffff8000120d:	cc                   	int3
ffffffff8000120e:	cc                   	int3
ffffffff8000120f:	cc                   	int3

ffffffff80001210 <_RNvXsK_NtCsksYxuqllC4c_4core6optionINtB5_6OptionRNtNtCsebKla8rmeo1_6limine8response19FramebufferResponseEINtNtNtB7_3ops9try_trait12FromResidualIBy_NtNtB7_7convert10InfallibleEE13from_residualBP_>:
ffffffff80001210:	48 83 ec 01          	sub    $0x1,%rsp
ffffffff80001214:	31 c0                	xor    %eax,%eax
ffffffff80001216:	48 83 c4 01          	add    $0x1,%rsp
ffffffff8000121a:	c3                   	ret
ffffffff8000121b:	cc                   	int3
ffffffff8000121c:	cc                   	int3
ffffffff8000121d:	cc                   	int3
ffffffff8000121e:	cc                   	int3
ffffffff8000121f:	cc                   	int3

ffffffff80001220 <_RINvNtCsksYxuqllC4c_4core3ptr13read_volatileINtNtB4_6option6OptionINtNtB2_8non_null7NonNullNtNtCsebKla8rmeo1_6limine8response19FramebufferResponseEEEB1v_>:
ffffffff80001220:	48 83 ec 28          	sub    $0x28,%rsp
ffffffff80001224:	48 89 74 24 08       	mov    %rsi,0x8(%rsp)
ffffffff80001229:	48 89 7c 24 10       	mov    %rdi,0x10(%rsp)
ffffffff8000122e:	48 89 7c 24 18       	mov    %rdi,0x18(%rsp)
ffffffff80001233:	48 8b 54 24 08       	mov    0x8(%rsp),%rdx
ffffffff80001238:	48 8b 7c 24 10       	mov    0x10(%rsp),%rdi
ffffffff8000123d:	be 08 00 00 00       	mov    $0x8,%esi
ffffffff80001242:	e8 d9 01 00 00       	call   ffffffff80001420 <_RNvNvNtCsksYxuqllC4c_4core3ptr13read_volatile18precondition_checkCsebKla8rmeo1_6limine>
ffffffff80001247:	48 8b 44 24 10       	mov    0x10(%rsp),%rax
ffffffff8000124c:	48 8b 00             	mov    (%rax),%rax
ffffffff8000124f:	48 89 44 24 20       	mov    %rax,0x20(%rsp)
ffffffff80001254:	48 8b 44 24 20       	mov    0x20(%rsp),%rax
ffffffff80001259:	48 83 c4 28          	add    $0x28,%rsp
ffffffff8000125d:	c3                   	ret
ffffffff8000125e:	cc                   	int3
ffffffff8000125f:	cc                   	int3

ffffffff80001260 <_RINvNtNtCsksYxuqllC4c_4core5slice3raw14from_raw_partsPNtNtCsebKla8rmeo1_6limine11framebuffer14RawFramebufferEBU_>:
ffffffff80001260:	48 83 ec 28          	sub    $0x28,%rsp
ffffffff80001264:	48 89 14 24          	mov    %rdx,(%rsp)
ffffffff80001268:	48 89 74 24 08       	mov    %rsi,0x8(%rsp)
ffffffff8000126d:	48 89 7c 24 10       	mov    %rdi,0x10(%rsp)
ffffffff80001272:	48 89 7c 24 18       	mov    %rdi,0x18(%rsp)
ffffffff80001277:	48 89 74 24 20       	mov    %rsi,0x20(%rsp)
ffffffff8000127c:	4c 8b 04 24          	mov    (%rsp),%r8
ffffffff80001280:	48 8b 4c 24 08       	mov    0x8(%rsp),%rcx
ffffffff80001285:	48 8b 7c 24 10       	mov    0x10(%rsp),%rdi
ffffffff8000128a:	ba 08 00 00 00       	mov    $0x8,%edx
ffffffff8000128f:	48 89 d6             	mov    %rdx,%rsi
ffffffff80001292:	e8 d9 01 00 00       	call   ffffffff80001470 <_RNvNvNtNtCsksYxuqllC4c_4core5slice3raw14from_raw_parts18precondition_checkCsebKla8rmeo1_6limine>
ffffffff80001297:	48 8b 54 24 08       	mov    0x8(%rsp),%rdx
ffffffff8000129c:	48 8b 44 24 10       	mov    0x10(%rsp),%rax
ffffffff800012a1:	48 83 c4 28          	add    $0x28,%rsp
ffffffff800012a5:	c3                   	ret
ffffffff800012a6:	cc                   	int3
ffffffff800012a7:	cc                   	int3
ffffffff800012a8:	cc                   	int3
ffffffff800012a9:	cc                   	int3
ffffffff800012aa:	cc                   	int3
ffffffff800012ab:	cc                   	int3
ffffffff800012ac:	cc                   	int3
ffffffff800012ad:	cc                   	int3
ffffffff800012ae:	cc                   	int3
ffffffff800012af:	cc                   	int3

ffffffff800012b0 <_RINvYINtNtNtCsksYxuqllC4c_4core5slice4iter4IterPNtNtCsebKla8rmeo1_6limine11framebuffer14RawFramebufferENtNtNtNtBa_4iter6traits8iterator8Iterator3mapNtBM_11FramebufferNCNvMs6_NtBO_8responseNtB2M_19FramebufferResponse12framebuffers0EBO_>:
ffffffff800012b0:	48 83 ec 18          	sub    $0x18,%rsp
ffffffff800012b4:	48 89 f8             	mov    %rdi,%rax
ffffffff800012b7:	48 89 34 24          	mov    %rsi,(%rsp)
ffffffff800012bb:	48 89 54 24 08       	mov    %rdx,0x8(%rsp)
ffffffff800012c0:	48 89 4c 24 10       	mov    %rcx,0x10(%rsp)
ffffffff800012c5:	48 89 37             	mov    %rsi,(%rdi)
ffffffff800012c8:	48 89 57 08          	mov    %rdx,0x8(%rdi)
ffffffff800012cc:	48 89 4f 10          	mov    %rcx,0x10(%rdi)
ffffffff800012d0:	48 83 c4 18          	add    $0x18,%rsp
ffffffff800012d4:	c3                   	ret
ffffffff800012d5:	cc                   	int3
ffffffff800012d6:	cc                   	int3
ffffffff800012d7:	cc                   	int3
ffffffff800012d8:	cc                   	int3
ffffffff800012d9:	cc                   	int3
ffffffff800012da:	cc                   	int3
ffffffff800012db:	cc                   	int3
ffffffff800012dc:	cc                   	int3
ffffffff800012dd:	cc                   	int3
ffffffff800012de:	cc                   	int3
ffffffff800012df:	cc                   	int3

ffffffff800012e0 <_RNvMCsebKla8rmeo1_6limineNtB2_12BaseRevision12is_supported>:
ffffffff800012e0:	48 83 ec 38          	sub    $0x38,%rsp
ffffffff800012e4:	48 89 7c 24 08       	mov    %rdi,0x8(%rsp)
ffffffff800012e9:	48 89 7c 24 10       	mov    %rdi,0x10(%rsp)
ffffffff800012ee:	48 83 c7 10          	add    $0x10,%rdi
ffffffff800012f2:	48 89 7c 24 30       	mov    %rdi,0x30(%rsp)
ffffffff800012f7:	48 89 7c 24 18       	mov    %rdi,0x18(%rsp)
ffffffff800012fc:	48 89 7c 24 20       	mov    %rdi,0x20(%rsp)
ffffffff80001301:	48 c7 c2 70 c7 00 80 	mov    $0xffffffff8000c770,%rdx
ffffffff80001308:	be 08 00 00 00       	mov    $0x8,%esi
ffffffff8000130d:	e8 0e 01 00 00       	call   ffffffff80001420 <_RNvNvNtCsksYxuqllC4c_4core3ptr13read_volatile18precondition_checkCsebKla8rmeo1_6limine>
ffffffff80001312:	48 8b 7c 24 08       	mov    0x8(%rsp),%rdi
ffffffff80001317:	48 8b 47 10          	mov    0x10(%rdi),%rax
ffffffff8000131b:	48 89 44 24 28       	mov    %rax,0x28(%rsp)
ffffffff80001320:	48 83 7c 24 28 00    	cmpq   $0x0,0x28(%rsp)
ffffffff80001326:	0f 94 c0             	sete   %al
ffffffff80001329:	24 01                	and    $0x1,%al
ffffffff8000132b:	48 83 c4 38          	add    $0x38,%rsp
ffffffff8000132f:	c3                   	ret

ffffffff80001330 <_RNvMs2_NtCsebKla8rmeo1_6limine7requestINtB5_8ResponseNtNtB7_8response19FramebufferResponseE3getB7_>:
ffffffff80001330:	48 83 ec 48          	sub    $0x48,%rsp
ffffffff80001334:	48 89 7c 24 20       	mov    %rdi,0x20(%rsp)
ffffffff80001339:	48 89 7c 24 40       	mov    %rdi,0x40(%rsp)
ffffffff8000133e:	48 c7 c6 88 c7 00 80 	mov    $0xffffffff8000c788,%rsi
ffffffff80001345:	e8 d6 fe ff ff       	call   ffffffff80001220 <_RINvNtCsksYxuqllC4c_4core3ptr13read_volatileINtNtB4_6option6OptionINtNtB2_8non_null7NonNullNtNtCsebKla8rmeo1_6limine8response19FramebufferResponseEEEB1v_>
ffffffff8000134a:	48 89 c7             	mov    %rax,%rdi
ffffffff8000134d:	e8 6e fe ff ff       	call   ffffffff800011c0 <_RNvXsJ_NtCsksYxuqllC4c_4core6optionINtB5_6OptionINtNtNtB7_3ptr8non_null7NonNullNtNtCsebKla8rmeo1_6limine8response19FramebufferResponseEENtNtNtB7_3ops9try_trait3Try6branchB1j_>
ffffffff80001352:	48 89 44 24 18       	mov    %rax,0x18(%rsp)
ffffffff80001357:	48 8b 54 24 18       	mov    0x18(%rsp),%rdx
ffffffff8000135c:	31 c0                	xor    %eax,%eax
ffffffff8000135e:	b9 01 00 00 00       	mov    $0x1,%ecx
ffffffff80001363:	48 83 fa 00          	cmp    $0x0,%rdx
ffffffff80001367:	48 0f 44 c1          	cmove  %rcx,%rax
ffffffff8000136b:	48 a9 01 00 00 00    	test   $0x1,%rax
ffffffff80001371:	74 0c                	je     ffffffff8000137f <_RNvMs2_NtCsebKla8rmeo1_6limine7requestINtB5_8ResponseNtNtB7_8response19FramebufferResponseE3getB7_+0x4f>
ffffffff80001373:	e8 98 fe ff ff       	call   ffffffff80001210 <_RNvXsK_NtCsksYxuqllC4c_4core6optionINtB5_6OptionRNtNtCsebKla8rmeo1_6limine8response19FramebufferResponseEINtNtNtB7_3ops9try_trait12FromResidualIBy_NtNtB7_7convert10InfallibleEE13from_residualBP_>
ffffffff80001378:	48 89 44 24 08       	mov    %rax,0x8(%rsp)
ffffffff8000137d:	eb 23                	jmp    ffffffff800013a2 <_RNvMs2_NtCsebKla8rmeo1_6limine7requestINtB5_8ResponseNtNtB7_8response19FramebufferResponseE3getB7_+0x72>
ffffffff8000137f:	48 8b 44 24 18       	mov    0x18(%rsp),%rax
ffffffff80001384:	48 89 44 24 30       	mov    %rax,0x30(%rsp)
ffffffff80001389:	48 89 44 24 10       	mov    %rax,0x10(%rsp)
ffffffff8000138e:	48 8d 44 24 10       	lea    0x10(%rsp),%rax
ffffffff80001393:	48 89 44 24 38       	mov    %rax,0x38(%rsp)
ffffffff80001398:	48 8b 44 24 10       	mov    0x10(%rsp),%rax
ffffffff8000139d:	48 89 44 24 08       	mov    %rax,0x8(%rsp)
ffffffff800013a2:	48 8b 44 24 08       	mov    0x8(%rsp),%rax
ffffffff800013a7:	48 83 c4 48          	add    $0x48,%rsp
ffffffff800013ab:	c3                   	ret
ffffffff800013ac:	cc                   	int3
ffffffff800013ad:	cc                   	int3
ffffffff800013ae:	cc                   	int3
ffffffff800013af:	cc                   	int3

ffffffff800013b0 <_RNvMs4_NtNtCsksYxuqllC4c_4core5slice4iterINtB5_4IterPNtNtCsebKla8rmeo1_6limine11framebuffer14RawFramebufferE3newBT_>:
ffffffff800013b0:	48 83 ec 50          	sub    $0x50,%rsp
ffffffff800013b4:	48 89 34 24          	mov    %rsi,(%rsp)
ffffffff800013b8:	48 89 7c 24 08       	mov    %rdi,0x8(%rsp)
ffffffff800013bd:	48 89 7c 24 18       	mov    %rdi,0x18(%rsp)
ffffffff800013c2:	48 89 74 24 20       	mov    %rsi,0x20(%rsp)
ffffffff800013c7:	48 89 74 24 28       	mov    %rsi,0x28(%rsp)
ffffffff800013cc:	48 89 7c 24 30       	mov    %rdi,0x30(%rsp)
ffffffff800013d1:	48 89 74 24 38       	mov    %rsi,0x38(%rsp)
ffffffff800013d6:	48 89 7c 24 40       	mov    %rdi,0x40(%rsp)
ffffffff800013db:	48 8b 44 24 08       	mov    0x8(%rsp),%rax
ffffffff800013e0:	48 8b 0c 24          	mov    (%rsp),%rcx
ffffffff800013e4:	48 89 44 24 48       	mov    %rax,0x48(%rsp)
ffffffff800013e9:	48 c1 e1 03          	shl    $0x3,%rcx
ffffffff800013ed:	48 01 c8             	add    %rcx,%rax
ffffffff800013f0:	48 89 44 24 10       	mov    %rax,0x10(%rsp)
ffffffff800013f5:	48 8b 44 24 08       	mov    0x8(%rsp),%rax
ffffffff800013fa:	48 8b 54 24 10       	mov    0x10(%rsp),%rdx
ffffffff800013ff:	48 83 c4 50          	add    $0x50,%rsp
ffffffff80001403:	c3                   	ret
ffffffff80001404:	cc                   	int3
ffffffff80001405:	cc                   	int3
ffffffff80001406:	cc                   	int3
ffffffff80001407:	cc                   	int3
ffffffff80001408:	cc                   	int3
ffffffff80001409:	cc                   	int3
ffffffff8000140a:	cc                   	int3
ffffffff8000140b:	cc                   	int3
ffffffff8000140c:	cc                   	int3
ffffffff8000140d:	cc                   	int3
ffffffff8000140e:	cc                   	int3
ffffffff8000140f:	cc                   	int3

ffffffff80001410 <_RNvMs8_NtCsebKla8rmeo1_6limine7requestNtB5_18FramebufferRequest12get_response>:
ffffffff80001410:	50                   	push   %rax
ffffffff80001411:	48 89 3c 24          	mov    %rdi,(%rsp)
ffffffff80001415:	48 83 c7 28          	add    $0x28,%rdi
ffffffff80001419:	e8 12 ff ff ff       	call   ffffffff80001330 <_RNvMs2_NtCsebKla8rmeo1_6limine7requestINtB5_8ResponseNtNtB7_8response19FramebufferResponseE3getB7_>
ffffffff8000141e:	59                   	pop    %rcx
ffffffff8000141f:	c3                   	ret

ffffffff80001420 <_RNvNvNtCsksYxuqllC4c_4core3ptr13read_volatile18precondition_checkCsebKla8rmeo1_6limine>:
ffffffff80001420:	48 83 ec 28          	sub    $0x28,%rsp
ffffffff80001424:	48 89 14 24          	mov    %rdx,(%rsp)
ffffffff80001428:	48 89 7c 24 08       	mov    %rdi,0x8(%rsp)
ffffffff8000142d:	48 89 74 24 10       	mov    %rsi,0x10(%rsp)
ffffffff80001432:	e8 39 01 00 00       	call   ffffffff80001570 <_RNvMNtNtCsksYxuqllC4c_4core3ptr9const_ptrPu13is_aligned_toCskbfvScpCv59_8bitflags>
ffffffff80001437:	a8 01                	test   $0x1,%al
ffffffff80001439:	75 29                	jne    ffffffff80001464 <_RNvNvNtCsksYxuqllC4c_4core3ptr13read_volatile18precondition_checkCsebKla8rmeo1_6limine+0x44>
ffffffff8000143b:	48 8b 0c 24          	mov    (%rsp),%rcx
ffffffff8000143f:	48 c7 44 24 18 a0 c7 	movq   $0xffffffff8000c7a0,0x18(%rsp)
ffffffff80001446:	00 80 
ffffffff80001448:	48 c7 44 24 20 d6 00 	movq   $0xd6,0x20(%rsp)
ffffffff8000144f:	00 00 
ffffffff80001451:	48 c7 c7 a0 c7 00 80 	mov    $0xffffffff8000c7a0,%rdi
ffffffff80001458:	be ad 01 00 00       	mov    $0x1ad,%esi
ffffffff8000145d:	31 d2                	xor    %edx,%edx
ffffffff8000145f:	e8 1c 99 00 00       	call   ffffffff8000ad80 <_RNvNtCsksYxuqllC4c_4core9panicking18panic_nounwind_fmt>
ffffffff80001464:	48 83 c4 28          	add    $0x28,%rsp
ffffffff80001468:	c3                   	ret
ffffffff80001469:	cc                   	int3
ffffffff8000146a:	cc                   	int3
ffffffff8000146b:	cc                   	int3
ffffffff8000146c:	cc                   	int3
ffffffff8000146d:	cc                   	int3
ffffffff8000146e:	cc                   	int3
ffffffff8000146f:	cc                   	int3

ffffffff80001470 <_RNvNvNtNtCsksYxuqllC4c_4core5slice3raw14from_raw_parts18precondition_checkCsebKla8rmeo1_6limine>:
ffffffff80001470:	48 83 ec 78          	sub    $0x78,%rsp
ffffffff80001474:	4c 89 44 24 08       	mov    %r8,0x8(%rsp)
ffffffff80001479:	48 89 4c 24 10       	mov    %rcx,0x10(%rsp)
ffffffff8000147e:	48 89 54 24 18       	mov    %rdx,0x18(%rsp)
ffffffff80001483:	48 89 f0             	mov    %rsi,%rax
ffffffff80001486:	48 8b 74 24 18       	mov    0x18(%rsp),%rsi
ffffffff8000148b:	48 89 44 24 20       	mov    %rax,0x20(%rsp)
ffffffff80001490:	48 89 7c 24 28       	mov    %rdi,0x28(%rsp)
ffffffff80001495:	48 89 7c 24 38       	mov    %rdi,0x38(%rsp)
ffffffff8000149a:	48 89 44 24 40       	mov    %rax,0x40(%rsp)
ffffffff8000149f:	48 89 74 24 48       	mov    %rsi,0x48(%rsp)
ffffffff800014a4:	48 89 4c 24 50       	mov    %rcx,0x50(%rsp)
ffffffff800014a9:	c6 44 24 5f 00       	movb   $0x0,0x5f(%rsp)
ffffffff800014ae:	48 89 7c 24 60       	mov    %rdi,0x60(%rsp)
ffffffff800014b3:	e8 b8 00 00 00       	call   ffffffff80001570 <_RNvMNtNtCsksYxuqllC4c_4core3ptr9const_ptrPu13is_aligned_toCskbfvScpCv59_8bitflags>
ffffffff800014b8:	a8 01                	test   $0x1,%al
ffffffff800014ba:	75 02                	jne    ffffffff800014be <_RNvNvNtNtCsksYxuqllC4c_4core5slice3raw14from_raw_parts18precondition_checkCsebKla8rmeo1_6limine+0x4e>
ffffffff800014bc:	eb 12                	jmp    ffffffff800014d0 <_RNvNvNtNtCsksYxuqllC4c_4core5slice3raw14from_raw_parts18precondition_checkCsebKla8rmeo1_6limine+0x60>
ffffffff800014be:	48 8b 44 24 28       	mov    0x28(%rsp),%rax
ffffffff800014c3:	48 83 f8 00          	cmp    $0x0,%rax
ffffffff800014c7:	0f 94 c0             	sete   %al
ffffffff800014ca:	34 ff                	xor    $0xff,%al
ffffffff800014cc:	a8 01                	test   $0x1,%al
ffffffff800014ce:	75 02                	jne    ffffffff800014d2 <_RNvNvNtNtCsksYxuqllC4c_4core5slice3raw14from_raw_parts18precondition_checkCsebKla8rmeo1_6limine+0x62>
ffffffff800014d0:	eb 18                	jmp    ffffffff800014ea <_RNvNvNtNtCsksYxuqllC4c_4core5slice3raw14from_raw_parts18precondition_checkCsebKla8rmeo1_6limine+0x7a>
ffffffff800014d2:	48 8b 44 24 20       	mov    0x20(%rsp),%rax
ffffffff800014d7:	48 83 f8 00          	cmp    $0x0,%rax
ffffffff800014db:	0f 94 c1             	sete   %cl
ffffffff800014de:	88 4c 24 07          	mov    %cl,0x7(%rsp)
ffffffff800014e2:	48 83 f8 00          	cmp    $0x0,%rax
ffffffff800014e6:	74 2c                	je     ffffffff80001514 <_RNvNvNtNtCsksYxuqllC4c_4core5slice3raw14from_raw_parts18precondition_checkCsebKla8rmeo1_6limine+0xa4>
ffffffff800014e8:	eb 35                	jmp    ffffffff8000151f <_RNvNvNtNtCsksYxuqllC4c_4core5slice3raw14from_raw_parts18precondition_checkCsebKla8rmeo1_6limine+0xaf>
ffffffff800014ea:	48 8b 4c 24 08       	mov    0x8(%rsp),%rcx
ffffffff800014ef:	48 c7 44 24 68 90 c8 	movq   $0xffffffff8000c890,0x68(%rsp)
ffffffff800014f6:	00 80 
ffffffff800014f8:	48 c7 44 24 70 17 01 	movq   $0x117,0x70(%rsp)
ffffffff800014ff:	00 00 
ffffffff80001501:	48 c7 c7 90 c8 00 80 	mov    $0xffffffff8000c890,%rdi
ffffffff80001508:	be 2f 02 00 00       	mov    $0x22f,%esi
ffffffff8000150d:	31 d2                	xor    %edx,%edx
ffffffff8000150f:	e8 6c 98 00 00       	call   ffffffff8000ad80 <_RNvNtCsksYxuqllC4c_4core9panicking18panic_nounwind_fmt>
ffffffff80001514:	48 c7 44 24 30 ff ff 	movq   $0xffffffffffffffff,0x30(%rsp)
ffffffff8000151b:	ff ff 
ffffffff8000151d:	eb 0a                	jmp    ffffffff80001529 <_RNvNvNtNtCsksYxuqllC4c_4core5slice3raw14from_raw_parts18precondition_checkCsebKla8rmeo1_6limine+0xb9>
ffffffff8000151f:	8a 44 24 07          	mov    0x7(%rsp),%al
ffffffff80001523:	a8 01                	test   $0x1,%al
ffffffff80001525:	75 2b                	jne    ffffffff80001552 <_RNvNvNtNtCsksYxuqllC4c_4core5slice3raw14from_raw_parts18precondition_checkCsebKla8rmeo1_6limine+0xe2>
ffffffff80001527:	eb 0e                	jmp    ffffffff80001537 <_RNvNvNtNtCsksYxuqllC4c_4core5slice3raw14from_raw_parts18precondition_checkCsebKla8rmeo1_6limine+0xc7>
ffffffff80001529:	48 8b 44 24 10       	mov    0x10(%rsp),%rax
ffffffff8000152e:	48 3b 44 24 30       	cmp    0x30(%rsp),%rax
ffffffff80001533:	76 2b                	jbe    ffffffff80001560 <_RNvNvNtNtCsksYxuqllC4c_4core5slice3raw14from_raw_parts18precondition_checkCsebKla8rmeo1_6limine+0xf0>
ffffffff80001535:	eb 27                	jmp    ffffffff8000155e <_RNvNvNtNtCsksYxuqllC4c_4core5slice3raw14from_raw_parts18precondition_checkCsebKla8rmeo1_6limine+0xee>
ffffffff80001537:	48 8b 4c 24 20       	mov    0x20(%rsp),%rcx
ffffffff8000153c:	48 b8 ff ff ff ff ff 	movabs $0x7fffffffffffffff,%rax
ffffffff80001543:	ff ff 7f 
ffffffff80001546:	31 d2                	xor    %edx,%edx
ffffffff80001548:	48 f7 f1             	div    %rcx
ffffffff8000154b:	48 89 44 24 30       	mov    %rax,0x30(%rsp)
ffffffff80001550:	eb d7                	jmp    ffffffff80001529 <_RNvNvNtNtCsksYxuqllC4c_4core5slice3raw14from_raw_parts18precondition_checkCsebKla8rmeo1_6limine+0xb9>
ffffffff80001552:	48 c7 c7 78 c8 00 80 	mov    $0xffffffff8000c878,%rdi
ffffffff80001559:	e8 82 9c 00 00       	call   ffffffff8000b1e0 <_RNvNtNtCsksYxuqllC4c_4core9panicking11panic_const23panic_const_div_by_zero>
ffffffff8000155e:	eb 8a                	jmp    ffffffff800014ea <_RNvNvNtNtCsksYxuqllC4c_4core5slice3raw14from_raw_parts18precondition_checkCsebKla8rmeo1_6limine+0x7a>
ffffffff80001560:	48 83 c4 78          	add    $0x78,%rsp
ffffffff80001564:	c3                   	ret
ffffffff80001565:	cc                   	int3
ffffffff80001566:	cc                   	int3
ffffffff80001567:	cc                   	int3
ffffffff80001568:	cc                   	int3
ffffffff80001569:	cc                   	int3
ffffffff8000156a:	cc                   	int3
ffffffff8000156b:	cc                   	int3
ffffffff8000156c:	cc                   	int3
ffffffff8000156d:	cc                   	int3
ffffffff8000156e:	cc                   	int3
ffffffff8000156f:	cc                   	int3

ffffffff80001570 <_RNvMNtNtCsksYxuqllC4c_4core3ptr9const_ptrPu13is_aligned_toCskbfvScpCv59_8bitflags>:
ffffffff80001570:	48 83 ec 38          	sub    $0x38,%rsp
ffffffff80001574:	48 89 f1             	mov    %rsi,%rcx
ffffffff80001577:	48 89 0c 24          	mov    %rcx,(%rsp)
ffffffff8000157b:	48 89 7c 24 08       	mov    %rdi,0x8(%rsp)
ffffffff80001580:	48 89 7c 24 10       	mov    %rdi,0x10(%rsp)
ffffffff80001585:	48 89 4c 24 18       	mov    %rcx,0x18(%rsp)
ffffffff8000158a:	48 89 c8             	mov    %rcx,%rax
ffffffff8000158d:	48 d1 e8             	shr    $1,%rax
ffffffff80001590:	48 ba 55 55 55 55 55 	movabs $0x5555555555555555,%rdx
ffffffff80001597:	55 55 55 
ffffffff8000159a:	48 21 d0             	and    %rdx,%rax
ffffffff8000159d:	48 29 c1             	sub    %rax,%rcx
ffffffff800015a0:	48 ba 33 33 33 33 33 	movabs $0x3333333333333333,%rdx
ffffffff800015a7:	33 33 33 
ffffffff800015aa:	48 89 c8             	mov    %rcx,%rax
ffffffff800015ad:	48 21 d0             	and    %rdx,%rax
ffffffff800015b0:	48 c1 e9 02          	shr    $0x2,%rcx
ffffffff800015b4:	48 21 d1             	and    %rdx,%rcx
ffffffff800015b7:	48 01 c8             	add    %rcx,%rax
ffffffff800015ba:	48 89 c1             	mov    %rax,%rcx
ffffffff800015bd:	48 c1 e9 04          	shr    $0x4,%rcx
ffffffff800015c1:	48 01 c8             	add    %rcx,%rax
ffffffff800015c4:	48 b9 0f 0f 0f 0f 0f 	movabs $0xf0f0f0f0f0f0f0f,%rcx
ffffffff800015cb:	0f 0f 0f 
ffffffff800015ce:	48 21 c8             	and    %rcx,%rax
ffffffff800015d1:	48 b9 01 01 01 01 01 	movabs $0x101010101010101,%rcx
ffffffff800015d8:	01 01 01 
ffffffff800015db:	48 0f af c1          	imul   %rcx,%rax
ffffffff800015df:	48 c1 e8 38          	shr    $0x38,%rax
ffffffff800015e3:	89 44 24 24          	mov    %eax,0x24(%rsp)
ffffffff800015e7:	83 7c 24 24 01       	cmpl   $0x1,0x24(%rsp)
ffffffff800015ec:	75 1e                	jne    ffffffff8000160c <_RNvMNtNtCsksYxuqllC4c_4core3ptr9const_ptrPu13is_aligned_toCskbfvScpCv59_8bitflags+0x9c>
ffffffff800015ee:	48 8b 44 24 08       	mov    0x8(%rsp),%rax
ffffffff800015f3:	48 8b 0c 24          	mov    (%rsp),%rcx
ffffffff800015f7:	48 83 e9 01          	sub    $0x1,%rcx
ffffffff800015fb:	48 21 c8             	and    %rcx,%rax
ffffffff800015fe:	48 83 f8 00          	cmp    $0x0,%rax
ffffffff80001602:	0f 94 c0             	sete   %al
ffffffff80001605:	24 01                	and    $0x1,%al
ffffffff80001607:	48 83 c4 38          	add    $0x38,%rsp
ffffffff8000160b:	c3                   	ret
ffffffff8000160c:	48 c7 44 24 28 a7 c9 	movq   $0xffffffff8000c9a7,0x28(%rsp)
ffffffff80001613:	00 80 
ffffffff80001615:	48 c7 44 24 30 2a 00 	movq   $0x2a,0x30(%rsp)
ffffffff8000161c:	00 00 
ffffffff8000161e:	48 c7 c7 a7 c9 00 80 	mov    $0xffffffff8000c9a7,%rdi
ffffffff80001625:	48 c7 c2 d8 c9 00 80 	mov    $0xffffffff8000c9d8,%rdx
ffffffff8000162c:	be 55 00 00 00       	mov    $0x55,%esi
ffffffff80001631:	e8 ba 97 00 00       	call   ffffffff8000adf0 <_RNvNtCsksYxuqllC4c_4core9panicking9panic_fmt>

ffffffff80001636 <flanterm_context_reinit>:
ffffffff80001636:	55                   	push   %rbp
ffffffff80001637:	48 89 e5             	mov    %rsp,%rbp
ffffffff8000163a:	48 83 ec 08          	sub    $0x8,%rsp
ffffffff8000163e:	48 89 7d f8          	mov    %rdi,-0x8(%rbp)
ffffffff80001642:	48 8b 45 f8          	mov    -0x8(%rbp),%rax
ffffffff80001646:	48 c7 00 08 00 00 00 	movq   $0x8,(%rax)
ffffffff8000164d:	48 8b 45 f8          	mov    -0x8(%rbp),%rax
ffffffff80001651:	c6 40 08 01          	movb   $0x1,0x8(%rax)
ffffffff80001655:	48 8b 45 f8          	mov    -0x8(%rbp),%rax
ffffffff80001659:	c6 40 09 01          	movb   $0x1,0x9(%rax)
ffffffff8000165d:	48 8b 45 f8          	mov    -0x8(%rbp),%rax
ffffffff80001661:	c6 40 0a 01          	movb   $0x1,0xa(%rax)
ffffffff80001665:	48 8b 45 f8          	mov    -0x8(%rbp),%rax
ffffffff80001669:	c6 40 0b 00          	movb   $0x0,0xb(%rax)
ffffffff8000166d:	48 8b 45 f8          	mov    -0x8(%rbp),%rax
ffffffff80001671:	c6 40 0c 00          	movb   $0x0,0xc(%rax)
ffffffff80001675:	48 8b 45 f8          	mov    -0x8(%rbp),%rax
ffffffff80001679:	c6 40 0d 00          	movb   $0x0,0xd(%rax)
ffffffff8000167d:	48 8b 45 f8          	mov    -0x8(%rbp),%rax
ffffffff80001681:	c6 40 0e 00          	movb   $0x0,0xe(%rax)
ffffffff80001685:	48 8b 45 f8          	mov    -0x8(%rbp),%rax
ffffffff80001689:	c6 40 0f 00          	movb   $0x0,0xf(%rax)
ffffffff8000168d:	48 8b 45 f8          	mov    -0x8(%rbp),%rax
ffffffff80001691:	c6 40 10 00          	movb   $0x0,0x10(%rax)
ffffffff80001695:	48 8b 45 f8          	mov    -0x8(%rbp),%rax
ffffffff80001699:	c6 40 11 00          	movb   $0x0,0x11(%rax)
ffffffff8000169d:	48 8b 45 f8          	mov    -0x8(%rbp),%rax
ffffffff800016a1:	c6 40 12 00          	movb   $0x0,0x12(%rax)
ffffffff800016a5:	48 8b 45 f8          	mov    -0x8(%rbp),%rax
ffffffff800016a9:	c6 40 13 00          	movb   $0x0,0x13(%rax)
ffffffff800016ad:	48 8b 45 f8          	mov    -0x8(%rbp),%rax
ffffffff800016b1:	c6 40 14 00          	movb   $0x0,0x14(%rax)
ffffffff800016b5:	48 8b 45 f8          	mov    -0x8(%rbp),%rax
ffffffff800016b9:	c6 40 15 00          	movb   $0x0,0x15(%rax)
ffffffff800016bd:	48 8b 45 f8          	mov    -0x8(%rbp),%rax
ffffffff800016c1:	c6 40 16 00          	movb   $0x0,0x16(%rax)
ffffffff800016c5:	48 8b 45 f8          	mov    -0x8(%rbp),%rax
ffffffff800016c9:	48 c7 40 20 00 00 00 	movq   $0x0,0x20(%rax)
ffffffff800016d0:	00 
ffffffff800016d1:	48 8b 45 f8          	mov    -0x8(%rbp),%rax
ffffffff800016d5:	c6 40 28 00          	movb   $0x0,0x28(%rax)
ffffffff800016d9:	48 8b 45 f8          	mov    -0x8(%rbp),%rax
ffffffff800016dd:	c6 40 29 00          	movb   $0x0,0x29(%rax)
ffffffff800016e1:	48 8b 45 f8          	mov    -0x8(%rbp),%rax
ffffffff800016e5:	c6 40 2a 01          	movb   $0x1,0x2a(%rax)
ffffffff800016e9:	48 8b 45 f8          	mov    -0x8(%rbp),%rax
ffffffff800016ed:	48 c7 40 30 00 00 00 	movq   $0x0,0x30(%rax)
ffffffff800016f4:	00 
ffffffff800016f5:	48 8b 45 f8          	mov    -0x8(%rbp),%rax
ffffffff800016f9:	48 c7 40 38 00 00 00 	movq   $0x0,0x38(%rax)
ffffffff80001700:	00 
ffffffff80001701:	48 8b 45 f8          	mov    -0x8(%rbp),%rax
ffffffff80001705:	48 c7 40 40 00 00 00 	movq   $0x0,0x40(%rax)
ffffffff8000170c:	00 
ffffffff8000170d:	48 8b 45 f8          	mov    -0x8(%rbp),%rax
ffffffff80001711:	48 c7 40 48 00 00 00 	movq   $0x0,0x48(%rax)
ffffffff80001718:	00 
ffffffff80001719:	48 8b 45 f8          	mov    -0x8(%rbp),%rax
ffffffff8000171d:	48 c7 40 50 00 00 00 	movq   $0x0,0x50(%rax)
ffffffff80001724:	00 
ffffffff80001725:	48 8b 45 f8          	mov    -0x8(%rbp),%rax
ffffffff80001729:	48 c7 40 58 ff ff ff 	movq   $0xffffffffffffffff,0x58(%rax)
ffffffff80001730:	ff 
ffffffff80001731:	48 8b 45 f8          	mov    -0x8(%rbp),%rax
ffffffff80001735:	48 c7 40 60 ff ff ff 	movq   $0xffffffffffffffff,0x60(%rax)
ffffffff8000173c:	ff 
ffffffff8000173d:	48 8b 45 f8          	mov    -0x8(%rbp),%rax
ffffffff80001741:	48 c7 40 68 00 00 00 	movq   $0x0,0x68(%rax)
ffffffff80001748:	00 
ffffffff80001749:	48 8b 45 f8          	mov    -0x8(%rbp),%rax
ffffffff8000174d:	48 8b 90 e0 00 00 00 	mov    0xe0(%rax),%rdx
ffffffff80001754:	48 8b 45 f8          	mov    -0x8(%rbp),%rax
ffffffff80001758:	48 89 50 70          	mov    %rdx,0x70(%rax)
ffffffff8000175c:	48 8b 45 f8          	mov    -0x8(%rbp),%rax
ffffffff80001760:	48 c7 80 b8 00 00 00 	movq   $0x10,0xb8(%rax)
ffffffff80001767:	10 00 00 00 
ffffffff8000176b:	90                   	nop
ffffffff8000176c:	c9                   	leave
ffffffff8000176d:	c3                   	ret

ffffffff8000176e <flanterm_write>:
ffffffff8000176e:	55                   	push   %rbp
ffffffff8000176f:	48 89 e5             	mov    %rsp,%rbp
ffffffff80001772:	48 83 ec 30          	sub    $0x30,%rsp
ffffffff80001776:	48 89 7d e8          	mov    %rdi,-0x18(%rbp)
ffffffff8000177a:	48 89 75 e0          	mov    %rsi,-0x20(%rbp)
ffffffff8000177e:	48 89 55 d8          	mov    %rdx,-0x28(%rbp)
ffffffff80001782:	48 c7 45 f8 00 00 00 	movq   $0x0,-0x8(%rbp)
ffffffff80001789:	00 
ffffffff8000178a:	eb 24                	jmp    ffffffff800017b0 <flanterm_write+0x42>
ffffffff8000178c:	48 8b 55 e0          	mov    -0x20(%rbp),%rdx
ffffffff80001790:	48 8b 45 f8          	mov    -0x8(%rbp),%rax
ffffffff80001794:	48 01 d0             	add    %rdx,%rax
ffffffff80001797:	0f b6 00             	movzbl (%rax),%eax
ffffffff8000179a:	0f b6 d0             	movzbl %al,%edx
ffffffff8000179d:	48 8b 45 e8          	mov    -0x18(%rbp),%rax
ffffffff800017a1:	89 d6                	mov    %edx,%esi
ffffffff800017a3:	48 89 c7             	mov    %rax,%rdi
ffffffff800017a6:	e8 99 46 00 00       	call   ffffffff80005e44 <flanterm_putchar>
ffffffff800017ab:	48 83 45 f8 01       	addq   $0x1,-0x8(%rbp)
ffffffff800017b0:	48 8b 45 f8          	mov    -0x8(%rbp),%rax
ffffffff800017b4:	48 3b 45 d8          	cmp    -0x28(%rbp),%rax
ffffffff800017b8:	72 d2                	jb     ffffffff8000178c <flanterm_write+0x1e>
ffffffff800017ba:	48 8b 45 e8          	mov    -0x18(%rbp),%rax
ffffffff800017be:	0f b6 40 08          	movzbl 0x8(%rax),%eax
ffffffff800017c2:	84 c0                	test   %al,%al
ffffffff800017c4:	74 14                	je     ffffffff800017da <flanterm_write+0x6c>
ffffffff800017c6:	48 8b 45 e8          	mov    -0x18(%rbp),%rax
ffffffff800017ca:	48 8b 90 90 01 00 00 	mov    0x190(%rax),%rdx
ffffffff800017d1:	48 8b 45 e8          	mov    -0x18(%rbp),%rax
ffffffff800017d5:	48 89 c7             	mov    %rax,%rdi
ffffffff800017d8:	ff d2                	call   *%rdx
ffffffff800017da:	90                   	nop
ffffffff800017db:	c9                   	leave
ffffffff800017dc:	c3                   	ret

ffffffff800017dd <sgr>:
ffffffff800017dd:	55                   	push   %rbp
ffffffff800017de:	48 89 e5             	mov    %rsp,%rbp
ffffffff800017e1:	48 83 ec 30          	sub    $0x30,%rsp
ffffffff800017e5:	48 89 7d d8          	mov    %rdi,-0x28(%rbp)
ffffffff800017e9:	48 c7 45 f8 00 00 00 	movq   $0x0,-0x8(%rbp)
ffffffff800017f0:	00 
ffffffff800017f1:	48 8b 45 d8          	mov    -0x28(%rbp),%rax
ffffffff800017f5:	48 8b 40 40          	mov    0x40(%rax),%rax
ffffffff800017f9:	48 85 c0             	test   %rax,%rax
ffffffff800017fc:	0f 85 14 0b 00 00    	jne    ffffffff80002316 <sgr+0xb39>
ffffffff80001802:	eb 15                	jmp    ffffffff80001819 <sgr+0x3c>
ffffffff80001804:	48 8b 45 d8          	mov    -0x28(%rbp),%rax
ffffffff80001808:	48 8b 55 f8          	mov    -0x8(%rbp),%rdx
ffffffff8000180c:	48 83 c2 1c          	add    $0x1c,%rdx
ffffffff80001810:	8b 44 90 08          	mov    0x8(%rax,%rdx,4),%eax
ffffffff80001814:	85 c0                	test   %eax,%eax
ffffffff80001816:	75 7e                	jne    ffffffff80001896 <sgr+0xb9>
ffffffff80001818:	90                   	nop
ffffffff80001819:	48 8b 45 d8          	mov    -0x28(%rbp),%rax
ffffffff8000181d:	0f b6 40 13          	movzbl 0x13(%rax),%eax
ffffffff80001821:	84 c0                	test   %al,%al
ffffffff80001823:	74 1c                	je     ffffffff80001841 <sgr+0x64>
ffffffff80001825:	48 8b 45 d8          	mov    -0x28(%rbp),%rax
ffffffff80001829:	c6 40 13 00          	movb   $0x0,0x13(%rax)
ffffffff8000182d:	48 8b 45 d8          	mov    -0x28(%rbp),%rax
ffffffff80001831:	48 8b 90 78 01 00 00 	mov    0x178(%rax),%rdx
ffffffff80001838:	48 8b 45 d8          	mov    -0x28(%rbp),%rax
ffffffff8000183c:	48 89 c7             	mov    %rax,%rdi
ffffffff8000183f:	ff d2                	call   *%rdx
ffffffff80001841:	48 8b 45 d8          	mov    -0x28(%rbp),%rax
ffffffff80001845:	c6 40 11 00          	movb   $0x0,0x11(%rax)
ffffffff80001849:	48 8b 45 d8          	mov    -0x28(%rbp),%rax
ffffffff8000184d:	c6 40 12 00          	movb   $0x0,0x12(%rax)
ffffffff80001851:	48 8b 45 d8          	mov    -0x28(%rbp),%rax
ffffffff80001855:	48 c7 40 58 ff ff ff 	movq   $0xffffffffffffffff,0x58(%rax)
ffffffff8000185c:	ff 
ffffffff8000185d:	48 8b 45 d8          	mov    -0x28(%rbp),%rax
ffffffff80001861:	48 c7 40 60 ff ff ff 	movq   $0xffffffffffffffff,0x60(%rax)
ffffffff80001868:	ff 
ffffffff80001869:	48 8b 45 d8          	mov    -0x28(%rbp),%rax
ffffffff8000186d:	48 8b 90 48 01 00 00 	mov    0x148(%rax),%rdx
ffffffff80001874:	48 8b 45 d8          	mov    -0x28(%rbp),%rax
ffffffff80001878:	48 89 c7             	mov    %rax,%rdi
ffffffff8000187b:	ff d2                	call   *%rdx
ffffffff8000187d:	48 8b 45 d8          	mov    -0x28(%rbp),%rax
ffffffff80001881:	48 8b 90 40 01 00 00 	mov    0x140(%rax),%rdx
ffffffff80001888:	48 8b 45 d8          	mov    -0x28(%rbp),%rax
ffffffff8000188c:	48 89 c7             	mov    %rax,%rdi
ffffffff8000188f:	ff d2                	call   *%rdx
ffffffff80001891:	e9 79 0a 00 00       	jmp    ffffffff8000230f <sgr+0xb32>
ffffffff80001896:	48 8b 45 d8          	mov    -0x28(%rbp),%rax
ffffffff8000189a:	48 8b 55 f8          	mov    -0x8(%rbp),%rdx
ffffffff8000189e:	48 83 c2 1c          	add    $0x1c,%rdx
ffffffff800018a2:	8b 44 90 08          	mov    0x8(%rax,%rdx,4),%eax
ffffffff800018a6:	83 f8 01             	cmp    $0x1,%eax
ffffffff800018a9:	0f 85 ae 00 00 00    	jne    ffffffff8000195d <sgr+0x180>
ffffffff800018af:	48 8b 45 d8          	mov    -0x28(%rbp),%rax
ffffffff800018b3:	c6 40 11 01          	movb   $0x1,0x11(%rax)
ffffffff800018b7:	48 8b 45 d8          	mov    -0x28(%rbp),%rax
ffffffff800018bb:	48 8b 40 58          	mov    0x58(%rax),%rax
ffffffff800018bf:	48 83 f8 ff          	cmp    $0xffffffffffffffff,%rax
ffffffff800018c3:	74 57                	je     ffffffff8000191c <sgr+0x13f>
ffffffff800018c5:	48 8b 45 d8          	mov    -0x28(%rbp),%rax
ffffffff800018c9:	0f b6 40 13          	movzbl 0x13(%rax),%eax
ffffffff800018cd:	83 f0 01             	xor    $0x1,%eax
ffffffff800018d0:	84 c0                	test   %al,%al
ffffffff800018d2:	74 24                	je     ffffffff800018f8 <sgr+0x11b>
ffffffff800018d4:	48 8b 45 d8          	mov    -0x28(%rbp),%rax
ffffffff800018d8:	48 8b 88 20 01 00 00 	mov    0x120(%rax),%rcx
ffffffff800018df:	48 8b 45 d8          	mov    -0x28(%rbp),%rax
ffffffff800018e3:	48 8b 50 58          	mov    0x58(%rax),%rdx
ffffffff800018e7:	48 8b 45 d8          	mov    -0x28(%rbp),%rax
ffffffff800018eb:	48 89 d6             	mov    %rdx,%rsi
ffffffff800018ee:	48 89 c7             	mov    %rax,%rdi
ffffffff800018f1:	ff d1                	call   *%rcx
ffffffff800018f3:	e9 17 0a 00 00       	jmp    ffffffff8000230f <sgr+0xb32>
ffffffff800018f8:	48 8b 45 d8          	mov    -0x28(%rbp),%rax
ffffffff800018fc:	48 8b 88 28 01 00 00 	mov    0x128(%rax),%rcx
ffffffff80001903:	48 8b 45 d8          	mov    -0x28(%rbp),%rax
ffffffff80001907:	48 8b 50 58          	mov    0x58(%rax),%rdx
ffffffff8000190b:	48 8b 45 d8          	mov    -0x28(%rbp),%rax
ffffffff8000190f:	48 89 d6             	mov    %rdx,%rsi
ffffffff80001912:	48 89 c7             	mov    %rax,%rdi
ffffffff80001915:	ff d1                	call   *%rcx
ffffffff80001917:	e9 f3 09 00 00       	jmp    ffffffff8000230f <sgr+0xb32>
ffffffff8000191c:	48 8b 45 d8          	mov    -0x28(%rbp),%rax
ffffffff80001920:	0f b6 40 13          	movzbl 0x13(%rax),%eax
ffffffff80001924:	83 f0 01             	xor    $0x1,%eax
ffffffff80001927:	84 c0                	test   %al,%al
ffffffff80001929:	74 19                	je     ffffffff80001944 <sgr+0x167>
ffffffff8000192b:	48 8b 45 d8          	mov    -0x28(%rbp),%rax
ffffffff8000192f:	48 8b 90 50 01 00 00 	mov    0x150(%rax),%rdx
ffffffff80001936:	48 8b 45 d8          	mov    -0x28(%rbp),%rax
ffffffff8000193a:	48 89 c7             	mov    %rax,%rdi
ffffffff8000193d:	ff d2                	call   *%rdx
ffffffff8000193f:	e9 cb 09 00 00       	jmp    ffffffff8000230f <sgr+0xb32>
ffffffff80001944:	48 8b 45 d8          	mov    -0x28(%rbp),%rax
ffffffff80001948:	48 8b 90 58 01 00 00 	mov    0x158(%rax),%rdx
ffffffff8000194f:	48 8b 45 d8          	mov    -0x28(%rbp),%rax
ffffffff80001953:	48 89 c7             	mov    %rax,%rdi
ffffffff80001956:	ff d2                	call   *%rdx
ffffffff80001958:	e9 b2 09 00 00       	jmp    ffffffff8000230f <sgr+0xb32>
ffffffff8000195d:	48 8b 45 d8          	mov    -0x28(%rbp),%rax
ffffffff80001961:	48 8b 55 f8          	mov    -0x8(%rbp),%rdx
ffffffff80001965:	48 83 c2 1c          	add    $0x1c,%rdx
ffffffff80001969:	8b 44 90 08          	mov    0x8(%rax,%rdx,4),%eax
ffffffff8000196d:	83 f8 05             	cmp    $0x5,%eax
ffffffff80001970:	0f 85 ae 00 00 00    	jne    ffffffff80001a24 <sgr+0x247>
ffffffff80001976:	48 8b 45 d8          	mov    -0x28(%rbp),%rax
ffffffff8000197a:	c6 40 12 01          	movb   $0x1,0x12(%rax)
ffffffff8000197e:	48 8b 45 d8          	mov    -0x28(%rbp),%rax
ffffffff80001982:	48 8b 40 60          	mov    0x60(%rax),%rax
ffffffff80001986:	48 83 f8 ff          	cmp    $0xffffffffffffffff,%rax
ffffffff8000198a:	74 57                	je     ffffffff800019e3 <sgr+0x206>
ffffffff8000198c:	48 8b 45 d8          	mov    -0x28(%rbp),%rax
ffffffff80001990:	0f b6 40 13          	movzbl 0x13(%rax),%eax
ffffffff80001994:	83 f0 01             	xor    $0x1,%eax
ffffffff80001997:	84 c0                	test   %al,%al
ffffffff80001999:	74 24                	je     ffffffff800019bf <sgr+0x1e2>
ffffffff8000199b:	48 8b 45 d8          	mov    -0x28(%rbp),%rax
ffffffff8000199f:	48 8b 88 28 01 00 00 	mov    0x128(%rax),%rcx
ffffffff800019a6:	48 8b 45 d8          	mov    -0x28(%rbp),%rax
ffffffff800019aa:	48 8b 50 60          	mov    0x60(%rax),%rdx
ffffffff800019ae:	48 8b 45 d8          	mov    -0x28(%rbp),%rax
ffffffff800019b2:	48 89 d6             	mov    %rdx,%rsi
ffffffff800019b5:	48 89 c7             	mov    %rax,%rdi
ffffffff800019b8:	ff d1                	call   *%rcx
ffffffff800019ba:	e9 50 09 00 00       	jmp    ffffffff8000230f <sgr+0xb32>
ffffffff800019bf:	48 8b 45 d8          	mov    -0x28(%rbp),%rax
ffffffff800019c3:	48 8b 88 20 01 00 00 	mov    0x120(%rax),%rcx
ffffffff800019ca:	48 8b 45 d8          	mov    -0x28(%rbp),%rax
ffffffff800019ce:	48 8b 50 60          	mov    0x60(%rax),%rdx
ffffffff800019d2:	48 8b 45 d8          	mov    -0x28(%rbp),%rax
ffffffff800019d6:	48 89 d6             	mov    %rdx,%rsi
ffffffff800019d9:	48 89 c7             	mov    %rax,%rdi
ffffffff800019dc:	ff d1                	call   *%rcx
ffffffff800019de:	e9 2c 09 00 00       	jmp    ffffffff8000230f <sgr+0xb32>
ffffffff800019e3:	48 8b 45 d8          	mov    -0x28(%rbp),%rax
ffffffff800019e7:	0f b6 40 13          	movzbl 0x13(%rax),%eax
ffffffff800019eb:	83 f0 01             	xor    $0x1,%eax
ffffffff800019ee:	84 c0                	test   %al,%al
ffffffff800019f0:	74 19                	je     ffffffff80001a0b <sgr+0x22e>
ffffffff800019f2:	48 8b 45 d8          	mov    -0x28(%rbp),%rax
ffffffff800019f6:	48 8b 90 58 01 00 00 	mov    0x158(%rax),%rdx
ffffffff800019fd:	48 8b 45 d8          	mov    -0x28(%rbp),%rax
ffffffff80001a01:	48 89 c7             	mov    %rax,%rdi
ffffffff80001a04:	ff d2                	call   *%rdx
ffffffff80001a06:	e9 04 09 00 00       	jmp    ffffffff8000230f <sgr+0xb32>
ffffffff80001a0b:	48 8b 45 d8          	mov    -0x28(%rbp),%rax
ffffffff80001a0f:	48 8b 90 50 01 00 00 	mov    0x150(%rax),%rdx
ffffffff80001a16:	48 8b 45 d8          	mov    -0x28(%rbp),%rax
ffffffff80001a1a:	48 89 c7             	mov    %rax,%rdi
ffffffff80001a1d:	ff d2                	call   *%rdx
ffffffff80001a1f:	e9 eb 08 00 00       	jmp    ffffffff8000230f <sgr+0xb32>
ffffffff80001a24:	48 8b 45 d8          	mov    -0x28(%rbp),%rax
ffffffff80001a28:	48 8b 55 f8          	mov    -0x8(%rbp),%rdx
ffffffff80001a2c:	48 83 c2 1c          	add    $0x1c,%rdx
ffffffff80001a30:	8b 44 90 08          	mov    0x8(%rax,%rdx,4),%eax
ffffffff80001a34:	83 f8 16             	cmp    $0x16,%eax
ffffffff80001a37:	0f 85 ae 00 00 00    	jne    ffffffff80001aeb <sgr+0x30e>
ffffffff80001a3d:	48 8b 45 d8          	mov    -0x28(%rbp),%rax
ffffffff80001a41:	c6 40 11 00          	movb   $0x0,0x11(%rax)
ffffffff80001a45:	48 8b 45 d8          	mov    -0x28(%rbp),%rax
ffffffff80001a49:	48 8b 40 58          	mov    0x58(%rax),%rax
ffffffff80001a4d:	48 83 f8 ff          	cmp    $0xffffffffffffffff,%rax
ffffffff80001a51:	74 57                	je     ffffffff80001aaa <sgr+0x2cd>
ffffffff80001a53:	48 8b 45 d8          	mov    -0x28(%rbp),%rax
ffffffff80001a57:	0f b6 40 13          	movzbl 0x13(%rax),%eax
ffffffff80001a5b:	83 f0 01             	xor    $0x1,%eax
ffffffff80001a5e:	84 c0                	test   %al,%al
ffffffff80001a60:	74 24                	je     ffffffff80001a86 <sgr+0x2a9>
ffffffff80001a62:	48 8b 45 d8          	mov    -0x28(%rbp),%rax
ffffffff80001a66:	48 8b 88 10 01 00 00 	mov    0x110(%rax),%rcx
ffffffff80001a6d:	48 8b 45 d8          	mov    -0x28(%rbp),%rax
ffffffff80001a71:	48 8b 50 58          	mov    0x58(%rax),%rdx
ffffffff80001a75:	48 8b 45 d8          	mov    -0x28(%rbp),%rax
ffffffff80001a79:	48 89 d6             	mov    %rdx,%rsi
ffffffff80001a7c:	48 89 c7             	mov    %rax,%rdi
ffffffff80001a7f:	ff d1                	call   *%rcx
ffffffff80001a81:	e9 89 08 00 00       	jmp    ffffffff8000230f <sgr+0xb32>
ffffffff80001a86:	48 8b 45 d8          	mov    -0x28(%rbp),%rax
ffffffff80001a8a:	48 8b 88 18 01 00 00 	mov    0x118(%rax),%rcx
ffffffff80001a91:	48 8b 45 d8          	mov    -0x28(%rbp),%rax
ffffffff80001a95:	48 8b 50 58          	mov    0x58(%rax),%rdx
ffffffff80001a99:	48 8b 45 d8          	mov    -0x28(%rbp),%rax
ffffffff80001a9d:	48 89 d6             	mov    %rdx,%rsi
ffffffff80001aa0:	48 89 c7             	mov    %rax,%rdi
ffffffff80001aa3:	ff d1                	call   *%rcx
ffffffff80001aa5:	e9 65 08 00 00       	jmp    ffffffff8000230f <sgr+0xb32>
ffffffff80001aaa:	48 8b 45 d8          	mov    -0x28(%rbp),%rax
ffffffff80001aae:	0f b6 40 13          	movzbl 0x13(%rax),%eax
ffffffff80001ab2:	83 f0 01             	xor    $0x1,%eax
ffffffff80001ab5:	84 c0                	test   %al,%al
ffffffff80001ab7:	74 19                	je     ffffffff80001ad2 <sgr+0x2f5>
ffffffff80001ab9:	48 8b 45 d8          	mov    -0x28(%rbp),%rax
ffffffff80001abd:	48 8b 90 40 01 00 00 	mov    0x140(%rax),%rdx
ffffffff80001ac4:	48 8b 45 d8          	mov    -0x28(%rbp),%rax
ffffffff80001ac8:	48 89 c7             	mov    %rax,%rdi
ffffffff80001acb:	ff d2                	call   *%rdx
ffffffff80001acd:	e9 3d 08 00 00       	jmp    ffffffff8000230f <sgr+0xb32>
ffffffff80001ad2:	48 8b 45 d8          	mov    -0x28(%rbp),%rax
ffffffff80001ad6:	48 8b 90 48 01 00 00 	mov    0x148(%rax),%rdx
ffffffff80001add:	48 8b 45 d8          	mov    -0x28(%rbp),%rax
ffffffff80001ae1:	48 89 c7             	mov    %rax,%rdi
ffffffff80001ae4:	ff d2                	call   *%rdx
ffffffff80001ae6:	e9 24 08 00 00       	jmp    ffffffff8000230f <sgr+0xb32>
ffffffff80001aeb:	48 8b 45 d8          	mov    -0x28(%rbp),%rax
ffffffff80001aef:	48 8b 55 f8          	mov    -0x8(%rbp),%rdx
ffffffff80001af3:	48 83 c2 1c          	add    $0x1c,%rdx
ffffffff80001af7:	8b 44 90 08          	mov    0x8(%rax,%rdx,4),%eax
ffffffff80001afb:	83 f8 19             	cmp    $0x19,%eax
ffffffff80001afe:	0f 85 ae 00 00 00    	jne    ffffffff80001bb2 <sgr+0x3d5>
ffffffff80001b04:	48 8b 45 d8          	mov    -0x28(%rbp),%rax
ffffffff80001b08:	c6 40 12 00          	movb   $0x0,0x12(%rax)
ffffffff80001b0c:	48 8b 45 d8          	mov    -0x28(%rbp),%rax
ffffffff80001b10:	48 8b 40 60          	mov    0x60(%rax),%rax
ffffffff80001b14:	48 83 f8 ff          	cmp    $0xffffffffffffffff,%rax
ffffffff80001b18:	74 57                	je     ffffffff80001b71 <sgr+0x394>
ffffffff80001b1a:	48 8b 45 d8          	mov    -0x28(%rbp),%rax
ffffffff80001b1e:	0f b6 40 13          	movzbl 0x13(%rax),%eax
ffffffff80001b22:	83 f0 01             	xor    $0x1,%eax
ffffffff80001b25:	84 c0                	test   %al,%al
ffffffff80001b27:	74 24                	je     ffffffff80001b4d <sgr+0x370>
ffffffff80001b29:	48 8b 45 d8          	mov    -0x28(%rbp),%rax
ffffffff80001b2d:	48 8b 88 18 01 00 00 	mov    0x118(%rax),%rcx
ffffffff80001b34:	48 8b 45 d8          	mov    -0x28(%rbp),%rax
ffffffff80001b38:	48 8b 50 60          	mov    0x60(%rax),%rdx
ffffffff80001b3c:	48 8b 45 d8          	mov    -0x28(%rbp),%rax
ffffffff80001b40:	48 89 d6             	mov    %rdx,%rsi
ffffffff80001b43:	48 89 c7             	mov    %rax,%rdi
ffffffff80001b46:	ff d1                	call   *%rcx
ffffffff80001b48:	e9 c2 07 00 00       	jmp    ffffffff8000230f <sgr+0xb32>
ffffffff80001b4d:	48 8b 45 d8          	mov    -0x28(%rbp),%rax
ffffffff80001b51:	48 8b 88 10 01 00 00 	mov    0x110(%rax),%rcx
ffffffff80001b58:	48 8b 45 d8          	mov    -0x28(%rbp),%rax
ffffffff80001b5c:	48 8b 50 60          	mov    0x60(%rax),%rdx
ffffffff80001b60:	48 8b 45 d8          	mov    -0x28(%rbp),%rax
ffffffff80001b64:	48 89 d6             	mov    %rdx,%rsi
ffffffff80001b67:	48 89 c7             	mov    %rax,%rdi
ffffffff80001b6a:	ff d1                	call   *%rcx
ffffffff80001b6c:	e9 9e 07 00 00       	jmp    ffffffff8000230f <sgr+0xb32>
ffffffff80001b71:	48 8b 45 d8          	mov    -0x28(%rbp),%rax
ffffffff80001b75:	0f b6 40 13          	movzbl 0x13(%rax),%eax
ffffffff80001b79:	83 f0 01             	xor    $0x1,%eax
ffffffff80001b7c:	84 c0                	test   %al,%al
ffffffff80001b7e:	74 19                	je     ffffffff80001b99 <sgr+0x3bc>
ffffffff80001b80:	48 8b 45 d8          	mov    -0x28(%rbp),%rax
ffffffff80001b84:	48 8b 90 48 01 00 00 	mov    0x148(%rax),%rdx
ffffffff80001b8b:	48 8b 45 d8          	mov    -0x28(%rbp),%rax
ffffffff80001b8f:	48 89 c7             	mov    %rax,%rdi
ffffffff80001b92:	ff d2                	call   *%rdx
ffffffff80001b94:	e9 76 07 00 00       	jmp    ffffffff8000230f <sgr+0xb32>
ffffffff80001b99:	48 8b 45 d8          	mov    -0x28(%rbp),%rax
ffffffff80001b9d:	48 8b 90 40 01 00 00 	mov    0x140(%rax),%rdx
ffffffff80001ba4:	48 8b 45 d8          	mov    -0x28(%rbp),%rax
ffffffff80001ba8:	48 89 c7             	mov    %rax,%rdi
ffffffff80001bab:	ff d2                	call   *%rdx
ffffffff80001bad:	e9 5d 07 00 00       	jmp    ffffffff8000230f <sgr+0xb32>
ffffffff80001bb2:	48 8b 45 d8          	mov    -0x28(%rbp),%rax
ffffffff80001bb6:	48 8b 55 f8          	mov    -0x8(%rbp),%rdx
ffffffff80001bba:	48 83 c2 1c          	add    $0x1c,%rdx
ffffffff80001bbe:	8b 44 90 08          	mov    0x8(%rax,%rdx,4),%eax
ffffffff80001bc2:	83 f8 1d             	cmp    $0x1d,%eax
ffffffff80001bc5:	0f 86 f3 00 00 00    	jbe    ffffffff80001cbe <sgr+0x4e1>
ffffffff80001bcb:	48 8b 45 d8          	mov    -0x28(%rbp),%rax
ffffffff80001bcf:	48 8b 55 f8          	mov    -0x8(%rbp),%rdx
ffffffff80001bd3:	48 83 c2 1c          	add    $0x1c,%rdx
ffffffff80001bd7:	8b 44 90 08          	mov    0x8(%rax,%rdx,4),%eax
ffffffff80001bdb:	83 f8 25             	cmp    $0x25,%eax
ffffffff80001bde:	0f 87 da 00 00 00    	ja     ffffffff80001cbe <sgr+0x4e1>
ffffffff80001be4:	48 c7 45 f0 1e 00 00 	movq   $0x1e,-0x10(%rbp)
ffffffff80001beb:	00 
ffffffff80001bec:	48 8b 45 d8          	mov    -0x28(%rbp),%rax
ffffffff80001bf0:	48 8b 55 f8          	mov    -0x8(%rbp),%rdx
ffffffff80001bf4:	48 83 c2 1c          	add    $0x1c,%rdx
ffffffff80001bf8:	8b 44 90 08          	mov    0x8(%rax,%rdx,4),%eax
ffffffff80001bfc:	89 c0                	mov    %eax,%eax
ffffffff80001bfe:	48 2b 45 f0          	sub    -0x10(%rbp),%rax
ffffffff80001c02:	48 89 c2             	mov    %rax,%rdx
ffffffff80001c05:	48 8b 45 d8          	mov    -0x28(%rbp),%rax
ffffffff80001c09:	48 89 50 58          	mov    %rdx,0x58(%rax)
ffffffff80001c0d:	48 8b 45 d8          	mov    -0x28(%rbp),%rax
ffffffff80001c11:	0f b6 40 13          	movzbl 0x13(%rax),%eax
ffffffff80001c15:	84 c0                	test   %al,%al
ffffffff80001c17:	0f 85 0e 01 00 00    	jne    ffffffff80001d2b <sgr+0x54e>
ffffffff80001c1d:	90                   	nop
ffffffff80001c1e:	eb 01                	jmp    ffffffff80001c21 <sgr+0x444>
ffffffff80001c20:	90                   	nop
ffffffff80001c21:	48 8b 45 d8          	mov    -0x28(%rbp),%rax
ffffffff80001c25:	0f b6 40 11          	movzbl 0x11(%rax),%eax
ffffffff80001c29:	84 c0                	test   %al,%al
ffffffff80001c2b:	74 0f                	je     ffffffff80001c3c <sgr+0x45f>
ffffffff80001c2d:	48 8b 45 d8          	mov    -0x28(%rbp),%rax
ffffffff80001c31:	0f b6 40 13          	movzbl 0x13(%rax),%eax
ffffffff80001c35:	83 f0 01             	xor    $0x1,%eax
ffffffff80001c38:	84 c0                	test   %al,%al
ffffffff80001c3a:	75 18                	jne    ffffffff80001c54 <sgr+0x477>
ffffffff80001c3c:	48 8b 45 d8          	mov    -0x28(%rbp),%rax
ffffffff80001c40:	0f b6 40 12          	movzbl 0x12(%rax),%eax
ffffffff80001c44:	84 c0                	test   %al,%al
ffffffff80001c46:	74 41                	je     ffffffff80001c89 <sgr+0x4ac>
ffffffff80001c48:	48 8b 45 d8          	mov    -0x28(%rbp),%rax
ffffffff80001c4c:	0f b6 40 13          	movzbl 0x13(%rax),%eax
ffffffff80001c50:	84 c0                	test   %al,%al
ffffffff80001c52:	74 35                	je     ffffffff80001c89 <sgr+0x4ac>
ffffffff80001c54:	48 8b 45 d8          	mov    -0x28(%rbp),%rax
ffffffff80001c58:	48 8b 88 20 01 00 00 	mov    0x120(%rax),%rcx
ffffffff80001c5f:	48 8b 45 d8          	mov    -0x28(%rbp),%rax
ffffffff80001c63:	48 8b 55 f8          	mov    -0x8(%rbp),%rdx
ffffffff80001c67:	48 83 c2 1c          	add    $0x1c,%rdx
ffffffff80001c6b:	8b 44 90 08          	mov    0x8(%rax,%rdx,4),%eax
ffffffff80001c6f:	89 c0                	mov    %eax,%eax
ffffffff80001c71:	48 2b 45 f0          	sub    -0x10(%rbp),%rax
ffffffff80001c75:	48 89 c2             	mov    %rax,%rdx
ffffffff80001c78:	48 8b 45 d8          	mov    -0x28(%rbp),%rax
ffffffff80001c7c:	48 89 d6             	mov    %rdx,%rsi
ffffffff80001c7f:	48 89 c7             	mov    %rax,%rdi
ffffffff80001c82:	ff d1                	call   *%rcx
ffffffff80001c84:	e9 86 06 00 00       	jmp    ffffffff8000230f <sgr+0xb32>
ffffffff80001c89:	48 8b 45 d8          	mov    -0x28(%rbp),%rax
ffffffff80001c8d:	48 8b 88 10 01 00 00 	mov    0x110(%rax),%rcx
ffffffff80001c94:	48 8b 45 d8          	mov    -0x28(%rbp),%rax
ffffffff80001c98:	48 8b 55 f8          	mov    -0x8(%rbp),%rdx
ffffffff80001c9c:	48 83 c2 1c          	add    $0x1c,%rdx
ffffffff80001ca0:	8b 44 90 08          	mov    0x8(%rax,%rdx,4),%eax
ffffffff80001ca4:	89 c0                	mov    %eax,%eax
ffffffff80001ca6:	48 2b 45 f0          	sub    -0x10(%rbp),%rax
ffffffff80001caa:	48 89 c2             	mov    %rax,%rdx
ffffffff80001cad:	48 8b 45 d8          	mov    -0x28(%rbp),%rax
ffffffff80001cb1:	48 89 d6             	mov    %rdx,%rsi
ffffffff80001cb4:	48 89 c7             	mov    %rax,%rdi
ffffffff80001cb7:	ff d1                	call   *%rcx
ffffffff80001cb9:	e9 51 06 00 00       	jmp    ffffffff8000230f <sgr+0xb32>
ffffffff80001cbe:	48 8b 45 d8          	mov    -0x28(%rbp),%rax
ffffffff80001cc2:	48 8b 55 f8          	mov    -0x8(%rbp),%rdx
ffffffff80001cc6:	48 83 c2 1c          	add    $0x1c,%rdx
ffffffff80001cca:	8b 44 90 08          	mov    0x8(%rax,%rdx,4),%eax
ffffffff80001cce:	83 f8 27             	cmp    $0x27,%eax
ffffffff80001cd1:	0f 86 f2 00 00 00    	jbe    ffffffff80001dc9 <sgr+0x5ec>
ffffffff80001cd7:	48 8b 45 d8          	mov    -0x28(%rbp),%rax
ffffffff80001cdb:	48 8b 55 f8          	mov    -0x8(%rbp),%rdx
ffffffff80001cdf:	48 83 c2 1c          	add    $0x1c,%rdx
ffffffff80001ce3:	8b 44 90 08          	mov    0x8(%rax,%rdx,4),%eax
ffffffff80001ce7:	83 f8 2f             	cmp    $0x2f,%eax
ffffffff80001cea:	0f 87 d9 00 00 00    	ja     ffffffff80001dc9 <sgr+0x5ec>
ffffffff80001cf0:	48 c7 45 f0 28 00 00 	movq   $0x28,-0x10(%rbp)
ffffffff80001cf7:	00 
ffffffff80001cf8:	48 8b 45 d8          	mov    -0x28(%rbp),%rax
ffffffff80001cfc:	48 8b 55 f8          	mov    -0x8(%rbp),%rdx
ffffffff80001d00:	48 83 c2 1c          	add    $0x1c,%rdx
ffffffff80001d04:	8b 44 90 08          	mov    0x8(%rax,%rdx,4),%eax
ffffffff80001d08:	89 c0                	mov    %eax,%eax
ffffffff80001d0a:	48 2b 45 f0          	sub    -0x10(%rbp),%rax
ffffffff80001d0e:	48 89 c2             	mov    %rax,%rdx
ffffffff80001d11:	48 8b 45 d8          	mov    -0x28(%rbp),%rax
ffffffff80001d15:	48 89 50 60          	mov    %rdx,0x60(%rax)
ffffffff80001d19:	48 8b 45 d8          	mov    -0x28(%rbp),%rax
ffffffff80001d1d:	0f b6 40 13          	movzbl 0x13(%rax),%eax
ffffffff80001d21:	84 c0                	test   %al,%al
ffffffff80001d23:	0f 85 f7 fe ff ff    	jne    ffffffff80001c20 <sgr+0x443>
ffffffff80001d29:	eb 01                	jmp    ffffffff80001d2c <sgr+0x54f>
ffffffff80001d2b:	90                   	nop
ffffffff80001d2c:	48 8b 45 d8          	mov    -0x28(%rbp),%rax
ffffffff80001d30:	0f b6 40 11          	movzbl 0x11(%rax),%eax
ffffffff80001d34:	84 c0                	test   %al,%al
ffffffff80001d36:	74 0c                	je     ffffffff80001d44 <sgr+0x567>
ffffffff80001d38:	48 8b 45 d8          	mov    -0x28(%rbp),%rax
ffffffff80001d3c:	0f b6 40 13          	movzbl 0x13(%rax),%eax
ffffffff80001d40:	84 c0                	test   %al,%al
ffffffff80001d42:	75 1b                	jne    ffffffff80001d5f <sgr+0x582>
ffffffff80001d44:	48 8b 45 d8          	mov    -0x28(%rbp),%rax
ffffffff80001d48:	0f b6 40 12          	movzbl 0x12(%rax),%eax
ffffffff80001d4c:	84 c0                	test   %al,%al
ffffffff80001d4e:	74 44                	je     ffffffff80001d94 <sgr+0x5b7>
ffffffff80001d50:	48 8b 45 d8          	mov    -0x28(%rbp),%rax
ffffffff80001d54:	0f b6 40 13          	movzbl 0x13(%rax),%eax
ffffffff80001d58:	83 f0 01             	xor    $0x1,%eax
ffffffff80001d5b:	84 c0                	test   %al,%al
ffffffff80001d5d:	74 35                	je     ffffffff80001d94 <sgr+0x5b7>
ffffffff80001d5f:	48 8b 45 d8          	mov    -0x28(%rbp),%rax
ffffffff80001d63:	48 8b 88 28 01 00 00 	mov    0x128(%rax),%rcx
ffffffff80001d6a:	48 8b 45 d8          	mov    -0x28(%rbp),%rax
ffffffff80001d6e:	48 8b 55 f8          	mov    -0x8(%rbp),%rdx
ffffffff80001d72:	48 83 c2 1c          	add    $0x1c,%rdx
ffffffff80001d76:	8b 44 90 08          	mov    0x8(%rax,%rdx,4),%eax
ffffffff80001d7a:	89 c0                	mov    %eax,%eax
ffffffff80001d7c:	48 2b 45 f0          	sub    -0x10(%rbp),%rax
ffffffff80001d80:	48 89 c2             	mov    %rax,%rdx
ffffffff80001d83:	48 8b 45 d8          	mov    -0x28(%rbp),%rax
ffffffff80001d87:	48 89 d6             	mov    %rdx,%rsi
ffffffff80001d8a:	48 89 c7             	mov    %rax,%rdi
ffffffff80001d8d:	ff d1                	call   *%rcx
ffffffff80001d8f:	e9 7b 05 00 00       	jmp    ffffffff8000230f <sgr+0xb32>
ffffffff80001d94:	48 8b 45 d8          	mov    -0x28(%rbp),%rax
ffffffff80001d98:	48 8b 88 18 01 00 00 	mov    0x118(%rax),%rcx
ffffffff80001d9f:	48 8b 45 d8          	mov    -0x28(%rbp),%rax
ffffffff80001da3:	48 8b 55 f8          	mov    -0x8(%rbp),%rdx
ffffffff80001da7:	48 83 c2 1c          	add    $0x1c,%rdx
ffffffff80001dab:	8b 44 90 08          	mov    0x8(%rax,%rdx,4),%eax
ffffffff80001daf:	89 c0                	mov    %eax,%eax
ffffffff80001db1:	48 2b 45 f0          	sub    -0x10(%rbp),%rax
ffffffff80001db5:	48 89 c2             	mov    %rax,%rdx
ffffffff80001db8:	48 8b 45 d8          	mov    -0x28(%rbp),%rax
ffffffff80001dbc:	48 89 d6             	mov    %rdx,%rsi
ffffffff80001dbf:	48 89 c7             	mov    %rax,%rdi
ffffffff80001dc2:	ff d1                	call   *%rcx
ffffffff80001dc4:	e9 46 05 00 00       	jmp    ffffffff8000230f <sgr+0xb32>
ffffffff80001dc9:	48 8b 45 d8          	mov    -0x28(%rbp),%rax
ffffffff80001dcd:	48 8b 55 f8          	mov    -0x8(%rbp),%rdx
ffffffff80001dd1:	48 83 c2 1c          	add    $0x1c,%rdx
ffffffff80001dd5:	8b 44 90 08          	mov    0x8(%rax,%rdx,4),%eax
ffffffff80001dd9:	83 f8 59             	cmp    $0x59,%eax
ffffffff80001ddc:	0f 86 87 00 00 00    	jbe    ffffffff80001e69 <sgr+0x68c>
ffffffff80001de2:	48 8b 45 d8          	mov    -0x28(%rbp),%rax
ffffffff80001de6:	48 8b 55 f8          	mov    -0x8(%rbp),%rdx
ffffffff80001dea:	48 83 c2 1c          	add    $0x1c,%rdx
ffffffff80001dee:	8b 44 90 08          	mov    0x8(%rax,%rdx,4),%eax
ffffffff80001df2:	83 f8 61             	cmp    $0x61,%eax
ffffffff80001df5:	77 72                	ja     ffffffff80001e69 <sgr+0x68c>
ffffffff80001df7:	48 c7 45 f0 5a 00 00 	movq   $0x5a,-0x10(%rbp)
ffffffff80001dfe:	00 
ffffffff80001dff:	48 8b 45 d8          	mov    -0x28(%rbp),%rax
ffffffff80001e03:	48 8b 55 f8          	mov    -0x8(%rbp),%rdx
ffffffff80001e07:	48 83 c2 1c          	add    $0x1c,%rdx
ffffffff80001e0b:	8b 44 90 08          	mov    0x8(%rax,%rdx,4),%eax
ffffffff80001e0f:	89 c0                	mov    %eax,%eax
ffffffff80001e11:	48 2b 45 f0          	sub    -0x10(%rbp),%rax
ffffffff80001e15:	48 89 c2             	mov    %rax,%rdx
ffffffff80001e18:	48 8b 45 d8          	mov    -0x28(%rbp),%rax
ffffffff80001e1c:	48 89 50 58          	mov    %rdx,0x58(%rax)
ffffffff80001e20:	48 8b 45 d8          	mov    -0x28(%rbp),%rax
ffffffff80001e24:	0f b6 40 13          	movzbl 0x13(%rax),%eax
ffffffff80001e28:	84 c0                	test   %al,%al
ffffffff80001e2a:	0f 85 a2 00 00 00    	jne    ffffffff80001ed2 <sgr+0x6f5>
ffffffff80001e30:	90                   	nop
ffffffff80001e31:	eb 01                	jmp    ffffffff80001e34 <sgr+0x657>
ffffffff80001e33:	90                   	nop
ffffffff80001e34:	48 8b 45 d8          	mov    -0x28(%rbp),%rax
ffffffff80001e38:	48 8b 88 20 01 00 00 	mov    0x120(%rax),%rcx
ffffffff80001e3f:	48 8b 45 d8          	mov    -0x28(%rbp),%rax
ffffffff80001e43:	48 8b 55 f8          	mov    -0x8(%rbp),%rdx
ffffffff80001e47:	48 83 c2 1c          	add    $0x1c,%rdx
ffffffff80001e4b:	8b 44 90 08          	mov    0x8(%rax,%rdx,4),%eax
ffffffff80001e4f:	89 c0                	mov    %eax,%eax
ffffffff80001e51:	48 2b 45 f0          	sub    -0x10(%rbp),%rax
ffffffff80001e55:	48 89 c2             	mov    %rax,%rdx
ffffffff80001e58:	48 8b 45 d8          	mov    -0x28(%rbp),%rax
ffffffff80001e5c:	48 89 d6             	mov    %rdx,%rsi
ffffffff80001e5f:	48 89 c7             	mov    %rax,%rdi
ffffffff80001e62:	ff d1                	call   *%rcx
ffffffff80001e64:	e9 a6 04 00 00       	jmp    ffffffff8000230f <sgr+0xb32>
ffffffff80001e69:	48 8b 45 d8          	mov    -0x28(%rbp),%rax
ffffffff80001e6d:	48 8b 55 f8          	mov    -0x8(%rbp),%rdx
ffffffff80001e71:	48 83 c2 1c          	add    $0x1c,%rdx
ffffffff80001e75:	8b 44 90 08          	mov    0x8(%rax,%rdx,4),%eax
ffffffff80001e79:	83 f8 63             	cmp    $0x63,%eax
ffffffff80001e7c:	0f 86 86 00 00 00    	jbe    ffffffff80001f08 <sgr+0x72b>
ffffffff80001e82:	48 8b 45 d8          	mov    -0x28(%rbp),%rax
ffffffff80001e86:	48 8b 55 f8          	mov    -0x8(%rbp),%rdx
ffffffff80001e8a:	48 83 c2 1c          	add    $0x1c,%rdx
ffffffff80001e8e:	8b 44 90 08          	mov    0x8(%rax,%rdx,4),%eax
ffffffff80001e92:	83 f8 6b             	cmp    $0x6b,%eax
ffffffff80001e95:	77 71                	ja     ffffffff80001f08 <sgr+0x72b>
ffffffff80001e97:	48 c7 45 f0 64 00 00 	movq   $0x64,-0x10(%rbp)
ffffffff80001e9e:	00 
ffffffff80001e9f:	48 8b 45 d8          	mov    -0x28(%rbp),%rax
ffffffff80001ea3:	48 8b 55 f8          	mov    -0x8(%rbp),%rdx
ffffffff80001ea7:	48 83 c2 1c          	add    $0x1c,%rdx
ffffffff80001eab:	8b 44 90 08          	mov    0x8(%rax,%rdx,4),%eax
ffffffff80001eaf:	89 c0                	mov    %eax,%eax
ffffffff80001eb1:	48 2b 45 f0          	sub    -0x10(%rbp),%rax
ffffffff80001eb5:	48 89 c2             	mov    %rax,%rdx
ffffffff80001eb8:	48 8b 45 d8          	mov    -0x28(%rbp),%rax
ffffffff80001ebc:	48 89 50 60          	mov    %rdx,0x60(%rax)
ffffffff80001ec0:	48 8b 45 d8          	mov    -0x28(%rbp),%rax
ffffffff80001ec4:	0f b6 40 13          	movzbl 0x13(%rax),%eax
ffffffff80001ec8:	84 c0                	test   %al,%al
ffffffff80001eca:	0f 85 63 ff ff ff    	jne    ffffffff80001e33 <sgr+0x656>
ffffffff80001ed0:	eb 01                	jmp    ffffffff80001ed3 <sgr+0x6f6>
ffffffff80001ed2:	90                   	nop
ffffffff80001ed3:	48 8b 45 d8          	mov    -0x28(%rbp),%rax
ffffffff80001ed7:	48 8b 88 28 01 00 00 	mov    0x128(%rax),%rcx
ffffffff80001ede:	48 8b 45 d8          	mov    -0x28(%rbp),%rax
ffffffff80001ee2:	48 8b 55 f8          	mov    -0x8(%rbp),%rdx
ffffffff80001ee6:	48 83 c2 1c          	add    $0x1c,%rdx
ffffffff80001eea:	8b 44 90 08          	mov    0x8(%rax,%rdx,4),%eax
ffffffff80001eee:	89 c0                	mov    %eax,%eax
ffffffff80001ef0:	48 2b 45 f0          	sub    -0x10(%rbp),%rax
ffffffff80001ef4:	48 89 c2             	mov    %rax,%rdx
ffffffff80001ef7:	48 8b 45 d8          	mov    -0x28(%rbp),%rax
ffffffff80001efb:	48 89 d6             	mov    %rdx,%rsi
ffffffff80001efe:	48 89 c7             	mov    %rax,%rdi
ffffffff80001f01:	ff d1                	call   *%rcx
ffffffff80001f03:	e9 07 04 00 00       	jmp    ffffffff8000230f <sgr+0xb32>
ffffffff80001f08:	48 8b 45 d8          	mov    -0x28(%rbp),%rax
ffffffff80001f0c:	48 8b 55 f8          	mov    -0x8(%rbp),%rdx
ffffffff80001f10:	48 83 c2 1c          	add    $0x1c,%rdx
ffffffff80001f14:	8b 44 90 08          	mov    0x8(%rax,%rdx,4),%eax
ffffffff80001f18:	83 f8 27             	cmp    $0x27,%eax
ffffffff80001f1b:	0f 85 8e 00 00 00    	jne    ffffffff80001faf <sgr+0x7d2>
ffffffff80001f21:	48 8b 45 d8          	mov    -0x28(%rbp),%rax
ffffffff80001f25:	48 c7 40 58 ff ff ff 	movq   $0xffffffffffffffff,0x58(%rax)
ffffffff80001f2c:	ff 
ffffffff80001f2d:	48 8b 45 d8          	mov    -0x28(%rbp),%rax
ffffffff80001f31:	0f b6 40 13          	movzbl 0x13(%rax),%eax
ffffffff80001f35:	84 c0                	test   %al,%al
ffffffff80001f37:	74 14                	je     ffffffff80001f4d <sgr+0x770>
ffffffff80001f39:	48 8b 45 d8          	mov    -0x28(%rbp),%rax
ffffffff80001f3d:	48 8b 90 78 01 00 00 	mov    0x178(%rax),%rdx
ffffffff80001f44:	48 8b 45 d8          	mov    -0x28(%rbp),%rax
ffffffff80001f48:	48 89 c7             	mov    %rax,%rdi
ffffffff80001f4b:	ff d2                	call   *%rdx
ffffffff80001f4d:	48 8b 45 d8          	mov    -0x28(%rbp),%rax
ffffffff80001f51:	0f b6 40 11          	movzbl 0x11(%rax),%eax
ffffffff80001f55:	83 f0 01             	xor    $0x1,%eax
ffffffff80001f58:	84 c0                	test   %al,%al
ffffffff80001f5a:	74 16                	je     ffffffff80001f72 <sgr+0x795>
ffffffff80001f5c:	48 8b 45 d8          	mov    -0x28(%rbp),%rax
ffffffff80001f60:	48 8b 90 40 01 00 00 	mov    0x140(%rax),%rdx
ffffffff80001f67:	48 8b 45 d8          	mov    -0x28(%rbp),%rax
ffffffff80001f6b:	48 89 c7             	mov    %rax,%rdi
ffffffff80001f6e:	ff d2                	call   *%rdx
ffffffff80001f70:	eb 14                	jmp    ffffffff80001f86 <sgr+0x7a9>
ffffffff80001f72:	48 8b 45 d8          	mov    -0x28(%rbp),%rax
ffffffff80001f76:	48 8b 90 50 01 00 00 	mov    0x150(%rax),%rdx
ffffffff80001f7d:	48 8b 45 d8          	mov    -0x28(%rbp),%rax
ffffffff80001f81:	48 89 c7             	mov    %rax,%rdi
ffffffff80001f84:	ff d2                	call   *%rdx
ffffffff80001f86:	48 8b 45 d8          	mov    -0x28(%rbp),%rax
ffffffff80001f8a:	0f b6 40 13          	movzbl 0x13(%rax),%eax
ffffffff80001f8e:	84 c0                	test   %al,%al
ffffffff80001f90:	0f 84 6c 03 00 00    	je     ffffffff80002302 <sgr+0xb25>
ffffffff80001f96:	48 8b 45 d8          	mov    -0x28(%rbp),%rax
ffffffff80001f9a:	48 8b 90 78 01 00 00 	mov    0x178(%rax),%rdx
ffffffff80001fa1:	48 8b 45 d8          	mov    -0x28(%rbp),%rax
ffffffff80001fa5:	48 89 c7             	mov    %rax,%rdi
ffffffff80001fa8:	ff d2                	call   *%rdx
ffffffff80001faa:	e9 53 03 00 00       	jmp    ffffffff80002302 <sgr+0xb25>
ffffffff80001faf:	48 8b 45 d8          	mov    -0x28(%rbp),%rax
ffffffff80001fb3:	48 8b 55 f8          	mov    -0x8(%rbp),%rdx
ffffffff80001fb7:	48 83 c2 1c          	add    $0x1c,%rdx
ffffffff80001fbb:	8b 44 90 08          	mov    0x8(%rax,%rdx,4),%eax
ffffffff80001fbf:	83 f8 31             	cmp    $0x31,%eax
ffffffff80001fc2:	0f 85 8e 00 00 00    	jne    ffffffff80002056 <sgr+0x879>
ffffffff80001fc8:	48 8b 45 d8          	mov    -0x28(%rbp),%rax
ffffffff80001fcc:	48 c7 40 60 ff ff ff 	movq   $0xffffffffffffffff,0x60(%rax)
ffffffff80001fd3:	ff 
ffffffff80001fd4:	48 8b 45 d8          	mov    -0x28(%rbp),%rax
ffffffff80001fd8:	0f b6 40 13          	movzbl 0x13(%rax),%eax
ffffffff80001fdc:	84 c0                	test   %al,%al
ffffffff80001fde:	74 14                	je     ffffffff80001ff4 <sgr+0x817>
ffffffff80001fe0:	48 8b 45 d8          	mov    -0x28(%rbp),%rax
ffffffff80001fe4:	48 8b 90 78 01 00 00 	mov    0x178(%rax),%rdx
ffffffff80001feb:	48 8b 45 d8          	mov    -0x28(%rbp),%rax
ffffffff80001fef:	48 89 c7             	mov    %rax,%rdi
ffffffff80001ff2:	ff d2                	call   *%rdx
ffffffff80001ff4:	48 8b 45 d8          	mov    -0x28(%rbp),%rax
ffffffff80001ff8:	0f b6 40 12          	movzbl 0x12(%rax),%eax
ffffffff80001ffc:	83 f0 01             	xor    $0x1,%eax
ffffffff80001fff:	84 c0                	test   %al,%al
ffffffff80002001:	74 16                	je     ffffffff80002019 <sgr+0x83c>
ffffffff80002003:	48 8b 45 d8          	mov    -0x28(%rbp),%rax
ffffffff80002007:	48 8b 90 48 01 00 00 	mov    0x148(%rax),%rdx
ffffffff8000200e:	48 8b 45 d8          	mov    -0x28(%rbp),%rax
ffffffff80002012:	48 89 c7             	mov    %rax,%rdi
ffffffff80002015:	ff d2                	call   *%rdx
ffffffff80002017:	eb 14                	jmp    ffffffff8000202d <sgr+0x850>
ffffffff80002019:	48 8b 45 d8          	mov    -0x28(%rbp),%rax
ffffffff8000201d:	48 8b 90 58 01 00 00 	mov    0x158(%rax),%rdx
ffffffff80002024:	48 8b 45 d8          	mov    -0x28(%rbp),%rax
ffffffff80002028:	48 89 c7             	mov    %rax,%rdi
ffffffff8000202b:	ff d2                	call   *%rdx
ffffffff8000202d:	48 8b 45 d8          	mov    -0x28(%rbp),%rax
ffffffff80002031:	0f b6 40 13          	movzbl 0x13(%rax),%eax
ffffffff80002035:	84 c0                	test   %al,%al
ffffffff80002037:	0f 84 c8 02 00 00    	je     ffffffff80002305 <sgr+0xb28>
ffffffff8000203d:	48 8b 45 d8          	mov    -0x28(%rbp),%rax
ffffffff80002041:	48 8b 90 78 01 00 00 	mov    0x178(%rax),%rdx
ffffffff80002048:	48 8b 45 d8          	mov    -0x28(%rbp),%rax
ffffffff8000204c:	48 89 c7             	mov    %rax,%rdi
ffffffff8000204f:	ff d2                	call   *%rdx
ffffffff80002051:	e9 af 02 00 00       	jmp    ffffffff80002305 <sgr+0xb28>
ffffffff80002056:	48 8b 45 d8          	mov    -0x28(%rbp),%rax
ffffffff8000205a:	48 8b 55 f8          	mov    -0x8(%rbp),%rdx
ffffffff8000205e:	48 83 c2 1c          	add    $0x1c,%rdx
ffffffff80002062:	8b 44 90 08          	mov    0x8(%rax,%rdx,4),%eax
ffffffff80002066:	83 f8 07             	cmp    $0x7,%eax
ffffffff80002069:	75 34                	jne    ffffffff8000209f <sgr+0x8c2>
ffffffff8000206b:	48 8b 45 d8          	mov    -0x28(%rbp),%rax
ffffffff8000206f:	0f b6 40 13          	movzbl 0x13(%rax),%eax
ffffffff80002073:	83 f0 01             	xor    $0x1,%eax
ffffffff80002076:	84 c0                	test   %al,%al
ffffffff80002078:	0f 84 8a 02 00 00    	je     ffffffff80002308 <sgr+0xb2b>
ffffffff8000207e:	48 8b 45 d8          	mov    -0x28(%rbp),%rax
ffffffff80002082:	c6 40 13 01          	movb   $0x1,0x13(%rax)
ffffffff80002086:	48 8b 45 d8          	mov    -0x28(%rbp),%rax
ffffffff8000208a:	48 8b 90 78 01 00 00 	mov    0x178(%rax),%rdx
ffffffff80002091:	48 8b 45 d8          	mov    -0x28(%rbp),%rax
ffffffff80002095:	48 89 c7             	mov    %rax,%rdi
ffffffff80002098:	ff d2                	call   *%rdx
ffffffff8000209a:	e9 69 02 00 00       	jmp    ffffffff80002308 <sgr+0xb2b>
ffffffff8000209f:	48 8b 45 d8          	mov    -0x28(%rbp),%rax
ffffffff800020a3:	48 8b 55 f8          	mov    -0x8(%rbp),%rdx
ffffffff800020a7:	48 83 c2 1c          	add    $0x1c,%rdx
ffffffff800020ab:	8b 44 90 08          	mov    0x8(%rax,%rdx,4),%eax
ffffffff800020af:	83 f8 1b             	cmp    $0x1b,%eax
ffffffff800020b2:	75 31                	jne    ffffffff800020e5 <sgr+0x908>
ffffffff800020b4:	48 8b 45 d8          	mov    -0x28(%rbp),%rax
ffffffff800020b8:	0f b6 40 13          	movzbl 0x13(%rax),%eax
ffffffff800020bc:	84 c0                	test   %al,%al
ffffffff800020be:	0f 84 47 02 00 00    	je     ffffffff8000230b <sgr+0xb2e>
ffffffff800020c4:	48 8b 45 d8          	mov    -0x28(%rbp),%rax
ffffffff800020c8:	c6 40 13 00          	movb   $0x0,0x13(%rax)
ffffffff800020cc:	48 8b 45 d8          	mov    -0x28(%rbp),%rax
ffffffff800020d0:	48 8b 90 78 01 00 00 	mov    0x178(%rax),%rdx
ffffffff800020d7:	48 8b 45 d8          	mov    -0x28(%rbp),%rax
ffffffff800020db:	48 89 c7             	mov    %rax,%rdi
ffffffff800020de:	ff d2                	call   *%rdx
ffffffff800020e0:	e9 26 02 00 00       	jmp    ffffffff8000230b <sgr+0xb2e>
ffffffff800020e5:	48 8b 45 d8          	mov    -0x28(%rbp),%rax
ffffffff800020e9:	48 8b 55 f8          	mov    -0x8(%rbp),%rdx
ffffffff800020ed:	48 83 c2 1c          	add    $0x1c,%rdx
ffffffff800020f1:	8b 44 90 08          	mov    0x8(%rax,%rdx,4),%eax
ffffffff800020f5:	83 f8 26             	cmp    $0x26,%eax
ffffffff800020f8:	74 19                	je     ffffffff80002113 <sgr+0x936>
ffffffff800020fa:	48 8b 45 d8          	mov    -0x28(%rbp),%rax
ffffffff800020fe:	48 8b 55 f8          	mov    -0x8(%rbp),%rdx
ffffffff80002102:	48 83 c2 1c          	add    $0x1c,%rdx
ffffffff80002106:	8b 44 90 08          	mov    0x8(%rax,%rdx,4),%eax
ffffffff8000210a:	83 f8 30             	cmp    $0x30,%eax
ffffffff8000210d:	0f 85 fc 01 00 00    	jne    ffffffff8000230f <sgr+0xb32>
ffffffff80002113:	48 8b 45 d8          	mov    -0x28(%rbp),%rax
ffffffff80002117:	48 8b 55 f8          	mov    -0x8(%rbp),%rdx
ffffffff8000211b:	48 83 c2 1c          	add    $0x1c,%rdx
ffffffff8000211f:	8b 44 90 08          	mov    0x8(%rax,%rdx,4),%eax
ffffffff80002123:	83 f8 26             	cmp    $0x26,%eax
ffffffff80002126:	0f 94 c0             	sete   %al
ffffffff80002129:	88 45 ef             	mov    %al,-0x11(%rbp)
ffffffff8000212c:	48 83 45 f8 01       	addq   $0x1,-0x8(%rbp)
ffffffff80002131:	48 8b 45 d8          	mov    -0x28(%rbp),%rax
ffffffff80002135:	48 8b 40 40          	mov    0x40(%rax),%rax
ffffffff80002139:	48 39 45 f8          	cmp    %rax,-0x8(%rbp)
ffffffff8000213d:	0f 83 e8 01 00 00    	jae    ffffffff8000232b <sgr+0xb4e>
ffffffff80002143:	48 8b 45 d8          	mov    -0x28(%rbp),%rax
ffffffff80002147:	48 8b 55 f8          	mov    -0x8(%rbp),%rdx
ffffffff8000214b:	48 83 c2 1c          	add    $0x1c,%rdx
ffffffff8000214f:	8b 44 90 08          	mov    0x8(%rax,%rdx,4),%eax
ffffffff80002153:	83 f8 02             	cmp    $0x2,%eax
ffffffff80002156:	74 0e                	je     ffffffff80002166 <sgr+0x989>
ffffffff80002158:	83 f8 05             	cmp    $0x5,%eax
ffffffff8000215b:	0f 84 a6 00 00 00    	je     ffffffff80002207 <sgr+0xa2a>
ffffffff80002161:	e9 a9 01 00 00       	jmp    ffffffff8000230f <sgr+0xb32>
ffffffff80002166:	48 8b 45 f8          	mov    -0x8(%rbp),%rax
ffffffff8000216a:	48 8d 50 03          	lea    0x3(%rax),%rdx
ffffffff8000216e:	48 8b 45 d8          	mov    -0x28(%rbp),%rax
ffffffff80002172:	48 8b 40 40          	mov    0x40(%rax),%rax
ffffffff80002176:	48 39 c2             	cmp    %rax,%rdx
ffffffff80002179:	0f 83 af 01 00 00    	jae    ffffffff8000232e <sgr+0xb51>
ffffffff8000217f:	c7 45 e0 00 00 00 00 	movl   $0x0,-0x20(%rbp)
ffffffff80002186:	48 8b 45 f8          	mov    -0x8(%rbp),%rax
ffffffff8000218a:	48 8d 50 01          	lea    0x1(%rax),%rdx
ffffffff8000218e:	48 8b 45 d8          	mov    -0x28(%rbp),%rax
ffffffff80002192:	48 83 c2 1c          	add    $0x1c,%rdx
ffffffff80002196:	8b 44 90 08          	mov    0x8(%rax,%rdx,4),%eax
ffffffff8000219a:	c1 e0 10             	shl    $0x10,%eax
ffffffff8000219d:	09 45 e0             	or     %eax,-0x20(%rbp)
ffffffff800021a0:	48 8b 45 f8          	mov    -0x8(%rbp),%rax
ffffffff800021a4:	48 8d 50 02          	lea    0x2(%rax),%rdx
ffffffff800021a8:	48 8b 45 d8          	mov    -0x28(%rbp),%rax
ffffffff800021ac:	48 83 c2 1c          	add    $0x1c,%rdx
ffffffff800021b0:	8b 44 90 08          	mov    0x8(%rax,%rdx,4),%eax
ffffffff800021b4:	c1 e0 08             	shl    $0x8,%eax
ffffffff800021b7:	09 45 e0             	or     %eax,-0x20(%rbp)
ffffffff800021ba:	48 8b 45 f8          	mov    -0x8(%rbp),%rax
ffffffff800021be:	48 8d 50 03          	lea    0x3(%rax),%rdx
ffffffff800021c2:	48 8b 45 d8          	mov    -0x28(%rbp),%rax
ffffffff800021c6:	48 83 c2 1c          	add    $0x1c,%rdx
ffffffff800021ca:	8b 44 90 08          	mov    0x8(%rax,%rdx,4),%eax
ffffffff800021ce:	09 45 e0             	or     %eax,-0x20(%rbp)
ffffffff800021d1:	48 83 45 f8 03       	addq   $0x3,-0x8(%rbp)
ffffffff800021d6:	80 7d ef 00          	cmpb   $0x0,-0x11(%rbp)
ffffffff800021da:	74 0d                	je     ffffffff800021e9 <sgr+0xa0c>
ffffffff800021dc:	48 8b 45 d8          	mov    -0x28(%rbp),%rax
ffffffff800021e0:	48 8b 80 30 01 00 00 	mov    0x130(%rax),%rax
ffffffff800021e7:	eb 0b                	jmp    ffffffff800021f4 <sgr+0xa17>
ffffffff800021e9:	48 8b 45 d8          	mov    -0x28(%rbp),%rax
ffffffff800021ed:	48 8b 80 38 01 00 00 	mov    0x138(%rax),%rax
ffffffff800021f4:	8b 4d e0             	mov    -0x20(%rbp),%ecx
ffffffff800021f7:	48 8b 55 d8          	mov    -0x28(%rbp),%rdx
ffffffff800021fb:	89 ce                	mov    %ecx,%esi
ffffffff800021fd:	48 89 d7             	mov    %rdx,%rdi
ffffffff80002200:	ff d0                	call   *%rax
ffffffff80002202:	e9 08 01 00 00       	jmp    ffffffff8000230f <sgr+0xb32>
ffffffff80002207:	48 8b 45 f8          	mov    -0x8(%rbp),%rax
ffffffff8000220b:	48 8d 50 01          	lea    0x1(%rax),%rdx
ffffffff8000220f:	48 8b 45 d8          	mov    -0x28(%rbp),%rax
ffffffff80002213:	48 8b 40 40          	mov    0x40(%rax),%rax
ffffffff80002217:	48 39 c2             	cmp    %rax,%rdx
ffffffff8000221a:	0f 83 11 01 00 00    	jae    ffffffff80002331 <sgr+0xb54>
ffffffff80002220:	48 8b 45 f8          	mov    -0x8(%rbp),%rax
ffffffff80002224:	48 8d 50 01          	lea    0x1(%rax),%rdx
ffffffff80002228:	48 8b 45 d8          	mov    -0x28(%rbp),%rax
ffffffff8000222c:	48 83 c2 1c          	add    $0x1c,%rdx
ffffffff80002230:	8b 44 90 08          	mov    0x8(%rax,%rdx,4),%eax
ffffffff80002234:	89 45 e8             	mov    %eax,-0x18(%rbp)
ffffffff80002237:	48 83 45 f8 01       	addq   $0x1,-0x8(%rbp)
ffffffff8000223c:	83 7d e8 07          	cmpl   $0x7,-0x18(%rbp)
ffffffff80002240:	77 32                	ja     ffffffff80002274 <sgr+0xa97>
ffffffff80002242:	80 7d ef 00          	cmpb   $0x0,-0x11(%rbp)
ffffffff80002246:	74 0d                	je     ffffffff80002255 <sgr+0xa78>
ffffffff80002248:	48 8b 45 d8          	mov    -0x28(%rbp),%rax
ffffffff8000224c:	48 8b 80 10 01 00 00 	mov    0x110(%rax),%rax
ffffffff80002253:	eb 0b                	jmp    ffffffff80002260 <sgr+0xa83>
ffffffff80002255:	48 8b 45 d8          	mov    -0x28(%rbp),%rax
ffffffff80002259:	48 8b 80 18 01 00 00 	mov    0x118(%rax),%rax
ffffffff80002260:	8b 4d e8             	mov    -0x18(%rbp),%ecx
ffffffff80002263:	48 8b 55 d8          	mov    -0x28(%rbp),%rdx
ffffffff80002267:	48 89 ce             	mov    %rcx,%rsi
ffffffff8000226a:	48 89 d7             	mov    %rdx,%rdi
ffffffff8000226d:	ff d0                	call   *%rax
ffffffff8000226f:	e9 9a 00 00 00       	jmp    ffffffff8000230e <sgr+0xb31>
ffffffff80002274:	83 7d e8 0f          	cmpl   $0xf,-0x18(%rbp)
ffffffff80002278:	77 34                	ja     ffffffff800022ae <sgr+0xad1>
ffffffff8000227a:	80 7d ef 00          	cmpb   $0x0,-0x11(%rbp)
ffffffff8000227e:	74 0d                	je     ffffffff8000228d <sgr+0xab0>
ffffffff80002280:	48 8b 45 d8          	mov    -0x28(%rbp),%rax
ffffffff80002284:	48 8b 80 20 01 00 00 	mov    0x120(%rax),%rax
ffffffff8000228b:	eb 0b                	jmp    ffffffff80002298 <sgr+0xabb>
ffffffff8000228d:	48 8b 45 d8          	mov    -0x28(%rbp),%rax
ffffffff80002291:	48 8b 80 28 01 00 00 	mov    0x128(%rax),%rax
ffffffff80002298:	8b 55 e8             	mov    -0x18(%rbp),%edx
ffffffff8000229b:	83 ea 08             	sub    $0x8,%edx
ffffffff8000229e:	89 d1                	mov    %edx,%ecx
ffffffff800022a0:	48 8b 55 d8          	mov    -0x28(%rbp),%rdx
ffffffff800022a4:	48 89 ce             	mov    %rcx,%rsi
ffffffff800022a7:	48 89 d7             	mov    %rdx,%rdi
ffffffff800022aa:	ff d0                	call   *%rax
ffffffff800022ac:	eb 60                	jmp    ffffffff8000230e <sgr+0xb31>
ffffffff800022ae:	81 7d e8 ff 00 00 00 	cmpl   $0xff,-0x18(%rbp)
ffffffff800022b5:	77 57                	ja     ffffffff8000230e <sgr+0xb31>
ffffffff800022b7:	8b 45 e8             	mov    -0x18(%rbp),%eax
ffffffff800022ba:	83 e8 10             	sub    $0x10,%eax
ffffffff800022bd:	89 c0                	mov    %eax,%eax
ffffffff800022bf:	48 8d 14 85 00 00 00 	lea    0x0(,%rax,4),%rdx
ffffffff800022c6:	00 
ffffffff800022c7:	48 8d 05 32 a7 00 00 	lea    0xa732(%rip),%rax        # ffffffff8000ca00 <col256>
ffffffff800022ce:	8b 04 02             	mov    (%rdx,%rax,1),%eax
ffffffff800022d1:	89 45 e4             	mov    %eax,-0x1c(%rbp)
ffffffff800022d4:	80 7d ef 00          	cmpb   $0x0,-0x11(%rbp)
ffffffff800022d8:	74 0d                	je     ffffffff800022e7 <sgr+0xb0a>
ffffffff800022da:	48 8b 45 d8          	mov    -0x28(%rbp),%rax
ffffffff800022de:	48 8b 80 30 01 00 00 	mov    0x130(%rax),%rax
ffffffff800022e5:	eb 0b                	jmp    ffffffff800022f2 <sgr+0xb15>
ffffffff800022e7:	48 8b 45 d8          	mov    -0x28(%rbp),%rax
ffffffff800022eb:	48 8b 80 38 01 00 00 	mov    0x138(%rax),%rax
ffffffff800022f2:	8b 4d e4             	mov    -0x1c(%rbp),%ecx
ffffffff800022f5:	48 8b 55 d8          	mov    -0x28(%rbp),%rdx
ffffffff800022f9:	89 ce                	mov    %ecx,%esi
ffffffff800022fb:	48 89 d7             	mov    %rdx,%rdi
ffffffff800022fe:	ff d0                	call   *%rax
ffffffff80002300:	eb 0c                	jmp    ffffffff8000230e <sgr+0xb31>
ffffffff80002302:	90                   	nop
ffffffff80002303:	eb 0a                	jmp    ffffffff8000230f <sgr+0xb32>
ffffffff80002305:	90                   	nop
ffffffff80002306:	eb 07                	jmp    ffffffff8000230f <sgr+0xb32>
ffffffff80002308:	90                   	nop
ffffffff80002309:	eb 04                	jmp    ffffffff8000230f <sgr+0xb32>
ffffffff8000230b:	90                   	nop
ffffffff8000230c:	eb 01                	jmp    ffffffff8000230f <sgr+0xb32>
ffffffff8000230e:	90                   	nop
ffffffff8000230f:	48 83 45 f8 01       	addq   $0x1,-0x8(%rbp)
ffffffff80002314:	eb 01                	jmp    ffffffff80002317 <sgr+0xb3a>
ffffffff80002316:	90                   	nop
ffffffff80002317:	48 8b 45 d8          	mov    -0x28(%rbp),%rax
ffffffff8000231b:	48 8b 40 40          	mov    0x40(%rax),%rax
ffffffff8000231f:	48 39 45 f8          	cmp    %rax,-0x8(%rbp)
ffffffff80002323:	0f 82 db f4 ff ff    	jb     ffffffff80001804 <sgr+0x27>
ffffffff80002329:	eb 07                	jmp    ffffffff80002332 <sgr+0xb55>
ffffffff8000232b:	90                   	nop
ffffffff8000232c:	eb 04                	jmp    ffffffff80002332 <sgr+0xb55>
ffffffff8000232e:	90                   	nop
ffffffff8000232f:	eb 01                	jmp    ffffffff80002332 <sgr+0xb55>
ffffffff80002331:	90                   	nop
ffffffff80002332:	90                   	nop
ffffffff80002333:	c9                   	leave
ffffffff80002334:	c3                   	ret

ffffffff80002335 <dec_private_parse>:
ffffffff80002335:	55                   	push   %rbp
ffffffff80002336:	48 89 e5             	mov    %rsp,%rbp
ffffffff80002339:	48 83 ec 20          	sub    $0x20,%rsp
ffffffff8000233d:	48 89 7d e8          	mov    %rdi,-0x18(%rbp)
ffffffff80002341:	89 f0                	mov    %esi,%eax
ffffffff80002343:	88 45 e4             	mov    %al,-0x1c(%rbp)
ffffffff80002346:	48 8b 45 e8          	mov    -0x18(%rbp),%rax
ffffffff8000234a:	c6 40 14 00          	movb   $0x0,0x14(%rax)
ffffffff8000234e:	48 8b 45 e8          	mov    -0x18(%rbp),%rax
ffffffff80002352:	48 8b 40 40          	mov    0x40(%rax),%rax
ffffffff80002356:	48 85 c0             	test   %rax,%rax
ffffffff80002359:	0f 84 8a 00 00 00    	je     ffffffff800023e9 <dec_private_parse+0xb4>
ffffffff8000235f:	0f b6 45 e4          	movzbl -0x1c(%rbp),%eax
ffffffff80002363:	83 f8 68             	cmp    $0x68,%eax
ffffffff80002366:	74 07                	je     ffffffff8000236f <dec_private_parse+0x3a>
ffffffff80002368:	83 f8 6c             	cmp    $0x6c,%eax
ffffffff8000236b:	74 08                	je     ffffffff80002375 <dec_private_parse+0x40>
ffffffff8000236d:	eb 7b                	jmp    ffffffff800023ea <dec_private_parse+0xb5>
ffffffff8000236f:	c6 45 ff 01          	movb   $0x1,-0x1(%rbp)
ffffffff80002373:	eb 05                	jmp    ffffffff8000237a <dec_private_parse+0x45>
ffffffff80002375:	c6 45 ff 00          	movb   $0x0,-0x1(%rbp)
ffffffff80002379:	90                   	nop
ffffffff8000237a:	48 8b 45 e8          	mov    -0x18(%rbp),%rax
ffffffff8000237e:	8b 40 78             	mov    0x78(%rax),%eax
ffffffff80002381:	83 f8 19             	cmp    $0x19,%eax
ffffffff80002384:	75 1a                	jne    ffffffff800023a0 <dec_private_parse+0x6b>
ffffffff80002386:	80 7d ff 00          	cmpb   $0x0,-0x1(%rbp)
ffffffff8000238a:	74 0a                	je     ffffffff80002396 <dec_private_parse+0x61>
ffffffff8000238c:	48 8b 45 e8          	mov    -0x18(%rbp),%rax
ffffffff80002390:	c6 40 09 01          	movb   $0x1,0x9(%rax)
ffffffff80002394:	eb 54                	jmp    ffffffff800023ea <dec_private_parse+0xb5>
ffffffff80002396:	48 8b 45 e8          	mov    -0x18(%rbp),%rax
ffffffff8000239a:	c6 40 09 00          	movb   $0x0,0x9(%rax)
ffffffff8000239e:	eb 4a                	jmp    ffffffff800023ea <dec_private_parse+0xb5>
ffffffff800023a0:	48 8b 45 e8          	mov    -0x18(%rbp),%rax
ffffffff800023a4:	48 8b 80 a8 01 00 00 	mov    0x1a8(%rax),%rax
ffffffff800023ab:	48 85 c0             	test   %rax,%rax
ffffffff800023ae:	74 3a                	je     ffffffff800023ea <dec_private_parse+0xb5>
ffffffff800023b0:	48 8b 45 e8          	mov    -0x18(%rbp),%rax
ffffffff800023b4:	4c 8b 88 a8 01 00 00 	mov    0x1a8(%rax),%r9
ffffffff800023bb:	0f b6 4d e4          	movzbl -0x1c(%rbp),%ecx
ffffffff800023bf:	48 8b 45 e8          	mov    -0x18(%rbp),%rax
ffffffff800023c3:	48 83 c0 78          	add    $0x78,%rax
ffffffff800023c7:	48 89 c6             	mov    %rax,%rsi
ffffffff800023ca:	48 8b 45 e8          	mov    -0x18(%rbp),%rax
ffffffff800023ce:	48 8b 50 40          	mov    0x40(%rax),%rdx
ffffffff800023d2:	48 8b 45 e8          	mov    -0x18(%rbp),%rax
ffffffff800023d6:	49 89 c8             	mov    %rcx,%r8
ffffffff800023d9:	48 89 f1             	mov    %rsi,%rcx
ffffffff800023dc:	be 0a 00 00 00       	mov    $0xa,%esi
ffffffff800023e1:	48 89 c7             	mov    %rax,%rdi
ffffffff800023e4:	41 ff d1             	call   *%r9
ffffffff800023e7:	eb 01                	jmp    ffffffff800023ea <dec_private_parse+0xb5>
ffffffff800023e9:	90                   	nop
ffffffff800023ea:	c9                   	leave
ffffffff800023eb:	c3                   	ret

ffffffff800023ec <linux_private_parse>:
ffffffff800023ec:	55                   	push   %rbp
ffffffff800023ed:	48 89 e5             	mov    %rsp,%rbp
ffffffff800023f0:	48 83 ec 10          	sub    $0x10,%rsp
ffffffff800023f4:	48 89 7d f8          	mov    %rdi,-0x8(%rbp)
ffffffff800023f8:	48 8b 45 f8          	mov    -0x8(%rbp),%rax
ffffffff800023fc:	48 8b 40 40          	mov    0x40(%rax),%rax
ffffffff80002400:	48 85 c0             	test   %rax,%rax
ffffffff80002403:	74 45                	je     ffffffff8000244a <linux_private_parse+0x5e>
ffffffff80002405:	48 8b 45 f8          	mov    -0x8(%rbp),%rax
ffffffff80002409:	48 8b 80 a8 01 00 00 	mov    0x1a8(%rax),%rax
ffffffff80002410:	48 85 c0             	test   %rax,%rax
ffffffff80002413:	74 36                	je     ffffffff8000244b <linux_private_parse+0x5f>
ffffffff80002415:	48 8b 45 f8          	mov    -0x8(%rbp),%rax
ffffffff80002419:	4c 8b 88 a8 01 00 00 	mov    0x1a8(%rax),%r9
ffffffff80002420:	48 8b 45 f8          	mov    -0x8(%rbp),%rax
ffffffff80002424:	48 83 c0 78          	add    $0x78,%rax
ffffffff80002428:	48 89 c1             	mov    %rax,%rcx
ffffffff8000242b:	48 8b 45 f8          	mov    -0x8(%rbp),%rax
ffffffff8000242f:	48 8b 50 40          	mov    0x40(%rax),%rdx
ffffffff80002433:	48 8b 45 f8          	mov    -0x8(%rbp),%rax
ffffffff80002437:	41 b8 00 00 00 00    	mov    $0x0,%r8d
ffffffff8000243d:	be 50 00 00 00       	mov    $0x50,%esi
ffffffff80002442:	48 89 c7             	mov    %rax,%rdi
ffffffff80002445:	41 ff d1             	call   *%r9
ffffffff80002448:	eb 01                	jmp    ffffffff8000244b <linux_private_parse+0x5f>
ffffffff8000244a:	90                   	nop
ffffffff8000244b:	c9                   	leave
ffffffff8000244c:	c3                   	ret

ffffffff8000244d <mode_toggle>:
ffffffff8000244d:	55                   	push   %rbp
ffffffff8000244e:	48 89 e5             	mov    %rsp,%rbp
ffffffff80002451:	48 83 ec 20          	sub    $0x20,%rsp
ffffffff80002455:	48 89 7d e8          	mov    %rdi,-0x18(%rbp)
ffffffff80002459:	89 f0                	mov    %esi,%eax
ffffffff8000245b:	88 45 e4             	mov    %al,-0x1c(%rbp)
ffffffff8000245e:	48 8b 45 e8          	mov    -0x18(%rbp),%rax
ffffffff80002462:	48 8b 40 40          	mov    0x40(%rax),%rax
ffffffff80002466:	48 85 c0             	test   %rax,%rax
ffffffff80002469:	74 7d                	je     ffffffff800024e8 <mode_toggle+0x9b>
ffffffff8000246b:	0f b6 45 e4          	movzbl -0x1c(%rbp),%eax
ffffffff8000246f:	83 f8 68             	cmp    $0x68,%eax
ffffffff80002472:	74 07                	je     ffffffff8000247b <mode_toggle+0x2e>
ffffffff80002474:	83 f8 6c             	cmp    $0x6c,%eax
ffffffff80002477:	74 08                	je     ffffffff80002481 <mode_toggle+0x34>
ffffffff80002479:	eb 6e                	jmp    ffffffff800024e9 <mode_toggle+0x9c>
ffffffff8000247b:	c6 45 ff 01          	movb   $0x1,-0x1(%rbp)
ffffffff8000247f:	eb 05                	jmp    ffffffff80002486 <mode_toggle+0x39>
ffffffff80002481:	c6 45 ff 00          	movb   $0x0,-0x1(%rbp)
ffffffff80002485:	90                   	nop
ffffffff80002486:	48 8b 45 e8          	mov    -0x18(%rbp),%rax
ffffffff8000248a:	8b 40 78             	mov    0x78(%rax),%eax
ffffffff8000248d:	83 f8 04             	cmp    $0x4,%eax
ffffffff80002490:	75 0d                	jne    ffffffff8000249f <mode_toggle+0x52>
ffffffff80002492:	48 8b 45 e8          	mov    -0x18(%rbp),%rax
ffffffff80002496:	0f b6 55 ff          	movzbl -0x1(%rbp),%edx
ffffffff8000249a:	88 50 15             	mov    %dl,0x15(%rax)
ffffffff8000249d:	eb 4a                	jmp    ffffffff800024e9 <mode_toggle+0x9c>
ffffffff8000249f:	48 8b 45 e8          	mov    -0x18(%rbp),%rax
ffffffff800024a3:	48 8b 80 a8 01 00 00 	mov    0x1a8(%rax),%rax
ffffffff800024aa:	48 85 c0             	test   %rax,%rax
ffffffff800024ad:	74 3a                	je     ffffffff800024e9 <mode_toggle+0x9c>
ffffffff800024af:	48 8b 45 e8          	mov    -0x18(%rbp),%rax
ffffffff800024b3:	4c 8b 88 a8 01 00 00 	mov    0x1a8(%rax),%r9
ffffffff800024ba:	0f b6 4d e4          	movzbl -0x1c(%rbp),%ecx
ffffffff800024be:	48 8b 45 e8          	mov    -0x18(%rbp),%rax
ffffffff800024c2:	48 83 c0 78          	add    $0x78,%rax
ffffffff800024c6:	48 89 c6             	mov    %rax,%rsi
ffffffff800024c9:	48 8b 45 e8          	mov    -0x18(%rbp),%rax
ffffffff800024cd:	48 8b 50 40          	mov    0x40(%rax),%rdx
ffffffff800024d1:	48 8b 45 e8          	mov    -0x18(%rbp),%rax
ffffffff800024d5:	49 89 c8             	mov    %rcx,%r8
ffffffff800024d8:	48 89 f1             	mov    %rsi,%rcx
ffffffff800024db:	be 46 00 00 00       	mov    $0x46,%esi
ffffffff800024e0:	48 89 c7             	mov    %rax,%rdi
ffffffff800024e3:	41 ff d1             	call   *%r9
ffffffff800024e6:	eb 01                	jmp    ffffffff800024e9 <mode_toggle+0x9c>
ffffffff800024e8:	90                   	nop
ffffffff800024e9:	c9                   	leave
ffffffff800024ea:	c3                   	ret

ffffffff800024eb <osc_parse>:
ffffffff800024eb:	55                   	push   %rbp
ffffffff800024ec:	48 89 e5             	mov    %rsp,%rbp
ffffffff800024ef:	48 83 ec 10          	sub    $0x10,%rsp
ffffffff800024f3:	48 89 7d f8          	mov    %rdi,-0x8(%rbp)
ffffffff800024f7:	89 f0                	mov    %esi,%eax
ffffffff800024f9:	88 45 f4             	mov    %al,-0xc(%rbp)
ffffffff800024fc:	48 8b 45 f8          	mov    -0x8(%rbp),%rax
ffffffff80002500:	0f b6 40 0e          	movzbl 0xe(%rax),%eax
ffffffff80002504:	84 c0                	test   %al,%al
ffffffff80002506:	74 3c                	je     ffffffff80002544 <osc_parse+0x59>
ffffffff80002508:	80 7d f4 5c          	cmpb   $0x5c,-0xc(%rbp)
ffffffff8000250c:	75 1f                	jne    ffffffff8000252d <osc_parse+0x42>
ffffffff8000250e:	48 8b 45 f8          	mov    -0x8(%rbp),%rax
ffffffff80002512:	c6 40 0d 00          	movb   $0x0,0xd(%rax)
ffffffff80002516:	48 8b 45 f8          	mov    -0x8(%rbp),%rax
ffffffff8000251a:	c6 40 0e 00          	movb   $0x0,0xe(%rax)
ffffffff8000251e:	48 8b 45 f8          	mov    -0x8(%rbp),%rax
ffffffff80002522:	c6 40 0c 00          	movb   $0x0,0xc(%rax)
ffffffff80002526:	b8 01 00 00 00       	mov    $0x1,%eax
ffffffff8000252b:	eb 4f                	jmp    ffffffff8000257c <osc_parse+0x91>
ffffffff8000252d:	48 8b 45 f8          	mov    -0x8(%rbp),%rax
ffffffff80002531:	c6 40 0e 00          	movb   $0x0,0xe(%rax)
ffffffff80002535:	48 8b 45 f8          	mov    -0x8(%rbp),%rax
ffffffff80002539:	c6 40 0d 00          	movb   $0x0,0xd(%rax)
ffffffff8000253d:	b8 00 00 00 00       	mov    $0x0,%eax
ffffffff80002542:	eb 38                	jmp    ffffffff8000257c <osc_parse+0x91>
ffffffff80002544:	0f b6 45 f4          	movzbl -0xc(%rbp),%eax
ffffffff80002548:	83 f8 07             	cmp    $0x7,%eax
ffffffff8000254b:	74 0f                	je     ffffffff8000255c <osc_parse+0x71>
ffffffff8000254d:	83 f8 1b             	cmp    $0x1b,%eax
ffffffff80002550:	75 24                	jne    ffffffff80002576 <osc_parse+0x8b>
ffffffff80002552:	48 8b 45 f8          	mov    -0x8(%rbp),%rax
ffffffff80002556:	c6 40 0e 01          	movb   $0x1,0xe(%rax)
ffffffff8000255a:	eb 1b                	jmp    ffffffff80002577 <osc_parse+0x8c>
ffffffff8000255c:	48 8b 45 f8          	mov    -0x8(%rbp),%rax
ffffffff80002560:	c6 40 0e 00          	movb   $0x0,0xe(%rax)
ffffffff80002564:	48 8b 45 f8          	mov    -0x8(%rbp),%rax
ffffffff80002568:	c6 40 0d 00          	movb   $0x0,0xd(%rax)
ffffffff8000256c:	48 8b 45 f8          	mov    -0x8(%rbp),%rax
ffffffff80002570:	c6 40 0c 00          	movb   $0x0,0xc(%rax)
ffffffff80002574:	eb 01                	jmp    ffffffff80002577 <osc_parse+0x8c>
ffffffff80002576:	90                   	nop
ffffffff80002577:	b8 01 00 00 00       	mov    $0x1,%eax
ffffffff8000257c:	c9                   	leave
ffffffff8000257d:	c3                   	ret

ffffffff8000257e <control_sequence_parse>:
ffffffff8000257e:	55                   	push   %rbp
ffffffff8000257f:	48 89 e5             	mov    %rsp,%rbp
ffffffff80002582:	48 81 ec 00 01 00 00 	sub    $0x100,%rsp
ffffffff80002589:	48 89 bd 08 ff ff ff 	mov    %rdi,-0xf8(%rbp)
ffffffff80002590:	89 f0                	mov    %esi,%eax
ffffffff80002592:	88 85 04 ff ff ff    	mov    %al,-0xfc(%rbp)
ffffffff80002598:	48 8b 85 08 ff ff ff 	mov    -0xf8(%rbp),%rax
ffffffff8000259f:	48 8b 40 38          	mov    0x38(%rax),%rax
ffffffff800025a3:	48 83 f8 02          	cmp    $0x2,%rax
ffffffff800025a7:	75 31                	jne    ffffffff800025da <control_sequence_parse+0x5c>
ffffffff800025a9:	0f b6 85 04 ff ff ff 	movzbl -0xfc(%rbp),%eax
ffffffff800025b0:	83 f8 3f             	cmp    $0x3f,%eax
ffffffff800025b3:	74 15                	je     ffffffff800025ca <control_sequence_parse+0x4c>
ffffffff800025b5:	83 f8 5b             	cmp    $0x5b,%eax
ffffffff800025b8:	75 20                	jne    ffffffff800025da <control_sequence_parse+0x5c>
ffffffff800025ba:	48 8b 85 08 ff ff ff 	mov    -0xf8(%rbp),%rax
ffffffff800025c1:	c6 40 10 01          	movb   $0x1,0x10(%rax)
ffffffff800025c5:	e9 64 14 00 00       	jmp    ffffffff80003a2e <control_sequence_parse+0x14b0>
ffffffff800025ca:	48 8b 85 08 ff ff ff 	mov    -0xf8(%rbp),%rax
ffffffff800025d1:	c6 40 14 01          	movb   $0x1,0x14(%rax)
ffffffff800025d5:	e9 76 14 00 00       	jmp    ffffffff80003a50 <control_sequence_parse+0x14d2>
ffffffff800025da:	80 bd 04 ff ff ff 2f 	cmpb   $0x2f,-0xfc(%rbp)
ffffffff800025e1:	0f 86 b2 00 00 00    	jbe    ffffffff80002699 <control_sequence_parse+0x11b>
ffffffff800025e7:	80 bd 04 ff ff ff 39 	cmpb   $0x39,-0xfc(%rbp)
ffffffff800025ee:	0f 87 a5 00 00 00    	ja     ffffffff80002699 <control_sequence_parse+0x11b>
ffffffff800025f4:	48 8b 85 08 ff ff ff 	mov    -0xf8(%rbp),%rax
ffffffff800025fb:	48 8b 40 40          	mov    0x40(%rax),%rax
ffffffff800025ff:	48 83 f8 10          	cmp    $0x10,%rax
ffffffff80002603:	0f 84 3d 14 00 00    	je     ffffffff80003a46 <control_sequence_parse+0x14c8>
ffffffff80002609:	48 8b 85 08 ff ff ff 	mov    -0xf8(%rbp),%rax
ffffffff80002610:	c6 40 0f 01          	movb   $0x1,0xf(%rax)
ffffffff80002614:	48 8b 85 08 ff ff ff 	mov    -0xf8(%rbp),%rax
ffffffff8000261b:	48 8b 50 40          	mov    0x40(%rax),%rdx
ffffffff8000261f:	48 8b 85 08 ff ff ff 	mov    -0xf8(%rbp),%rax
ffffffff80002626:	48 83 c2 1c          	add    $0x1c,%rdx
ffffffff8000262a:	8b 54 90 08          	mov    0x8(%rax,%rdx,4),%edx
ffffffff8000262e:	48 8b 85 08 ff ff ff 	mov    -0xf8(%rbp),%rax
ffffffff80002635:	48 8b 48 40          	mov    0x40(%rax),%rcx
ffffffff80002639:	89 d0                	mov    %edx,%eax
ffffffff8000263b:	c1 e0 02             	shl    $0x2,%eax
ffffffff8000263e:	01 d0                	add    %edx,%eax
ffffffff80002640:	01 c0                	add    %eax,%eax
ffffffff80002642:	89 c6                	mov    %eax,%esi
ffffffff80002644:	48 8b 85 08 ff ff ff 	mov    -0xf8(%rbp),%rax
ffffffff8000264b:	48 8d 51 1c          	lea    0x1c(%rcx),%rdx
ffffffff8000264f:	89 74 90 08          	mov    %esi,0x8(%rax,%rdx,4)
ffffffff80002653:	48 8b 85 08 ff ff ff 	mov    -0xf8(%rbp),%rax
ffffffff8000265a:	48 8b 50 40          	mov    0x40(%rax),%rdx
ffffffff8000265e:	48 8b 85 08 ff ff ff 	mov    -0xf8(%rbp),%rax
ffffffff80002665:	48 83 c2 1c          	add    $0x1c,%rdx
ffffffff80002669:	8b 54 90 08          	mov    0x8(%rax,%rdx,4),%edx
ffffffff8000266d:	0f b6 85 04 ff ff ff 	movzbl -0xfc(%rbp),%eax
ffffffff80002674:	8d 0c 02             	lea    (%rdx,%rax,1),%ecx
ffffffff80002677:	48 8b 85 08 ff ff ff 	mov    -0xf8(%rbp),%rax
ffffffff8000267e:	48 8b 50 40          	mov    0x40(%rax),%rdx
ffffffff80002682:	83 e9 30             	sub    $0x30,%ecx
ffffffff80002685:	48 8b 85 08 ff ff ff 	mov    -0xf8(%rbp),%rax
ffffffff8000268c:	48 83 c2 1c          	add    $0x1c,%rdx
ffffffff80002690:	89 4c 90 08          	mov    %ecx,0x8(%rax,%rdx,4)
ffffffff80002694:	e9 b7 13 00 00       	jmp    ffffffff80003a50 <control_sequence_parse+0x14d2>
ffffffff80002699:	48 8b 85 08 ff ff ff 	mov    -0xf8(%rbp),%rax
ffffffff800026a0:	0f b6 40 0f          	movzbl 0xf(%rax),%eax
ffffffff800026a4:	84 c0                	test   %al,%al
ffffffff800026a6:	74 33                	je     ffffffff800026db <control_sequence_parse+0x15d>
ffffffff800026a8:	48 8b 85 08 ff ff ff 	mov    -0xf8(%rbp),%rax
ffffffff800026af:	48 8b 40 40          	mov    0x40(%rax),%rax
ffffffff800026b3:	48 8d 50 01          	lea    0x1(%rax),%rdx
ffffffff800026b7:	48 8b 85 08 ff ff ff 	mov    -0xf8(%rbp),%rax
ffffffff800026be:	48 89 50 40          	mov    %rdx,0x40(%rax)
ffffffff800026c2:	48 8b 85 08 ff ff ff 	mov    -0xf8(%rbp),%rax
ffffffff800026c9:	c6 40 0f 00          	movb   $0x0,0xf(%rax)
ffffffff800026cd:	80 bd 04 ff ff ff 3b 	cmpb   $0x3b,-0xfc(%rbp)
ffffffff800026d4:	75 60                	jne    ffffffff80002736 <control_sequence_parse+0x1b8>
ffffffff800026d6:	e9 75 13 00 00       	jmp    ffffffff80003a50 <control_sequence_parse+0x14d2>
ffffffff800026db:	80 bd 04 ff ff ff 3b 	cmpb   $0x3b,-0xfc(%rbp)
ffffffff800026e2:	75 52                	jne    ffffffff80002736 <control_sequence_parse+0x1b8>
ffffffff800026e4:	48 8b 85 08 ff ff ff 	mov    -0xf8(%rbp),%rax
ffffffff800026eb:	48 8b 40 40          	mov    0x40(%rax),%rax
ffffffff800026ef:	48 83 f8 10          	cmp    $0x10,%rax
ffffffff800026f3:	0f 84 50 13 00 00    	je     ffffffff80003a49 <control_sequence_parse+0x14cb>
ffffffff800026f9:	48 8b 85 08 ff ff ff 	mov    -0xf8(%rbp),%rax
ffffffff80002700:	48 8b 50 40          	mov    0x40(%rax),%rdx
ffffffff80002704:	48 8b 85 08 ff ff ff 	mov    -0xf8(%rbp),%rax
ffffffff8000270b:	48 83 c2 1c          	add    $0x1c,%rdx
ffffffff8000270f:	c7 44 90 08 00 00 00 	movl   $0x0,0x8(%rax,%rdx,4)
ffffffff80002716:	00 
ffffffff80002717:	48 8b 85 08 ff ff ff 	mov    -0xf8(%rbp),%rax
ffffffff8000271e:	48 8b 40 40          	mov    0x40(%rax),%rax
ffffffff80002722:	48 8d 50 01          	lea    0x1(%rax),%rdx
ffffffff80002726:	48 8b 85 08 ff ff ff 	mov    -0xf8(%rbp),%rax
ffffffff8000272d:	48 89 50 40          	mov    %rdx,0x40(%rax)
ffffffff80002731:	e9 1a 13 00 00       	jmp    ffffffff80003a50 <control_sequence_parse+0x14d2>
ffffffff80002736:	0f b6 85 04 ff ff ff 	movzbl -0xfc(%rbp),%eax
ffffffff8000273d:	83 f8 4b             	cmp    $0x4b,%eax
ffffffff80002740:	7f 07                	jg     ffffffff80002749 <control_sequence_parse+0x1cb>
ffffffff80002742:	83 f8 4a             	cmp    $0x4a,%eax
ffffffff80002745:	7d 07                	jge    ffffffff8000274e <control_sequence_parse+0x1d0>
ffffffff80002747:	eb 0f                	jmp    ffffffff80002758 <control_sequence_parse+0x1da>
ffffffff80002749:	83 f8 71             	cmp    $0x71,%eax
ffffffff8000274c:	75 0a                	jne    ffffffff80002758 <control_sequence_parse+0x1da>
ffffffff8000274e:	48 c7 45 f8 00 00 00 	movq   $0x0,-0x8(%rbp)
ffffffff80002755:	00 
ffffffff80002756:	eb 09                	jmp    ffffffff80002761 <control_sequence_parse+0x1e3>
ffffffff80002758:	48 c7 45 f8 01 00 00 	movq   $0x1,-0x8(%rbp)
ffffffff8000275f:	00 
ffffffff80002760:	90                   	nop
ffffffff80002761:	48 8b 85 08 ff ff ff 	mov    -0xf8(%rbp),%rax
ffffffff80002768:	48 8b 40 40          	mov    0x40(%rax),%rax
ffffffff8000276c:	48 89 45 f0          	mov    %rax,-0x10(%rbp)
ffffffff80002770:	eb 1e                	jmp    ffffffff80002790 <control_sequence_parse+0x212>
ffffffff80002772:	48 8b 45 f8          	mov    -0x8(%rbp),%rax
ffffffff80002776:	89 c1                	mov    %eax,%ecx
ffffffff80002778:	48 8b 85 08 ff ff ff 	mov    -0xf8(%rbp),%rax
ffffffff8000277f:	48 8b 55 f0          	mov    -0x10(%rbp),%rdx
ffffffff80002783:	48 83 c2 1c          	add    $0x1c,%rdx
ffffffff80002787:	89 4c 90 08          	mov    %ecx,0x8(%rax,%rdx,4)
ffffffff8000278b:	48 83 45 f0 01       	addq   $0x1,-0x10(%rbp)
ffffffff80002790:	48 83 7d f0 0f       	cmpq   $0xf,-0x10(%rbp)
ffffffff80002795:	76 db                	jbe    ffffffff80002772 <control_sequence_parse+0x1f4>
ffffffff80002797:	48 8b 85 08 ff ff ff 	mov    -0xf8(%rbp),%rax
ffffffff8000279e:	0f b6 40 14          	movzbl 0x14(%rax),%eax
ffffffff800027a2:	84 c0                	test   %al,%al
ffffffff800027a4:	74 1d                	je     ffffffff800027c3 <control_sequence_parse+0x245>
ffffffff800027a6:	0f b6 95 04 ff ff ff 	movzbl -0xfc(%rbp),%edx
ffffffff800027ad:	48 8b 85 08 ff ff ff 	mov    -0xf8(%rbp),%rax
ffffffff800027b4:	89 d6                	mov    %edx,%esi
ffffffff800027b6:	48 89 c7             	mov    %rax,%rdi
ffffffff800027b9:	e8 77 fb ff ff       	call   ffffffff80002335 <dec_private_parse>
ffffffff800027be:	e9 6b 12 00 00       	jmp    ffffffff80003a2e <control_sequence_parse+0x14b0>
ffffffff800027c3:	48 8b 85 08 ff ff ff 	mov    -0xf8(%rbp),%rax
ffffffff800027ca:	0f b6 40 0a          	movzbl 0xa(%rax),%eax
ffffffff800027ce:	88 85 6f ff ff ff    	mov    %al,-0x91(%rbp)
ffffffff800027d4:	48 8b 85 08 ff ff ff 	mov    -0xf8(%rbp),%rax
ffffffff800027db:	c6 40 0a 00          	movb   $0x0,0xa(%rax)
ffffffff800027df:	48 8b 85 08 ff ff ff 	mov    -0xf8(%rbp),%rax
ffffffff800027e6:	4c 8b 80 08 01 00 00 	mov    0x108(%rax),%r8
ffffffff800027ed:	48 8d 95 10 ff ff ff 	lea    -0xf0(%rbp),%rdx
ffffffff800027f4:	48 8d 8d 18 ff ff ff 	lea    -0xe8(%rbp),%rcx
ffffffff800027fb:	48 8b 85 08 ff ff ff 	mov    -0xf8(%rbp),%rax
ffffffff80002802:	48 89 ce             	mov    %rcx,%rsi
ffffffff80002805:	48 89 c7             	mov    %rax,%rdi
ffffffff80002808:	41 ff d0             	call   *%r8
ffffffff8000280b:	48 8b 85 08 ff ff ff 	mov    -0xf8(%rbp),%rax
ffffffff80002812:	0f b6 40 16          	movzbl 0x16(%rax),%eax
ffffffff80002816:	84 c0                	test   %al,%al
ffffffff80002818:	74 2a                	je     ffffffff80002844 <control_sequence_parse+0x2c6>
ffffffff8000281a:	80 bd 04 ff ff ff 3f 	cmpb   $0x3f,-0xfc(%rbp)
ffffffff80002821:	0f 86 25 12 00 00    	jbe    ffffffff80003a4c <control_sequence_parse+0x14ce>
ffffffff80002827:	80 bd 04 ff ff ff 7e 	cmpb   $0x7e,-0xfc(%rbp)
ffffffff8000282e:	0f 87 18 12 00 00    	ja     ffffffff80003a4c <control_sequence_parse+0x14ce>
ffffffff80002834:	48 8b 85 08 ff ff ff 	mov    -0xf8(%rbp),%rax
ffffffff8000283b:	c6 40 16 00          	movb   $0x0,0x16(%rax)
ffffffff8000283f:	e9 ea 11 00 00       	jmp    ffffffff80003a2e <control_sequence_parse+0x14b0>
ffffffff80002844:	0f b6 85 04 ff ff ff 	movzbl -0xfc(%rbp),%eax
ffffffff8000284b:	83 f8 75             	cmp    $0x75,%eax
ffffffff8000284e:	0f 84 41 0e 00 00    	je     ffffffff80003695 <control_sequence_parse+0x1117>
ffffffff80002854:	83 f8 75             	cmp    $0x75,%eax
ffffffff80002857:	0f 8f a9 11 00 00    	jg     ffffffff80003a06 <control_sequence_parse+0x1488>
ffffffff8000285d:	83 f8 73             	cmp    $0x73,%eax
ffffffff80002860:	0f 84 fa 0d 00 00    	je     ffffffff80003660 <control_sequence_parse+0x10e2>
ffffffff80002866:	83 f8 73             	cmp    $0x73,%eax
ffffffff80002869:	0f 8f 97 11 00 00    	jg     ffffffff80003a06 <control_sequence_parse+0x1488>
ffffffff8000286f:	83 f8 72             	cmp    $0x72,%eax
ffffffff80002872:	0f 84 08 10 00 00    	je     ffffffff80003880 <control_sequence_parse+0x1302>
ffffffff80002878:	83 f8 72             	cmp    $0x72,%eax
ffffffff8000287b:	0f 8f 85 11 00 00    	jg     ffffffff80003a06 <control_sequence_parse+0x1488>
ffffffff80002881:	83 f8 71             	cmp    $0x71,%eax
ffffffff80002884:	0f 84 15 09 00 00    	je     ffffffff8000319f <control_sequence_parse+0xc21>
ffffffff8000288a:	83 f8 71             	cmp    $0x71,%eax
ffffffff8000288d:	0f 8f 73 11 00 00    	jg     ffffffff80003a06 <control_sequence_parse+0x1488>
ffffffff80002893:	83 f8 6e             	cmp    $0x6e,%eax
ffffffff80002896:	0f 84 44 08 00 00    	je     ffffffff800030e0 <control_sequence_parse+0xb62>
ffffffff8000289c:	83 f8 6e             	cmp    $0x6e,%eax
ffffffff8000289f:	0f 8f 61 11 00 00    	jg     ffffffff80003a06 <control_sequence_parse+0x1488>
ffffffff800028a5:	83 f8 6d             	cmp    $0x6d,%eax
ffffffff800028a8:	0f 84 9e 0d 00 00    	je     ffffffff8000364c <control_sequence_parse+0x10ce>
ffffffff800028ae:	83 f8 6d             	cmp    $0x6d,%eax
ffffffff800028b1:	0f 8f 4f 11 00 00    	jg     ffffffff80003a06 <control_sequence_parse+0x1488>
ffffffff800028b7:	83 f8 6c             	cmp    $0x6c,%eax
ffffffff800028ba:	0f 84 1b 11 00 00    	je     ffffffff800039db <control_sequence_parse+0x145d>
ffffffff800028c0:	83 f8 6c             	cmp    $0x6c,%eax
ffffffff800028c3:	0f 8f 3d 11 00 00    	jg     ffffffff80003a06 <control_sequence_parse+0x1488>
ffffffff800028c9:	83 f8 68             	cmp    $0x68,%eax
ffffffff800028cc:	0f 84 09 11 00 00    	je     ffffffff800039db <control_sequence_parse+0x145d>
ffffffff800028d2:	83 f8 68             	cmp    $0x68,%eax
ffffffff800028d5:	0f 8f 2b 11 00 00    	jg     ffffffff80003a06 <control_sequence_parse+0x1488>
ffffffff800028db:	83 f8 66             	cmp    $0x66,%eax
ffffffff800028de:	0f 84 0b 06 00 00    	je     ffffffff80002eef <control_sequence_parse+0x971>
ffffffff800028e4:	83 f8 66             	cmp    $0x66,%eax
ffffffff800028e7:	0f 8f 19 11 00 00    	jg     ffffffff80003a06 <control_sequence_parse+0x1488>
ffffffff800028ed:	83 f8 65             	cmp    $0x65,%eax
ffffffff800028f0:	0f 84 80 02 00 00    	je     ffffffff80002b76 <control_sequence_parse+0x5f8>
ffffffff800028f6:	83 f8 65             	cmp    $0x65,%eax
ffffffff800028f9:	0f 8f 07 11 00 00    	jg     ffffffff80003a06 <control_sequence_parse+0x1488>
ffffffff800028ff:	83 f8 64             	cmp    $0x64,%eax
ffffffff80002902:	0f 84 dd 04 00 00    	je     ffffffff80002de5 <control_sequence_parse+0x867>
ffffffff80002908:	83 f8 64             	cmp    $0x64,%eax
ffffffff8000290b:	0f 8f f5 10 00 00    	jg     ffffffff80003a06 <control_sequence_parse+0x1488>
ffffffff80002911:	83 f8 63             	cmp    $0x63,%eax
ffffffff80002914:	0f 84 7f 04 00 00    	je     ffffffff80002d99 <control_sequence_parse+0x81b>
ffffffff8000291a:	83 f8 63             	cmp    $0x63,%eax
ffffffff8000291d:	0f 8f e3 10 00 00    	jg     ffffffff80003a06 <control_sequence_parse+0x1488>
ffffffff80002923:	83 f8 61             	cmp    $0x61,%eax
ffffffff80002926:	0f 84 73 03 00 00    	je     ffffffff80002c9f <control_sequence_parse+0x721>
ffffffff8000292c:	83 f8 61             	cmp    $0x61,%eax
ffffffff8000292f:	0f 8f d1 10 00 00    	jg     ffffffff80003a06 <control_sequence_parse+0x1488>
ffffffff80002935:	83 f8 60             	cmp    $0x60,%eax
ffffffff80002938:	0f 84 2e 05 00 00    	je     ffffffff80002e6c <control_sequence_parse+0x8ee>
ffffffff8000293e:	83 f8 60             	cmp    $0x60,%eax
ffffffff80002941:	0f 8f bf 10 00 00    	jg     ffffffff80003a06 <control_sequence_parse+0x1488>
ffffffff80002947:	83 f8 5d             	cmp    $0x5d,%eax
ffffffff8000294a:	0f 84 a5 10 00 00    	je     ffffffff800039f5 <control_sequence_parse+0x1477>
ffffffff80002950:	83 f8 5d             	cmp    $0x5d,%eax
ffffffff80002953:	0f 8f ad 10 00 00    	jg     ffffffff80003a06 <control_sequence_parse+0x1488>
ffffffff80002959:	83 f8 58             	cmp    $0x58,%eax
ffffffff8000295c:	0f 84 56 0c 00 00    	je     ffffffff800035b8 <control_sequence_parse+0x103a>
ffffffff80002962:	83 f8 58             	cmp    $0x58,%eax
ffffffff80002965:	0f 8f 9b 10 00 00    	jg     ffffffff80003a06 <control_sequence_parse+0x1488>
ffffffff8000296b:	83 f8 50             	cmp    $0x50,%eax
ffffffff8000296e:	0f 84 8b 0b 00 00    	je     ffffffff800034ff <control_sequence_parse+0xf81>
ffffffff80002974:	83 f8 50             	cmp    $0x50,%eax
ffffffff80002977:	0f 8f 89 10 00 00    	jg     ffffffff80003a06 <control_sequence_parse+0x1488>
ffffffff8000297d:	83 f8 4d             	cmp    $0x4d,%eax
ffffffff80002980:	0f 84 5e 06 00 00    	je     ffffffff80002fe4 <control_sequence_parse+0xa66>
ffffffff80002986:	83 f8 4d             	cmp    $0x4d,%eax
ffffffff80002989:	0f 8f 77 10 00 00    	jg     ffffffff80003a06 <control_sequence_parse+0x1488>
ffffffff8000298f:	83 f8 4c             	cmp    $0x4c,%eax
ffffffff80002992:	0f 84 af 06 00 00    	je     ffffffff80003047 <control_sequence_parse+0xac9>
ffffffff80002998:	83 f8 4c             	cmp    $0x4c,%eax
ffffffff8000299b:	0f 8f 65 10 00 00    	jg     ffffffff80003a06 <control_sequence_parse+0x1488>
ffffffff800029a1:	83 f8 4b             	cmp    $0x4b,%eax
ffffffff800029a4:	0f 84 24 0d 00 00    	je     ffffffff800036ce <control_sequence_parse+0x1150>
ffffffff800029aa:	83 f8 4b             	cmp    $0x4b,%eax
ffffffff800029ad:	0f 8f 53 10 00 00    	jg     ffffffff80003a06 <control_sequence_parse+0x1488>
ffffffff800029b3:	83 f8 4a             	cmp    $0x4a,%eax
ffffffff800029b6:	0f 84 36 08 00 00    	je     ffffffff800031f2 <control_sequence_parse+0xc74>
ffffffff800029bc:	83 f8 4a             	cmp    $0x4a,%eax
ffffffff800029bf:	0f 8f 41 10 00 00    	jg     ffffffff80003a06 <control_sequence_parse+0x1488>
ffffffff800029c5:	83 f8 48             	cmp    $0x48,%eax
ffffffff800029c8:	0f 84 21 05 00 00    	je     ffffffff80002eef <control_sequence_parse+0x971>
ffffffff800029ce:	83 f8 48             	cmp    $0x48,%eax
ffffffff800029d1:	0f 8f 2f 10 00 00    	jg     ffffffff80003a06 <control_sequence_parse+0x1488>
ffffffff800029d7:	83 f8 47             	cmp    $0x47,%eax
ffffffff800029da:	0f 84 8c 04 00 00    	je     ffffffff80002e6c <control_sequence_parse+0x8ee>
ffffffff800029e0:	83 f8 47             	cmp    $0x47,%eax
ffffffff800029e3:	0f 8f 1d 10 00 00    	jg     ffffffff80003a06 <control_sequence_parse+0x1488>
ffffffff800029e9:	83 f8 46             	cmp    $0x46,%eax
ffffffff800029ec:	74 76                	je     ffffffff80002a64 <control_sequence_parse+0x4e6>
ffffffff800029ee:	83 f8 46             	cmp    $0x46,%eax
ffffffff800029f1:	0f 8f 0f 10 00 00    	jg     ffffffff80003a06 <control_sequence_parse+0x1488>
ffffffff800029f7:	83 f8 45             	cmp    $0x45,%eax
ffffffff800029fa:	0f 84 6b 01 00 00    	je     ffffffff80002b6b <control_sequence_parse+0x5ed>
ffffffff80002a00:	83 f8 45             	cmp    $0x45,%eax
ffffffff80002a03:	0f 8f fd 0f 00 00    	jg     ffffffff80003a06 <control_sequence_parse+0x1488>
ffffffff80002a09:	83 f8 44             	cmp    $0x44,%eax
ffffffff80002a0c:	0f 84 20 03 00 00    	je     ffffffff80002d32 <control_sequence_parse+0x7b4>
ffffffff80002a12:	83 f8 44             	cmp    $0x44,%eax
ffffffff80002a15:	0f 8f eb 0f 00 00    	jg     ffffffff80003a06 <control_sequence_parse+0x1488>
ffffffff80002a1b:	83 f8 43             	cmp    $0x43,%eax
ffffffff80002a1e:	0f 84 7b 02 00 00    	je     ffffffff80002c9f <control_sequence_parse+0x721>
ffffffff80002a24:	83 f8 43             	cmp    $0x43,%eax
ffffffff80002a27:	0f 8f d9 0f 00 00    	jg     ffffffff80003a06 <control_sequence_parse+0x1488>
ffffffff80002a2d:	83 f8 42             	cmp    $0x42,%eax
ffffffff80002a30:	0f 84 40 01 00 00    	je     ffffffff80002b76 <control_sequence_parse+0x5f8>
ffffffff80002a36:	83 f8 42             	cmp    $0x42,%eax
ffffffff80002a39:	0f 8f c7 0f 00 00    	jg     ffffffff80003a06 <control_sequence_parse+0x1488>
ffffffff80002a3f:	83 f8 41             	cmp    $0x41,%eax
ffffffff80002a42:	74 2b                	je     ffffffff80002a6f <control_sequence_parse+0x4f1>
ffffffff80002a44:	83 f8 41             	cmp    $0x41,%eax
ffffffff80002a47:	0f 8f b9 0f 00 00    	jg     ffffffff80003a06 <control_sequence_parse+0x1488>
ffffffff80002a4d:	83 f8 1b             	cmp    $0x1b,%eax
ffffffff80002a50:	0f 84 f9 0f 00 00    	je     ffffffff80003a4f <control_sequence_parse+0x14d1>
ffffffff80002a56:	83 f8 40             	cmp    $0x40,%eax
ffffffff80002a59:	0f 84 b5 09 00 00    	je     ffffffff80003414 <control_sequence_parse+0xe96>
ffffffff80002a5f:	e9 a2 0f 00 00       	jmp    ffffffff80003a06 <control_sequence_parse+0x1488>
ffffffff80002a64:	48 c7 85 18 ff ff ff 	movq   $0x0,-0xe8(%rbp)
ffffffff80002a6b:	00 00 00 00 
ffffffff80002a6f:	48 8b 85 08 ff ff ff 	mov    -0xf8(%rbp),%rax
ffffffff80002a76:	8b 40 78             	mov    0x78(%rax),%eax
ffffffff80002a79:	89 c2                	mov    %eax,%edx
ffffffff80002a7b:	48 8b 85 10 ff ff ff 	mov    -0xf0(%rbp),%rax
ffffffff80002a82:	48 39 d0             	cmp    %rdx,%rax
ffffffff80002a85:	73 13                	jae    ffffffff80002a9a <control_sequence_parse+0x51c>
ffffffff80002a87:	48 8b 85 10 ff ff ff 	mov    -0xf0(%rbp),%rax
ffffffff80002a8e:	89 c2                	mov    %eax,%edx
ffffffff80002a90:	48 8b 85 08 ff ff ff 	mov    -0xf8(%rbp),%rax
ffffffff80002a97:	89 50 78             	mov    %edx,0x78(%rax)
ffffffff80002a9a:	48 8b 85 10 ff ff ff 	mov    -0xf0(%rbp),%rax
ffffffff80002aa1:	48 89 85 20 ff ff ff 	mov    %rax,-0xe0(%rbp)
ffffffff80002aa8:	48 8b 95 10 ff ff ff 	mov    -0xf0(%rbp),%rdx
ffffffff80002aaf:	48 8b 85 08 ff ff ff 	mov    -0xf8(%rbp),%rax
ffffffff80002ab6:	8b 40 78             	mov    0x78(%rax),%eax
ffffffff80002ab9:	89 c1                	mov    %eax,%ecx
ffffffff80002abb:	48 89 d0             	mov    %rdx,%rax
ffffffff80002abe:	48 29 c8             	sub    %rcx,%rax
ffffffff80002ac1:	48 89 45 e8          	mov    %rax,-0x18(%rbp)
ffffffff80002ac5:	c6 45 e7 00          	movb   $0x0,-0x19(%rbp)
ffffffff80002ac9:	48 8b 85 08 ff ff ff 	mov    -0xf8(%rbp),%rax
ffffffff80002ad0:	48 8b 40 68          	mov    0x68(%rax),%rax
ffffffff80002ad4:	48 3b 45 e8          	cmp    -0x18(%rbp),%rax
ffffffff80002ad8:	72 14                	jb     ffffffff80002aee <control_sequence_parse+0x570>
ffffffff80002ada:	48 8b 85 08 ff ff ff 	mov    -0xf8(%rbp),%rax
ffffffff80002ae1:	48 8b 40 68          	mov    0x68(%rax),%rax
ffffffff80002ae5:	48 39 85 20 ff ff ff 	cmp    %rax,-0xe0(%rbp)
ffffffff80002aec:	73 25                	jae    ffffffff80002b13 <control_sequence_parse+0x595>
ffffffff80002aee:	48 8b 85 08 ff ff ff 	mov    -0xf8(%rbp),%rax
ffffffff80002af5:	48 8b 40 70          	mov    0x70(%rax),%rax
ffffffff80002af9:	48 3b 45 e8          	cmp    -0x18(%rbp),%rax
ffffffff80002afd:	72 18                	jb     ffffffff80002b17 <control_sequence_parse+0x599>
ffffffff80002aff:	48 8b 85 08 ff ff ff 	mov    -0xf8(%rbp),%rax
ffffffff80002b06:	48 8b 40 70          	mov    0x70(%rax),%rax
ffffffff80002b0a:	48 39 85 20 ff ff ff 	cmp    %rax,-0xe0(%rbp)
ffffffff80002b11:	72 04                	jb     ffffffff80002b17 <control_sequence_parse+0x599>
ffffffff80002b13:	c6 45 e7 01          	movb   $0x1,-0x19(%rbp)
ffffffff80002b17:	80 7d e7 00          	cmpb   $0x0,-0x19(%rbp)
ffffffff80002b1b:	74 20                	je     ffffffff80002b3d <control_sequence_parse+0x5bf>
ffffffff80002b1d:	48 8b 85 08 ff ff ff 	mov    -0xf8(%rbp),%rax
ffffffff80002b24:	48 8b 40 68          	mov    0x68(%rax),%rax
ffffffff80002b28:	48 39 45 e8          	cmp    %rax,-0x18(%rbp)
ffffffff80002b2c:	73 0f                	jae    ffffffff80002b3d <control_sequence_parse+0x5bf>
ffffffff80002b2e:	48 8b 85 08 ff ff ff 	mov    -0xf8(%rbp),%rax
ffffffff80002b35:	48 8b 40 68          	mov    0x68(%rax),%rax
ffffffff80002b39:	48 89 45 e8          	mov    %rax,-0x18(%rbp)
ffffffff80002b3d:	48 8b 85 08 ff ff ff 	mov    -0xf8(%rbp),%rax
ffffffff80002b44:	4c 8b 80 00 01 00 00 	mov    0x100(%rax),%r8
ffffffff80002b4b:	48 8b 8d 18 ff ff ff 	mov    -0xe8(%rbp),%rcx
ffffffff80002b52:	48 8b 55 e8          	mov    -0x18(%rbp),%rdx
ffffffff80002b56:	48 8b 85 08 ff ff ff 	mov    -0xf8(%rbp),%rax
ffffffff80002b5d:	48 89 ce             	mov    %rcx,%rsi
ffffffff80002b60:	48 89 c7             	mov    %rax,%rdi
ffffffff80002b63:	41 ff d0             	call   *%r8
ffffffff80002b66:	e9 b2 0e 00 00       	jmp    ffffffff80003a1d <control_sequence_parse+0x149f>
ffffffff80002b6b:	48 c7 85 18 ff ff ff 	movq   $0x0,-0xe8(%rbp)
ffffffff80002b72:	00 00 00 00 
ffffffff80002b76:	48 8b 85 08 ff ff ff 	mov    -0xf8(%rbp),%rax
ffffffff80002b7d:	8b 40 78             	mov    0x78(%rax),%eax
ffffffff80002b80:	89 c2                	mov    %eax,%edx
ffffffff80002b82:	48 8b 85 10 ff ff ff 	mov    -0xf0(%rbp),%rax
ffffffff80002b89:	48 01 c2             	add    %rax,%rdx
ffffffff80002b8c:	48 8b 85 08 ff ff ff 	mov    -0xf8(%rbp),%rax
ffffffff80002b93:	48 8b 80 e0 00 00 00 	mov    0xe0(%rax),%rax
ffffffff80002b9a:	48 83 e8 01          	sub    $0x1,%rax
ffffffff80002b9e:	48 39 d0             	cmp    %rdx,%rax
ffffffff80002ba1:	73 2a                	jae    ffffffff80002bcd <control_sequence_parse+0x64f>
ffffffff80002ba3:	48 8b 85 08 ff ff ff 	mov    -0xf8(%rbp),%rax
ffffffff80002baa:	48 8b 80 e0 00 00 00 	mov    0xe0(%rax),%rax
ffffffff80002bb1:	89 c1                	mov    %eax,%ecx
ffffffff80002bb3:	48 8b 85 10 ff ff ff 	mov    -0xf0(%rbp),%rax
ffffffff80002bba:	89 c2                	mov    %eax,%edx
ffffffff80002bbc:	89 c8                	mov    %ecx,%eax
ffffffff80002bbe:	29 d0                	sub    %edx,%eax
ffffffff80002bc0:	8d 50 ff             	lea    -0x1(%rax),%edx
ffffffff80002bc3:	48 8b 85 08 ff ff ff 	mov    -0xf8(%rbp),%rax
ffffffff80002bca:	89 50 78             	mov    %edx,0x78(%rax)
ffffffff80002bcd:	48 8b 85 10 ff ff ff 	mov    -0xf0(%rbp),%rax
ffffffff80002bd4:	48 89 85 28 ff ff ff 	mov    %rax,-0xd8(%rbp)
ffffffff80002bdb:	48 8b 85 08 ff ff ff 	mov    -0xf8(%rbp),%rax
ffffffff80002be2:	8b 40 78             	mov    0x78(%rax),%eax
ffffffff80002be5:	89 c2                	mov    %eax,%edx
ffffffff80002be7:	48 8b 85 10 ff ff ff 	mov    -0xf0(%rbp),%rax
ffffffff80002bee:	48 01 d0             	add    %rdx,%rax
ffffffff80002bf1:	48 89 45 d8          	mov    %rax,-0x28(%rbp)
ffffffff80002bf5:	c6 45 d7 00          	movb   $0x0,-0x29(%rbp)
ffffffff80002bf9:	48 8b 85 08 ff ff ff 	mov    -0xf8(%rbp),%rax
ffffffff80002c00:	48 8b 40 68          	mov    0x68(%rax),%rax
ffffffff80002c04:	48 3b 85 28 ff ff ff 	cmp    -0xd8(%rbp),%rax
ffffffff80002c0b:	72 11                	jb     ffffffff80002c1e <control_sequence_parse+0x6a0>
ffffffff80002c0d:	48 8b 85 08 ff ff ff 	mov    -0xf8(%rbp),%rax
ffffffff80002c14:	48 8b 40 68          	mov    0x68(%rax),%rax
ffffffff80002c18:	48 39 45 d8          	cmp    %rax,-0x28(%rbp)
ffffffff80002c1c:	73 25                	jae    ffffffff80002c43 <control_sequence_parse+0x6c5>
ffffffff80002c1e:	48 8b 85 08 ff ff ff 	mov    -0xf8(%rbp),%rax
ffffffff80002c25:	48 8b 40 70          	mov    0x70(%rax),%rax
ffffffff80002c29:	48 3b 85 28 ff ff ff 	cmp    -0xd8(%rbp),%rax
ffffffff80002c30:	72 15                	jb     ffffffff80002c47 <control_sequence_parse+0x6c9>
ffffffff80002c32:	48 8b 85 08 ff ff ff 	mov    -0xf8(%rbp),%rax
ffffffff80002c39:	48 8b 40 70          	mov    0x70(%rax),%rax
ffffffff80002c3d:	48 39 45 d8          	cmp    %rax,-0x28(%rbp)
ffffffff80002c41:	72 04                	jb     ffffffff80002c47 <control_sequence_parse+0x6c9>
ffffffff80002c43:	c6 45 d7 01          	movb   $0x1,-0x29(%rbp)
ffffffff80002c47:	80 7d d7 00          	cmpb   $0x0,-0x29(%rbp)
ffffffff80002c4b:	74 24                	je     ffffffff80002c71 <control_sequence_parse+0x6f3>
ffffffff80002c4d:	48 8b 85 08 ff ff ff 	mov    -0xf8(%rbp),%rax
ffffffff80002c54:	48 8b 40 70          	mov    0x70(%rax),%rax
ffffffff80002c58:	48 39 45 d8          	cmp    %rax,-0x28(%rbp)
ffffffff80002c5c:	72 13                	jb     ffffffff80002c71 <control_sequence_parse+0x6f3>
ffffffff80002c5e:	48 8b 85 08 ff ff ff 	mov    -0xf8(%rbp),%rax
ffffffff80002c65:	48 8b 40 70          	mov    0x70(%rax),%rax
ffffffff80002c69:	48 83 e8 01          	sub    $0x1,%rax
ffffffff80002c6d:	48 89 45 d8          	mov    %rax,-0x28(%rbp)
ffffffff80002c71:	48 8b 85 08 ff ff ff 	mov    -0xf8(%rbp),%rax
ffffffff80002c78:	4c 8b 80 00 01 00 00 	mov    0x100(%rax),%r8
ffffffff80002c7f:	48 8b 8d 18 ff ff ff 	mov    -0xe8(%rbp),%rcx
ffffffff80002c86:	48 8b 55 d8          	mov    -0x28(%rbp),%rdx
ffffffff80002c8a:	48 8b 85 08 ff ff ff 	mov    -0xf8(%rbp),%rax
ffffffff80002c91:	48 89 ce             	mov    %rcx,%rsi
ffffffff80002c94:	48 89 c7             	mov    %rax,%rdi
ffffffff80002c97:	41 ff d0             	call   *%r8
ffffffff80002c9a:	e9 7e 0d 00 00       	jmp    ffffffff80003a1d <control_sequence_parse+0x149f>
ffffffff80002c9f:	48 8b 85 08 ff ff ff 	mov    -0xf8(%rbp),%rax
ffffffff80002ca6:	8b 40 78             	mov    0x78(%rax),%eax
ffffffff80002ca9:	89 c2                	mov    %eax,%edx
ffffffff80002cab:	48 8b 85 18 ff ff ff 	mov    -0xe8(%rbp),%rax
ffffffff80002cb2:	48 01 c2             	add    %rax,%rdx
ffffffff80002cb5:	48 8b 85 08 ff ff ff 	mov    -0xf8(%rbp),%rax
ffffffff80002cbc:	48 8b 80 e8 00 00 00 	mov    0xe8(%rax),%rax
ffffffff80002cc3:	48 83 e8 01          	sub    $0x1,%rax
ffffffff80002cc7:	48 39 d0             	cmp    %rdx,%rax
ffffffff80002cca:	73 2a                	jae    ffffffff80002cf6 <control_sequence_parse+0x778>
ffffffff80002ccc:	48 8b 85 08 ff ff ff 	mov    -0xf8(%rbp),%rax
ffffffff80002cd3:	48 8b 80 e8 00 00 00 	mov    0xe8(%rax),%rax
ffffffff80002cda:	89 c1                	mov    %eax,%ecx
ffffffff80002cdc:	48 8b 85 18 ff ff ff 	mov    -0xe8(%rbp),%rax
ffffffff80002ce3:	89 c2                	mov    %eax,%edx
ffffffff80002ce5:	89 c8                	mov    %ecx,%eax
ffffffff80002ce7:	29 d0                	sub    %edx,%eax
ffffffff80002ce9:	8d 50 ff             	lea    -0x1(%rax),%edx
ffffffff80002cec:	48 8b 85 08 ff ff ff 	mov    -0xf8(%rbp),%rax
ffffffff80002cf3:	89 50 78             	mov    %edx,0x78(%rax)
ffffffff80002cf6:	48 8b 85 08 ff ff ff 	mov    -0xf8(%rbp),%rax
ffffffff80002cfd:	48 8b 88 00 01 00 00 	mov    0x100(%rax),%rcx
ffffffff80002d04:	48 8b 95 10 ff ff ff 	mov    -0xf0(%rbp),%rdx
ffffffff80002d0b:	48 8b 85 08 ff ff ff 	mov    -0xf8(%rbp),%rax
ffffffff80002d12:	8b 40 78             	mov    0x78(%rax),%eax
ffffffff80002d15:	89 c6                	mov    %eax,%esi
ffffffff80002d17:	48 8b 85 18 ff ff ff 	mov    -0xe8(%rbp),%rax
ffffffff80002d1e:	48 01 c6             	add    %rax,%rsi
ffffffff80002d21:	48 8b 85 08 ff ff ff 	mov    -0xf8(%rbp),%rax
ffffffff80002d28:	48 89 c7             	mov    %rax,%rdi
ffffffff80002d2b:	ff d1                	call   *%rcx
ffffffff80002d2d:	e9 eb 0c 00 00       	jmp    ffffffff80003a1d <control_sequence_parse+0x149f>
ffffffff80002d32:	48 8b 85 08 ff ff ff 	mov    -0xf8(%rbp),%rax
ffffffff80002d39:	8b 40 78             	mov    0x78(%rax),%eax
ffffffff80002d3c:	89 c2                	mov    %eax,%edx
ffffffff80002d3e:	48 8b 85 18 ff ff ff 	mov    -0xe8(%rbp),%rax
ffffffff80002d45:	48 39 d0             	cmp    %rdx,%rax
ffffffff80002d48:	73 13                	jae    ffffffff80002d5d <control_sequence_parse+0x7df>
ffffffff80002d4a:	48 8b 85 18 ff ff ff 	mov    -0xe8(%rbp),%rax
ffffffff80002d51:	89 c2                	mov    %eax,%edx
ffffffff80002d53:	48 8b 85 08 ff ff ff 	mov    -0xf8(%rbp),%rax
ffffffff80002d5a:	89 50 78             	mov    %edx,0x78(%rax)
ffffffff80002d5d:	48 8b 85 08 ff ff ff 	mov    -0xf8(%rbp),%rax
ffffffff80002d64:	48 8b 88 00 01 00 00 	mov    0x100(%rax),%rcx
ffffffff80002d6b:	48 8b 95 10 ff ff ff 	mov    -0xf0(%rbp),%rdx
ffffffff80002d72:	48 8b b5 18 ff ff ff 	mov    -0xe8(%rbp),%rsi
ffffffff80002d79:	48 8b 85 08 ff ff ff 	mov    -0xf8(%rbp),%rax
ffffffff80002d80:	8b 40 78             	mov    0x78(%rax),%eax
ffffffff80002d83:	89 c0                	mov    %eax,%eax
ffffffff80002d85:	48 29 c6             	sub    %rax,%rsi
ffffffff80002d88:	48 8b 85 08 ff ff ff 	mov    -0xf8(%rbp),%rax
ffffffff80002d8f:	48 89 c7             	mov    %rax,%rdi
ffffffff80002d92:	ff d1                	call   *%rcx
ffffffff80002d94:	e9 84 0c 00 00       	jmp    ffffffff80003a1d <control_sequence_parse+0x149f>
ffffffff80002d99:	48 8b 85 08 ff ff ff 	mov    -0xf8(%rbp),%rax
ffffffff80002da0:	48 8b 80 a8 01 00 00 	mov    0x1a8(%rax),%rax
ffffffff80002da7:	48 85 c0             	test   %rax,%rax
ffffffff80002daa:	0f 84 63 0c 00 00    	je     ffffffff80003a13 <control_sequence_parse+0x1495>
ffffffff80002db0:	48 8b 85 08 ff ff ff 	mov    -0xf8(%rbp),%rax
ffffffff80002db7:	4c 8b 88 a8 01 00 00 	mov    0x1a8(%rax),%r9
ffffffff80002dbe:	48 8b 85 08 ff ff ff 	mov    -0xf8(%rbp),%rax
ffffffff80002dc5:	41 b8 00 00 00 00    	mov    $0x0,%r8d
ffffffff80002dcb:	b9 00 00 00 00       	mov    $0x0,%ecx
ffffffff80002dd0:	ba 00 00 00 00       	mov    $0x0,%edx
ffffffff80002dd5:	be 1e 00 00 00       	mov    $0x1e,%esi
ffffffff80002dda:	48 89 c7             	mov    %rax,%rdi
ffffffff80002ddd:	41 ff d1             	call   *%r9
ffffffff80002de0:	e9 2e 0c 00 00       	jmp    ffffffff80003a13 <control_sequence_parse+0x1495>
ffffffff80002de5:	48 8b 85 08 ff ff ff 	mov    -0xf8(%rbp),%rax
ffffffff80002dec:	8b 40 78             	mov    0x78(%rax),%eax
ffffffff80002def:	8d 50 ff             	lea    -0x1(%rax),%edx
ffffffff80002df2:	48 8b 85 08 ff ff ff 	mov    -0xf8(%rbp),%rax
ffffffff80002df9:	89 50 78             	mov    %edx,0x78(%rax)
ffffffff80002dfc:	48 8b 85 08 ff ff ff 	mov    -0xf8(%rbp),%rax
ffffffff80002e03:	8b 40 78             	mov    0x78(%rax),%eax
ffffffff80002e06:	89 c2                	mov    %eax,%edx
ffffffff80002e08:	48 8b 85 08 ff ff ff 	mov    -0xf8(%rbp),%rax
ffffffff80002e0f:	48 8b 80 e0 00 00 00 	mov    0xe0(%rax),%rax
ffffffff80002e16:	48 39 c2             	cmp    %rax,%rdx
ffffffff80002e19:	72 1b                	jb     ffffffff80002e36 <control_sequence_parse+0x8b8>
ffffffff80002e1b:	48 8b 85 08 ff ff ff 	mov    -0xf8(%rbp),%rax
ffffffff80002e22:	48 8b 80 e0 00 00 00 	mov    0xe0(%rax),%rax
ffffffff80002e29:	8d 50 ff             	lea    -0x1(%rax),%edx
ffffffff80002e2c:	48 8b 85 08 ff ff ff 	mov    -0xf8(%rbp),%rax
ffffffff80002e33:	89 50 78             	mov    %edx,0x78(%rax)
ffffffff80002e36:	48 8b 85 08 ff ff ff 	mov    -0xf8(%rbp),%rax
ffffffff80002e3d:	4c 8b 80 00 01 00 00 	mov    0x100(%rax),%r8
ffffffff80002e44:	48 8b 85 08 ff ff ff 	mov    -0xf8(%rbp),%rax
ffffffff80002e4b:	8b 40 78             	mov    0x78(%rax),%eax
ffffffff80002e4e:	89 c2                	mov    %eax,%edx
ffffffff80002e50:	48 8b 8d 18 ff ff ff 	mov    -0xe8(%rbp),%rcx
ffffffff80002e57:	48 8b 85 08 ff ff ff 	mov    -0xf8(%rbp),%rax
ffffffff80002e5e:	48 89 ce             	mov    %rcx,%rsi
ffffffff80002e61:	48 89 c7             	mov    %rax,%rdi
ffffffff80002e64:	41 ff d0             	call   *%r8
ffffffff80002e67:	e9 b1 0b 00 00       	jmp    ffffffff80003a1d <control_sequence_parse+0x149f>
ffffffff80002e6c:	48 8b 85 08 ff ff ff 	mov    -0xf8(%rbp),%rax
ffffffff80002e73:	8b 40 78             	mov    0x78(%rax),%eax
ffffffff80002e76:	8d 50 ff             	lea    -0x1(%rax),%edx
ffffffff80002e79:	48 8b 85 08 ff ff ff 	mov    -0xf8(%rbp),%rax
ffffffff80002e80:	89 50 78             	mov    %edx,0x78(%rax)
ffffffff80002e83:	48 8b 85 08 ff ff ff 	mov    -0xf8(%rbp),%rax
ffffffff80002e8a:	8b 40 78             	mov    0x78(%rax),%eax
ffffffff80002e8d:	89 c2                	mov    %eax,%edx
ffffffff80002e8f:	48 8b 85 08 ff ff ff 	mov    -0xf8(%rbp),%rax
ffffffff80002e96:	48 8b 80 e8 00 00 00 	mov    0xe8(%rax),%rax
ffffffff80002e9d:	48 39 c2             	cmp    %rax,%rdx
ffffffff80002ea0:	72 1b                	jb     ffffffff80002ebd <control_sequence_parse+0x93f>
ffffffff80002ea2:	48 8b 85 08 ff ff ff 	mov    -0xf8(%rbp),%rax
ffffffff80002ea9:	48 8b 80 e8 00 00 00 	mov    0xe8(%rax),%rax
ffffffff80002eb0:	8d 50 ff             	lea    -0x1(%rax),%edx
ffffffff80002eb3:	48 8b 85 08 ff ff ff 	mov    -0xf8(%rbp),%rax
ffffffff80002eba:	89 50 78             	mov    %edx,0x78(%rax)
ffffffff80002ebd:	48 8b 85 08 ff ff ff 	mov    -0xf8(%rbp),%rax
ffffffff80002ec4:	48 8b 88 00 01 00 00 	mov    0x100(%rax),%rcx
ffffffff80002ecb:	48 8b 95 10 ff ff ff 	mov    -0xf0(%rbp),%rdx
ffffffff80002ed2:	48 8b 85 08 ff ff ff 	mov    -0xf8(%rbp),%rax
ffffffff80002ed9:	8b 40 78             	mov    0x78(%rax),%eax
ffffffff80002edc:	89 c6                	mov    %eax,%esi
ffffffff80002ede:	48 8b 85 08 ff ff ff 	mov    -0xf8(%rbp),%rax
ffffffff80002ee5:	48 89 c7             	mov    %rax,%rdi
ffffffff80002ee8:	ff d1                	call   *%rcx
ffffffff80002eea:	e9 2e 0b 00 00       	jmp    ffffffff80003a1d <control_sequence_parse+0x149f>
ffffffff80002eef:	48 8b 85 08 ff ff ff 	mov    -0xf8(%rbp),%rax
ffffffff80002ef6:	8b 40 78             	mov    0x78(%rax),%eax
ffffffff80002ef9:	85 c0                	test   %eax,%eax
ffffffff80002efb:	74 17                	je     ffffffff80002f14 <control_sequence_parse+0x996>
ffffffff80002efd:	48 8b 85 08 ff ff ff 	mov    -0xf8(%rbp),%rax
ffffffff80002f04:	8b 40 78             	mov    0x78(%rax),%eax
ffffffff80002f07:	8d 50 ff             	lea    -0x1(%rax),%edx
ffffffff80002f0a:	48 8b 85 08 ff ff ff 	mov    -0xf8(%rbp),%rax
ffffffff80002f11:	89 50 78             	mov    %edx,0x78(%rax)
ffffffff80002f14:	48 8b 85 08 ff ff ff 	mov    -0xf8(%rbp),%rax
ffffffff80002f1b:	8b 40 7c             	mov    0x7c(%rax),%eax
ffffffff80002f1e:	85 c0                	test   %eax,%eax
ffffffff80002f20:	74 17                	je     ffffffff80002f39 <control_sequence_parse+0x9bb>
ffffffff80002f22:	48 8b 85 08 ff ff ff 	mov    -0xf8(%rbp),%rax
ffffffff80002f29:	8b 40 7c             	mov    0x7c(%rax),%eax
ffffffff80002f2c:	8d 50 ff             	lea    -0x1(%rax),%edx
ffffffff80002f2f:	48 8b 85 08 ff ff ff 	mov    -0xf8(%rbp),%rax
ffffffff80002f36:	89 50 7c             	mov    %edx,0x7c(%rax)
ffffffff80002f39:	48 8b 85 08 ff ff ff 	mov    -0xf8(%rbp),%rax
ffffffff80002f40:	8b 40 7c             	mov    0x7c(%rax),%eax
ffffffff80002f43:	89 c2                	mov    %eax,%edx
ffffffff80002f45:	48 8b 85 08 ff ff ff 	mov    -0xf8(%rbp),%rax
ffffffff80002f4c:	48 8b 80 e8 00 00 00 	mov    0xe8(%rax),%rax
ffffffff80002f53:	48 39 c2             	cmp    %rax,%rdx
ffffffff80002f56:	72 1b                	jb     ffffffff80002f73 <control_sequence_parse+0x9f5>
ffffffff80002f58:	48 8b 85 08 ff ff ff 	mov    -0xf8(%rbp),%rax
ffffffff80002f5f:	48 8b 80 e8 00 00 00 	mov    0xe8(%rax),%rax
ffffffff80002f66:	8d 50 ff             	lea    -0x1(%rax),%edx
ffffffff80002f69:	48 8b 85 08 ff ff ff 	mov    -0xf8(%rbp),%rax
ffffffff80002f70:	89 50 7c             	mov    %edx,0x7c(%rax)
ffffffff80002f73:	48 8b 85 08 ff ff ff 	mov    -0xf8(%rbp),%rax
ffffffff80002f7a:	8b 40 78             	mov    0x78(%rax),%eax
ffffffff80002f7d:	89 c2                	mov    %eax,%edx
ffffffff80002f7f:	48 8b 85 08 ff ff ff 	mov    -0xf8(%rbp),%rax
ffffffff80002f86:	48 8b 80 e0 00 00 00 	mov    0xe0(%rax),%rax
ffffffff80002f8d:	48 39 c2             	cmp    %rax,%rdx
ffffffff80002f90:	72 1b                	jb     ffffffff80002fad <control_sequence_parse+0xa2f>
ffffffff80002f92:	48 8b 85 08 ff ff ff 	mov    -0xf8(%rbp),%rax
ffffffff80002f99:	48 8b 80 e0 00 00 00 	mov    0xe0(%rax),%rax
ffffffff80002fa0:	8d 50 ff             	lea    -0x1(%rax),%edx
ffffffff80002fa3:	48 8b 85 08 ff ff ff 	mov    -0xf8(%rbp),%rax
ffffffff80002faa:	89 50 78             	mov    %edx,0x78(%rax)
ffffffff80002fad:	48 8b 85 08 ff ff ff 	mov    -0xf8(%rbp),%rax
ffffffff80002fb4:	48 8b 88 00 01 00 00 	mov    0x100(%rax),%rcx
ffffffff80002fbb:	48 8b 85 08 ff ff ff 	mov    -0xf8(%rbp),%rax
ffffffff80002fc2:	8b 40 78             	mov    0x78(%rax),%eax
ffffffff80002fc5:	89 c2                	mov    %eax,%edx
ffffffff80002fc7:	48 8b 85 08 ff ff ff 	mov    -0xf8(%rbp),%rax
ffffffff80002fce:	8b 40 7c             	mov    0x7c(%rax),%eax
ffffffff80002fd1:	89 c6                	mov    %eax,%esi
ffffffff80002fd3:	48 8b 85 08 ff ff ff 	mov    -0xf8(%rbp),%rax
ffffffff80002fda:	48 89 c7             	mov    %rax,%rdi
ffffffff80002fdd:	ff d1                	call   *%rcx
ffffffff80002fdf:	e9 39 0a 00 00       	jmp    ffffffff80003a1d <control_sequence_parse+0x149f>
ffffffff80002fe4:	48 8b 85 08 ff ff ff 	mov    -0xf8(%rbp),%rax
ffffffff80002feb:	8b 40 78             	mov    0x78(%rax),%eax
ffffffff80002fee:	89 c2                	mov    %eax,%edx
ffffffff80002ff0:	48 8b 85 08 ff ff ff 	mov    -0xf8(%rbp),%rax
ffffffff80002ff7:	48 8b 80 e0 00 00 00 	mov    0xe0(%rax),%rax
ffffffff80002ffe:	48 39 c2             	cmp    %rax,%rdx
ffffffff80003001:	48 0f 46 c2          	cmovbe %rdx,%rax
ffffffff80003005:	48 89 85 58 ff ff ff 	mov    %rax,-0xa8(%rbp)
ffffffff8000300c:	48 c7 45 c8 00 00 00 	movq   $0x0,-0x38(%rbp)
ffffffff80003013:	00 
ffffffff80003014:	eb 1f                	jmp    ffffffff80003035 <control_sequence_parse+0xab7>
ffffffff80003016:	48 8b 85 08 ff ff ff 	mov    -0xf8(%rbp),%rax
ffffffff8000301d:	48 8b 90 68 01 00 00 	mov    0x168(%rax),%rdx
ffffffff80003024:	48 8b 85 08 ff ff ff 	mov    -0xf8(%rbp),%rax
ffffffff8000302b:	48 89 c7             	mov    %rax,%rdi
ffffffff8000302e:	ff d2                	call   *%rdx
ffffffff80003030:	48 83 45 c8 01       	addq   $0x1,-0x38(%rbp)
ffffffff80003035:	48 8b 45 c8          	mov    -0x38(%rbp),%rax
ffffffff80003039:	48 3b 85 58 ff ff ff 	cmp    -0xa8(%rbp),%rax
ffffffff80003040:	72 d4                	jb     ffffffff80003016 <control_sequence_parse+0xa98>
ffffffff80003042:	e9 d6 09 00 00       	jmp    ffffffff80003a1d <control_sequence_parse+0x149f>
ffffffff80003047:	48 8b 85 08 ff ff ff 	mov    -0xf8(%rbp),%rax
ffffffff8000304e:	48 8b 40 68          	mov    0x68(%rax),%rax
ffffffff80003052:	48 89 85 50 ff ff ff 	mov    %rax,-0xb0(%rbp)
ffffffff80003059:	48 8b 95 10 ff ff ff 	mov    -0xf0(%rbp),%rdx
ffffffff80003060:	48 8b 85 08 ff ff ff 	mov    -0xf8(%rbp),%rax
ffffffff80003067:	48 89 50 68          	mov    %rdx,0x68(%rax)
ffffffff8000306b:	48 8b 85 08 ff ff ff 	mov    -0xf8(%rbp),%rax
ffffffff80003072:	8b 40 78             	mov    0x78(%rax),%eax
ffffffff80003075:	89 c2                	mov    %eax,%edx
ffffffff80003077:	48 8b 85 08 ff ff ff 	mov    -0xf8(%rbp),%rax
ffffffff8000307e:	48 8b 80 e0 00 00 00 	mov    0xe0(%rax),%rax
ffffffff80003085:	48 39 c2             	cmp    %rax,%rdx
ffffffff80003088:	48 0f 46 c2          	cmovbe %rdx,%rax
ffffffff8000308c:	48 89 85 48 ff ff ff 	mov    %rax,-0xb8(%rbp)
ffffffff80003093:	48 c7 45 c0 00 00 00 	movq   $0x0,-0x40(%rbp)
ffffffff8000309a:	00 
ffffffff8000309b:	eb 1f                	jmp    ffffffff800030bc <control_sequence_parse+0xb3e>
ffffffff8000309d:	48 8b 85 08 ff ff ff 	mov    -0xf8(%rbp),%rax
ffffffff800030a4:	48 8b 90 70 01 00 00 	mov    0x170(%rax),%rdx
ffffffff800030ab:	48 8b 85 08 ff ff ff 	mov    -0xf8(%rbp),%rax
ffffffff800030b2:	48 89 c7             	mov    %rax,%rdi
ffffffff800030b5:	ff d2                	call   *%rdx
ffffffff800030b7:	48 83 45 c0 01       	addq   $0x1,-0x40(%rbp)
ffffffff800030bc:	48 8b 45 c0          	mov    -0x40(%rbp),%rax
ffffffff800030c0:	48 3b 85 48 ff ff ff 	cmp    -0xb8(%rbp),%rax
ffffffff800030c7:	72 d4                	jb     ffffffff8000309d <control_sequence_parse+0xb1f>
ffffffff800030c9:	48 8b 85 08 ff ff ff 	mov    -0xf8(%rbp),%rax
ffffffff800030d0:	48 8b 95 50 ff ff ff 	mov    -0xb0(%rbp),%rdx
ffffffff800030d7:	48 89 50 68          	mov    %rdx,0x68(%rax)
ffffffff800030db:	e9 3d 09 00 00       	jmp    ffffffff80003a1d <control_sequence_parse+0x149f>
ffffffff800030e0:	48 8b 85 08 ff ff ff 	mov    -0xf8(%rbp),%rax
ffffffff800030e7:	8b 40 78             	mov    0x78(%rax),%eax
ffffffff800030ea:	83 f8 05             	cmp    $0x5,%eax
ffffffff800030ed:	74 0a                	je     ffffffff800030f9 <control_sequence_parse+0xb7b>
ffffffff800030ef:	83 f8 06             	cmp    $0x6,%eax
ffffffff800030f2:	74 4e                	je     ffffffff80003142 <control_sequence_parse+0xbc4>
ffffffff800030f4:	e9 24 09 00 00       	jmp    ffffffff80003a1d <control_sequence_parse+0x149f>
ffffffff800030f9:	48 8b 85 08 ff ff ff 	mov    -0xf8(%rbp),%rax
ffffffff80003100:	48 8b 80 a8 01 00 00 	mov    0x1a8(%rax),%rax
ffffffff80003107:	48 85 c0             	test   %rax,%rax
ffffffff8000310a:	0f 84 83 00 00 00    	je     ffffffff80003193 <control_sequence_parse+0xc15>
ffffffff80003110:	48 8b 85 08 ff ff ff 	mov    -0xf8(%rbp),%rax
ffffffff80003117:	4c 8b 88 a8 01 00 00 	mov    0x1a8(%rax),%r9
ffffffff8000311e:	48 8b 85 08 ff ff ff 	mov    -0xf8(%rbp),%rax
ffffffff80003125:	41 b8 00 00 00 00    	mov    $0x0,%r8d
ffffffff8000312b:	b9 00 00 00 00       	mov    $0x0,%ecx
ffffffff80003130:	ba 00 00 00 00       	mov    $0x0,%edx
ffffffff80003135:	be 28 00 00 00       	mov    $0x28,%esi
ffffffff8000313a:	48 89 c7             	mov    %rax,%rdi
ffffffff8000313d:	41 ff d1             	call   *%r9
ffffffff80003140:	eb 51                	jmp    ffffffff80003193 <control_sequence_parse+0xc15>
ffffffff80003142:	48 8b 85 08 ff ff ff 	mov    -0xf8(%rbp),%rax
ffffffff80003149:	48 8b 80 a8 01 00 00 	mov    0x1a8(%rax),%rax
ffffffff80003150:	48 85 c0             	test   %rax,%rax
ffffffff80003153:	74 44                	je     ffffffff80003199 <control_sequence_parse+0xc1b>
ffffffff80003155:	48 8b 85 08 ff ff ff 	mov    -0xf8(%rbp),%rax
ffffffff8000315c:	4c 8b 88 a8 01 00 00 	mov    0x1a8(%rax),%r9
ffffffff80003163:	48 8b 85 10 ff ff ff 	mov    -0xf0(%rbp),%rax
ffffffff8000316a:	48 8d 48 01          	lea    0x1(%rax),%rcx
ffffffff8000316e:	48 8b 85 18 ff ff ff 	mov    -0xe8(%rbp),%rax
ffffffff80003175:	48 8d 50 01          	lea    0x1(%rax),%rdx
ffffffff80003179:	48 8b 85 08 ff ff ff 	mov    -0xf8(%rbp),%rax
ffffffff80003180:	41 b8 00 00 00 00    	mov    $0x0,%r8d
ffffffff80003186:	be 32 00 00 00       	mov    $0x32,%esi
ffffffff8000318b:	48 89 c7             	mov    %rax,%rdi
ffffffff8000318e:	41 ff d1             	call   *%r9
ffffffff80003191:	eb 06                	jmp    ffffffff80003199 <control_sequence_parse+0xc1b>
ffffffff80003193:	90                   	nop
ffffffff80003194:	e9 84 08 00 00       	jmp    ffffffff80003a1d <control_sequence_parse+0x149f>
ffffffff80003199:	90                   	nop
ffffffff8000319a:	e9 7e 08 00 00       	jmp    ffffffff80003a1d <control_sequence_parse+0x149f>
ffffffff8000319f:	48 8b 85 08 ff ff ff 	mov    -0xf8(%rbp),%rax
ffffffff800031a6:	48 8b 80 a8 01 00 00 	mov    0x1a8(%rax),%rax
ffffffff800031ad:	48 85 c0             	test   %rax,%rax
ffffffff800031b0:	0f 84 60 08 00 00    	je     ffffffff80003a16 <control_sequence_parse+0x1498>
ffffffff800031b6:	48 8b 85 08 ff ff ff 	mov    -0xf8(%rbp),%rax
ffffffff800031bd:	4c 8b 88 a8 01 00 00 	mov    0x1a8(%rax),%r9
ffffffff800031c4:	48 8b 85 08 ff ff ff 	mov    -0xf8(%rbp),%rax
ffffffff800031cb:	8b 40 78             	mov    0x78(%rax),%eax
ffffffff800031ce:	89 c2                	mov    %eax,%edx
ffffffff800031d0:	48 8b 85 08 ff ff ff 	mov    -0xf8(%rbp),%rax
ffffffff800031d7:	41 b8 00 00 00 00    	mov    $0x0,%r8d
ffffffff800031dd:	b9 00 00 00 00       	mov    $0x0,%ecx
ffffffff800031e2:	be 3c 00 00 00       	mov    $0x3c,%esi
ffffffff800031e7:	48 89 c7             	mov    %rax,%rdi
ffffffff800031ea:	41 ff d1             	call   *%r9
ffffffff800031ed:	e9 24 08 00 00       	jmp    ffffffff80003a16 <control_sequence_parse+0x1498>
ffffffff800031f2:	48 8b 85 08 ff ff ff 	mov    -0xf8(%rbp),%rax
ffffffff800031f9:	8b 40 78             	mov    0x78(%rax),%eax
ffffffff800031fc:	83 f8 03             	cmp    $0x3,%eax
ffffffff800031ff:	0f 87 14 08 00 00    	ja     ffffffff80003a19 <control_sequence_parse+0x149b>
ffffffff80003205:	83 f8 02             	cmp    $0x2,%eax
ffffffff80003208:	0f 83 e1 01 00 00    	jae    ffffffff800033ef <control_sequence_parse+0xe71>
ffffffff8000320e:	85 c0                	test   %eax,%eax
ffffffff80003210:	74 0e                	je     ffffffff80003220 <control_sequence_parse+0xca2>
ffffffff80003212:	83 f8 01             	cmp    $0x1,%eax
ffffffff80003215:	0f 84 e5 00 00 00    	je     ffffffff80003300 <control_sequence_parse+0xd82>
ffffffff8000321b:	e9 f9 07 00 00       	jmp    ffffffff80003a19 <control_sequence_parse+0x149b>
ffffffff80003220:	48 8b 85 08 ff ff ff 	mov    -0xf8(%rbp),%rax
ffffffff80003227:	48 8b 90 e0 00 00 00 	mov    0xe0(%rax),%rdx
ffffffff8000322e:	48 8b 85 10 ff ff ff 	mov    -0xf0(%rbp),%rax
ffffffff80003235:	48 29 c2             	sub    %rax,%rdx
ffffffff80003238:	48 8d 42 ff          	lea    -0x1(%rdx),%rax
ffffffff8000323c:	48 89 85 40 ff ff ff 	mov    %rax,-0xc0(%rbp)
ffffffff80003243:	48 8b 85 08 ff ff ff 	mov    -0xf8(%rbp),%rax
ffffffff8000324a:	48 8b 90 e8 00 00 00 	mov    0xe8(%rax),%rdx
ffffffff80003251:	48 8b 85 18 ff ff ff 	mov    -0xe8(%rbp),%rax
ffffffff80003258:	48 29 c2             	sub    %rax,%rdx
ffffffff8000325b:	48 8d 42 ff          	lea    -0x1(%rdx),%rax
ffffffff8000325f:	48 89 85 38 ff ff ff 	mov    %rax,-0xc8(%rbp)
ffffffff80003266:	48 8b 85 08 ff ff ff 	mov    -0xf8(%rbp),%rax
ffffffff8000326d:	48 8b 80 e8 00 00 00 	mov    0xe8(%rax),%rax
ffffffff80003274:	48 0f af 85 40 ff ff 	imul   -0xc0(%rbp),%rax
ffffffff8000327b:	ff 
ffffffff8000327c:	48 89 c2             	mov    %rax,%rdx
ffffffff8000327f:	48 8b 85 38 ff ff ff 	mov    -0xc8(%rbp),%rax
ffffffff80003286:	48 01 d0             	add    %rdx,%rax
ffffffff80003289:	48 83 c0 01          	add    $0x1,%rax
ffffffff8000328d:	48 89 85 30 ff ff ff 	mov    %rax,-0xd0(%rbp)
ffffffff80003294:	48 c7 45 b8 00 00 00 	movq   $0x0,-0x48(%rbp)
ffffffff8000329b:	00 
ffffffff8000329c:	eb 24                	jmp    ffffffff800032c2 <control_sequence_parse+0xd44>
ffffffff8000329e:	48 8b 85 08 ff ff ff 	mov    -0xf8(%rbp),%rax
ffffffff800032a5:	48 8b 90 f0 00 00 00 	mov    0xf0(%rax),%rdx
ffffffff800032ac:	48 8b 85 08 ff ff ff 	mov    -0xf8(%rbp),%rax
ffffffff800032b3:	be 20 00 00 00       	mov    $0x20,%esi
ffffffff800032b8:	48 89 c7             	mov    %rax,%rdi
ffffffff800032bb:	ff d2                	call   *%rdx
ffffffff800032bd:	48 83 45 b8 01       	addq   $0x1,-0x48(%rbp)
ffffffff800032c2:	48 8b 45 b8          	mov    -0x48(%rbp),%rax
ffffffff800032c6:	48 3b 85 30 ff ff ff 	cmp    -0xd0(%rbp),%rax
ffffffff800032cd:	72 cf                	jb     ffffffff8000329e <control_sequence_parse+0xd20>
ffffffff800032cf:	48 8b 85 08 ff ff ff 	mov    -0xf8(%rbp),%rax
ffffffff800032d6:	4c 8b 80 00 01 00 00 	mov    0x100(%rax),%r8
ffffffff800032dd:	48 8b 95 10 ff ff ff 	mov    -0xf0(%rbp),%rdx
ffffffff800032e4:	48 8b 8d 18 ff ff ff 	mov    -0xe8(%rbp),%rcx
ffffffff800032eb:	48 8b 85 08 ff ff ff 	mov    -0xf8(%rbp),%rax
ffffffff800032f2:	48 89 ce             	mov    %rcx,%rsi
ffffffff800032f5:	48 89 c7             	mov    %rax,%rdi
ffffffff800032f8:	41 ff d0             	call   *%r8
ffffffff800032fb:	e9 0f 01 00 00       	jmp    ffffffff8000340f <control_sequence_parse+0xe91>
ffffffff80003300:	48 8b 85 08 ff ff ff 	mov    -0xf8(%rbp),%rax
ffffffff80003307:	48 8b 88 00 01 00 00 	mov    0x100(%rax),%rcx
ffffffff8000330e:	48 8b 85 08 ff ff ff 	mov    -0xf8(%rbp),%rax
ffffffff80003315:	ba 00 00 00 00       	mov    $0x0,%edx
ffffffff8000331a:	be 00 00 00 00       	mov    $0x0,%esi
ffffffff8000331f:	48 89 c7             	mov    %rax,%rdi
ffffffff80003322:	ff d1                	call   *%rcx
ffffffff80003324:	c6 45 b7 00          	movb   $0x0,-0x49(%rbp)
ffffffff80003328:	48 c7 45 a8 00 00 00 	movq   $0x0,-0x58(%rbp)
ffffffff8000332f:	00 
ffffffff80003330:	e9 9d 00 00 00       	jmp    ffffffff800033d2 <control_sequence_parse+0xe54>
ffffffff80003335:	48 c7 45 a0 00 00 00 	movq   $0x0,-0x60(%rbp)
ffffffff8000333c:	00 
ffffffff8000333d:	eb 70                	jmp    ffffffff800033af <control_sequence_parse+0xe31>
ffffffff8000333f:	48 8b 85 08 ff ff ff 	mov    -0xf8(%rbp),%rax
ffffffff80003346:	48 8b 90 f0 00 00 00 	mov    0xf0(%rax),%rdx
ffffffff8000334d:	48 8b 85 08 ff ff ff 	mov    -0xf8(%rbp),%rax
ffffffff80003354:	be 20 00 00 00       	mov    $0x20,%esi
ffffffff80003359:	48 89 c7             	mov    %rax,%rdi
ffffffff8000335c:	ff d2                	call   *%rdx
ffffffff8000335e:	48 8b 85 18 ff ff ff 	mov    -0xe8(%rbp),%rax
ffffffff80003365:	48 39 45 a0          	cmp    %rax,-0x60(%rbp)
ffffffff80003369:	75 3f                	jne    ffffffff800033aa <control_sequence_parse+0xe2c>
ffffffff8000336b:	48 8b 85 10 ff ff ff 	mov    -0xf0(%rbp),%rax
ffffffff80003372:	48 39 45 a8          	cmp    %rax,-0x58(%rbp)
ffffffff80003376:	75 32                	jne    ffffffff800033aa <control_sequence_parse+0xe2c>
ffffffff80003378:	48 8b 85 08 ff ff ff 	mov    -0xf8(%rbp),%rax
ffffffff8000337f:	4c 8b 80 00 01 00 00 	mov    0x100(%rax),%r8
ffffffff80003386:	48 8b 95 10 ff ff ff 	mov    -0xf0(%rbp),%rdx
ffffffff8000338d:	48 8b 8d 18 ff ff ff 	mov    -0xe8(%rbp),%rcx
ffffffff80003394:	48 8b 85 08 ff ff ff 	mov    -0xf8(%rbp),%rax
ffffffff8000339b:	48 89 ce             	mov    %rcx,%rsi
ffffffff8000339e:	48 89 c7             	mov    %rax,%rdi
ffffffff800033a1:	41 ff d0             	call   *%r8
ffffffff800033a4:	c6 45 b7 01          	movb   $0x1,-0x49(%rbp)
ffffffff800033a8:	eb 1d                	jmp    ffffffff800033c7 <control_sequence_parse+0xe49>
ffffffff800033aa:	48 83 45 a0 01       	addq   $0x1,-0x60(%rbp)
ffffffff800033af:	48 8b 85 08 ff ff ff 	mov    -0xf8(%rbp),%rax
ffffffff800033b6:	48 8b 80 e8 00 00 00 	mov    0xe8(%rax),%rax
ffffffff800033bd:	48 39 45 a0          	cmp    %rax,-0x60(%rbp)
ffffffff800033c1:	0f 82 78 ff ff ff    	jb     ffffffff8000333f <control_sequence_parse+0xdc1>
ffffffff800033c7:	80 7d b7 00          	cmpb   $0x0,-0x49(%rbp)
ffffffff800033cb:	75 1f                	jne    ffffffff800033ec <control_sequence_parse+0xe6e>
ffffffff800033cd:	48 83 45 a8 01       	addq   $0x1,-0x58(%rbp)
ffffffff800033d2:	48 8b 85 08 ff ff ff 	mov    -0xf8(%rbp),%rax
ffffffff800033d9:	48 8b 80 e0 00 00 00 	mov    0xe0(%rax),%rax
ffffffff800033e0:	48 39 45 a8          	cmp    %rax,-0x58(%rbp)
ffffffff800033e4:	0f 82 4b ff ff ff    	jb     ffffffff80003335 <control_sequence_parse+0xdb7>
ffffffff800033ea:	eb 23                	jmp    ffffffff8000340f <control_sequence_parse+0xe91>
ffffffff800033ec:	90                   	nop
ffffffff800033ed:	eb 20                	jmp    ffffffff8000340f <control_sequence_parse+0xe91>
ffffffff800033ef:	48 8b 85 08 ff ff ff 	mov    -0xf8(%rbp),%rax
ffffffff800033f6:	48 8b 90 f8 00 00 00 	mov    0xf8(%rax),%rdx
ffffffff800033fd:	48 8b 85 08 ff ff ff 	mov    -0xf8(%rbp),%rax
ffffffff80003404:	be 00 00 00 00       	mov    $0x0,%esi
ffffffff80003409:	48 89 c7             	mov    %rax,%rdi
ffffffff8000340c:	ff d2                	call   *%rdx
ffffffff8000340e:	90                   	nop
ffffffff8000340f:	e9 05 06 00 00       	jmp    ffffffff80003a19 <control_sequence_parse+0x149b>
ffffffff80003414:	48 8b 85 08 ff ff ff 	mov    -0xf8(%rbp),%rax
ffffffff8000341b:	48 8b 80 e8 00 00 00 	mov    0xe8(%rax),%rax
ffffffff80003422:	48 83 e8 01          	sub    $0x1,%rax
ffffffff80003426:	48 89 45 98          	mov    %rax,-0x68(%rbp)
ffffffff8000342a:	48 8b 85 08 ff ff ff 	mov    -0xf8(%rbp),%rax
ffffffff80003431:	4c 8b 88 60 01 00 00 	mov    0x160(%rax),%r9
ffffffff80003438:	48 8b bd 10 ff ff ff 	mov    -0xf0(%rbp),%rdi
ffffffff8000343f:	48 8b 95 10 ff ff ff 	mov    -0xf0(%rbp),%rdx
ffffffff80003446:	48 8b 85 08 ff ff ff 	mov    -0xf8(%rbp),%rax
ffffffff8000344d:	8b 40 78             	mov    0x78(%rax),%eax
ffffffff80003450:	89 c1                	mov    %eax,%ecx
ffffffff80003452:	48 8b 45 98          	mov    -0x68(%rbp),%rax
ffffffff80003456:	48 8d 34 01          	lea    (%rcx,%rax,1),%rsi
ffffffff8000345a:	48 8b 4d 98          	mov    -0x68(%rbp),%rcx
ffffffff8000345e:	48 8b 85 08 ff ff ff 	mov    -0xf8(%rbp),%rax
ffffffff80003465:	49 89 f8             	mov    %rdi,%r8
ffffffff80003468:	48 89 c7             	mov    %rax,%rdi
ffffffff8000346b:	41 ff d1             	call   *%r9
ffffffff8000346e:	48 8b 85 08 ff ff ff 	mov    -0xf8(%rbp),%rax
ffffffff80003475:	4c 8b 80 00 01 00 00 	mov    0x100(%rax),%r8
ffffffff8000347c:	48 8b 95 10 ff ff ff 	mov    -0xf0(%rbp),%rdx
ffffffff80003483:	48 8b 4d 98          	mov    -0x68(%rbp),%rcx
ffffffff80003487:	48 8b 85 08 ff ff ff 	mov    -0xf8(%rbp),%rax
ffffffff8000348e:	48 89 ce             	mov    %rcx,%rsi
ffffffff80003491:	48 89 c7             	mov    %rax,%rdi
ffffffff80003494:	41 ff d0             	call   *%r8
ffffffff80003497:	48 8b 85 08 ff ff ff 	mov    -0xf8(%rbp),%rax
ffffffff8000349e:	48 8b 90 f0 00 00 00 	mov    0xf0(%rax),%rdx
ffffffff800034a5:	48 8b 85 08 ff ff ff 	mov    -0xf8(%rbp),%rax
ffffffff800034ac:	be 20 00 00 00       	mov    $0x20,%esi
ffffffff800034b1:	48 89 c7             	mov    %rax,%rdi
ffffffff800034b4:	ff d2                	call   *%rdx
ffffffff800034b6:	48 8b 85 18 ff ff ff 	mov    -0xe8(%rbp),%rax
ffffffff800034bd:	48 39 45 98          	cmp    %rax,-0x68(%rbp)
ffffffff800034c1:	74 0a                	je     ffffffff800034cd <control_sequence_parse+0xf4f>
ffffffff800034c3:	48 83 6d 98 01       	subq   $0x1,-0x68(%rbp)
ffffffff800034c8:	e9 5d ff ff ff       	jmp    ffffffff8000342a <control_sequence_parse+0xeac>
ffffffff800034cd:	90                   	nop
ffffffff800034ce:	48 8b 85 08 ff ff ff 	mov    -0xf8(%rbp),%rax
ffffffff800034d5:	4c 8b 80 00 01 00 00 	mov    0x100(%rax),%r8
ffffffff800034dc:	48 8b 95 10 ff ff ff 	mov    -0xf0(%rbp),%rdx
ffffffff800034e3:	48 8b 8d 18 ff ff ff 	mov    -0xe8(%rbp),%rcx
ffffffff800034ea:	48 8b 85 08 ff ff ff 	mov    -0xf8(%rbp),%rax
ffffffff800034f1:	48 89 ce             	mov    %rcx,%rsi
ffffffff800034f4:	48 89 c7             	mov    %rax,%rdi
ffffffff800034f7:	41 ff d0             	call   *%r8
ffffffff800034fa:	e9 1e 05 00 00       	jmp    ffffffff80003a1d <control_sequence_parse+0x149f>
ffffffff800034ff:	48 8b 85 08 ff ff ff 	mov    -0xf8(%rbp),%rax
ffffffff80003506:	8b 40 78             	mov    0x78(%rax),%eax
ffffffff80003509:	89 c2                	mov    %eax,%edx
ffffffff8000350b:	48 8b 85 18 ff ff ff 	mov    -0xe8(%rbp),%rax
ffffffff80003512:	48 01 d0             	add    %rdx,%rax
ffffffff80003515:	48 89 45 90          	mov    %rax,-0x70(%rbp)
ffffffff80003519:	eb 4b                	jmp    ffffffff80003566 <control_sequence_parse+0xfe8>
ffffffff8000351b:	48 8b 85 08 ff ff ff 	mov    -0xf8(%rbp),%rax
ffffffff80003522:	4c 8b 88 60 01 00 00 	mov    0x160(%rax),%r9
ffffffff80003529:	48 8b bd 10 ff ff ff 	mov    -0xf0(%rbp),%rdi
ffffffff80003530:	48 8b 95 10 ff ff ff 	mov    -0xf0(%rbp),%rdx
ffffffff80003537:	48 8b 85 08 ff ff ff 	mov    -0xf8(%rbp),%rax
ffffffff8000353e:	8b 40 78             	mov    0x78(%rax),%eax
ffffffff80003541:	89 c1                	mov    %eax,%ecx
ffffffff80003543:	48 8b 45 90          	mov    -0x70(%rbp),%rax
ffffffff80003547:	48 29 c8             	sub    %rcx,%rax
ffffffff8000354a:	48 89 c6             	mov    %rax,%rsi
ffffffff8000354d:	48 8b 4d 90          	mov    -0x70(%rbp),%rcx
ffffffff80003551:	48 8b 85 08 ff ff ff 	mov    -0xf8(%rbp),%rax
ffffffff80003558:	49 89 f8             	mov    %rdi,%r8
ffffffff8000355b:	48 89 c7             	mov    %rax,%rdi
ffffffff8000355e:	41 ff d1             	call   *%r9
ffffffff80003561:	48 83 45 90 01       	addq   $0x1,-0x70(%rbp)
ffffffff80003566:	48 8b 85 08 ff ff ff 	mov    -0xf8(%rbp),%rax
ffffffff8000356d:	48 8b 80 e8 00 00 00 	mov    0xe8(%rax),%rax
ffffffff80003574:	48 39 45 90          	cmp    %rax,-0x70(%rbp)
ffffffff80003578:	72 a1                	jb     ffffffff8000351b <control_sequence_parse+0xf9d>
ffffffff8000357a:	48 8b 85 08 ff ff ff 	mov    -0xf8(%rbp),%rax
ffffffff80003581:	48 8b 88 00 01 00 00 	mov    0x100(%rax),%rcx
ffffffff80003588:	48 8b 95 10 ff ff ff 	mov    -0xf0(%rbp),%rdx
ffffffff8000358f:	48 8b 85 08 ff ff ff 	mov    -0xf8(%rbp),%rax
ffffffff80003596:	48 8b b0 e8 00 00 00 	mov    0xe8(%rax),%rsi
ffffffff8000359d:	48 8b 85 08 ff ff ff 	mov    -0xf8(%rbp),%rax
ffffffff800035a4:	8b 40 78             	mov    0x78(%rax),%eax
ffffffff800035a7:	89 c0                	mov    %eax,%eax
ffffffff800035a9:	48 29 c6             	sub    %rax,%rsi
ffffffff800035ac:	48 8b 85 08 ff ff ff 	mov    -0xf8(%rbp),%rax
ffffffff800035b3:	48 89 c7             	mov    %rax,%rdi
ffffffff800035b6:	ff d1                	call   *%rcx
ffffffff800035b8:	48 8b 85 08 ff ff ff 	mov    -0xf8(%rbp),%rax
ffffffff800035bf:	8b 40 78             	mov    0x78(%rax),%eax
ffffffff800035c2:	89 c2                	mov    %eax,%edx
ffffffff800035c4:	48 8b 85 08 ff ff ff 	mov    -0xf8(%rbp),%rax
ffffffff800035cb:	48 8b 80 e8 00 00 00 	mov    0xe8(%rax),%rax
ffffffff800035d2:	48 39 c2             	cmp    %rax,%rdx
ffffffff800035d5:	48 0f 46 c2          	cmovbe %rdx,%rax
ffffffff800035d9:	48 89 85 60 ff ff ff 	mov    %rax,-0xa0(%rbp)
ffffffff800035e0:	48 c7 45 88 00 00 00 	movq   $0x0,-0x78(%rbp)
ffffffff800035e7:	00 
ffffffff800035e8:	eb 24                	jmp    ffffffff8000360e <control_sequence_parse+0x1090>
ffffffff800035ea:	48 8b 85 08 ff ff ff 	mov    -0xf8(%rbp),%rax
ffffffff800035f1:	48 8b 90 f0 00 00 00 	mov    0xf0(%rax),%rdx
ffffffff800035f8:	48 8b 85 08 ff ff ff 	mov    -0xf8(%rbp),%rax
ffffffff800035ff:	be 20 00 00 00       	mov    $0x20,%esi
ffffffff80003604:	48 89 c7             	mov    %rax,%rdi
ffffffff80003607:	ff d2                	call   *%rdx
ffffffff80003609:	48 83 45 88 01       	addq   $0x1,-0x78(%rbp)
ffffffff8000360e:	48 8b 45 88          	mov    -0x78(%rbp),%rax
ffffffff80003612:	48 3b 85 60 ff ff ff 	cmp    -0xa0(%rbp),%rax
ffffffff80003619:	72 cf                	jb     ffffffff800035ea <control_sequence_parse+0x106c>
ffffffff8000361b:	48 8b 85 08 ff ff ff 	mov    -0xf8(%rbp),%rax
ffffffff80003622:	4c 8b 80 00 01 00 00 	mov    0x100(%rax),%r8
ffffffff80003629:	48 8b 95 10 ff ff ff 	mov    -0xf0(%rbp),%rdx
ffffffff80003630:	48 8b 8d 18 ff ff ff 	mov    -0xe8(%rbp),%rcx
ffffffff80003637:	48 8b 85 08 ff ff ff 	mov    -0xf8(%rbp),%rax
ffffffff8000363e:	48 89 ce             	mov    %rcx,%rsi
ffffffff80003641:	48 89 c7             	mov    %rax,%rdi
ffffffff80003644:	41 ff d0             	call   *%r8
ffffffff80003647:	e9 d1 03 00 00       	jmp    ffffffff80003a1d <control_sequence_parse+0x149f>
ffffffff8000364c:	48 8b 85 08 ff ff ff 	mov    -0xf8(%rbp),%rax
ffffffff80003653:	48 89 c7             	mov    %rax,%rdi
ffffffff80003656:	e8 82 e1 ff ff       	call   ffffffff800017dd <sgr>
ffffffff8000365b:	e9 bd 03 00 00       	jmp    ffffffff80003a1d <control_sequence_parse+0x149f>
ffffffff80003660:	48 8b 85 08 ff ff ff 	mov    -0xf8(%rbp),%rax
ffffffff80003667:	48 8b 88 08 01 00 00 	mov    0x108(%rax),%rcx
ffffffff8000366e:	48 8b 85 08 ff ff ff 	mov    -0xf8(%rbp),%rax
ffffffff80003675:	48 8d 50 50          	lea    0x50(%rax),%rdx
ffffffff80003679:	48 8b 85 08 ff ff ff 	mov    -0xf8(%rbp),%rax
ffffffff80003680:	48 8d 70 48          	lea    0x48(%rax),%rsi
ffffffff80003684:	48 8b 85 08 ff ff ff 	mov    -0xf8(%rbp),%rax
ffffffff8000368b:	48 89 c7             	mov    %rax,%rdi
ffffffff8000368e:	ff d1                	call   *%rcx
ffffffff80003690:	e9 88 03 00 00       	jmp    ffffffff80003a1d <control_sequence_parse+0x149f>
ffffffff80003695:	48 8b 85 08 ff ff ff 	mov    -0xf8(%rbp),%rax
ffffffff8000369c:	4c 8b 80 00 01 00 00 	mov    0x100(%rax),%r8
ffffffff800036a3:	48 8b 85 08 ff ff ff 	mov    -0xf8(%rbp),%rax
ffffffff800036aa:	48 8b 50 50          	mov    0x50(%rax),%rdx
ffffffff800036ae:	48 8b 85 08 ff ff ff 	mov    -0xf8(%rbp),%rax
ffffffff800036b5:	48 8b 48 48          	mov    0x48(%rax),%rcx
ffffffff800036b9:	48 8b 85 08 ff ff ff 	mov    -0xf8(%rbp),%rax
ffffffff800036c0:	48 89 ce             	mov    %rcx,%rsi
ffffffff800036c3:	48 89 c7             	mov    %rax,%rdi
ffffffff800036c6:	41 ff d0             	call   *%r8
ffffffff800036c9:	e9 4f 03 00 00       	jmp    ffffffff80003a1d <control_sequence_parse+0x149f>
ffffffff800036ce:	48 8b 85 08 ff ff ff 	mov    -0xf8(%rbp),%rax
ffffffff800036d5:	8b 40 78             	mov    0x78(%rax),%eax
ffffffff800036d8:	83 f8 02             	cmp    $0x2,%eax
ffffffff800036db:	0f 84 fc 00 00 00    	je     ffffffff800037dd <control_sequence_parse+0x125f>
ffffffff800036e1:	83 f8 02             	cmp    $0x2,%eax
ffffffff800036e4:	0f 87 32 03 00 00    	ja     ffffffff80003a1c <control_sequence_parse+0x149e>
ffffffff800036ea:	85 c0                	test   %eax,%eax
ffffffff800036ec:	74 0a                	je     ffffffff800036f8 <control_sequence_parse+0x117a>
ffffffff800036ee:	83 f8 01             	cmp    $0x1,%eax
ffffffff800036f1:	74 7b                	je     ffffffff8000376e <control_sequence_parse+0x11f0>
ffffffff800036f3:	e9 24 03 00 00       	jmp    ffffffff80003a1c <control_sequence_parse+0x149e>
ffffffff800036f8:	48 8b 85 18 ff ff ff 	mov    -0xe8(%rbp),%rax
ffffffff800036ff:	48 89 45 80          	mov    %rax,-0x80(%rbp)
ffffffff80003703:	eb 24                	jmp    ffffffff80003729 <control_sequence_parse+0x11ab>
ffffffff80003705:	48 8b 85 08 ff ff ff 	mov    -0xf8(%rbp),%rax
ffffffff8000370c:	48 8b 90 f0 00 00 00 	mov    0xf0(%rax),%rdx
ffffffff80003713:	48 8b 85 08 ff ff ff 	mov    -0xf8(%rbp),%rax
ffffffff8000371a:	be 20 00 00 00       	mov    $0x20,%esi
ffffffff8000371f:	48 89 c7             	mov    %rax,%rdi
ffffffff80003722:	ff d2                	call   *%rdx
ffffffff80003724:	48 83 45 80 01       	addq   $0x1,-0x80(%rbp)
ffffffff80003729:	48 8b 85 08 ff ff ff 	mov    -0xf8(%rbp),%rax
ffffffff80003730:	48 8b 80 e8 00 00 00 	mov    0xe8(%rax),%rax
ffffffff80003737:	48 39 45 80          	cmp    %rax,-0x80(%rbp)
ffffffff8000373b:	72 c8                	jb     ffffffff80003705 <control_sequence_parse+0x1187>
ffffffff8000373d:	48 8b 85 08 ff ff ff 	mov    -0xf8(%rbp),%rax
ffffffff80003744:	4c 8b 80 00 01 00 00 	mov    0x100(%rax),%r8
ffffffff8000374b:	48 8b 95 10 ff ff ff 	mov    -0xf0(%rbp),%rdx
ffffffff80003752:	48 8b 8d 18 ff ff ff 	mov    -0xe8(%rbp),%rcx
ffffffff80003759:	48 8b 85 08 ff ff ff 	mov    -0xf8(%rbp),%rax
ffffffff80003760:	48 89 ce             	mov    %rcx,%rsi
ffffffff80003763:	48 89 c7             	mov    %rax,%rdi
ffffffff80003766:	41 ff d0             	call   *%r8
ffffffff80003769:	e9 0d 01 00 00       	jmp    ffffffff8000387b <control_sequence_parse+0x12fd>
ffffffff8000376e:	48 8b 85 08 ff ff ff 	mov    -0xf8(%rbp),%rax
ffffffff80003775:	48 8b 88 00 01 00 00 	mov    0x100(%rax),%rcx
ffffffff8000377c:	48 8b 95 10 ff ff ff 	mov    -0xf0(%rbp),%rdx
ffffffff80003783:	48 8b 85 08 ff ff ff 	mov    -0xf8(%rbp),%rax
ffffffff8000378a:	be 00 00 00 00       	mov    $0x0,%esi
ffffffff8000378f:	48 89 c7             	mov    %rax,%rdi
ffffffff80003792:	ff d1                	call   *%rcx
ffffffff80003794:	48 c7 85 78 ff ff ff 	movq   $0x0,-0x88(%rbp)
ffffffff8000379b:	00 00 00 00 
ffffffff8000379f:	eb 27                	jmp    ffffffff800037c8 <control_sequence_parse+0x124a>
ffffffff800037a1:	48 8b 85 08 ff ff ff 	mov    -0xf8(%rbp),%rax
ffffffff800037a8:	48 8b 90 f0 00 00 00 	mov    0xf0(%rax),%rdx
ffffffff800037af:	48 8b 85 08 ff ff ff 	mov    -0xf8(%rbp),%rax
ffffffff800037b6:	be 20 00 00 00       	mov    $0x20,%esi
ffffffff800037bb:	48 89 c7             	mov    %rax,%rdi
ffffffff800037be:	ff d2                	call   *%rdx
ffffffff800037c0:	48 83 85 78 ff ff ff 	addq   $0x1,-0x88(%rbp)
ffffffff800037c7:	01 
ffffffff800037c8:	48 8b 85 18 ff ff ff 	mov    -0xe8(%rbp),%rax
ffffffff800037cf:	48 39 85 78 ff ff ff 	cmp    %rax,-0x88(%rbp)
ffffffff800037d6:	72 c9                	jb     ffffffff800037a1 <control_sequence_parse+0x1223>
ffffffff800037d8:	e9 9e 00 00 00       	jmp    ffffffff8000387b <control_sequence_parse+0x12fd>
ffffffff800037dd:	48 8b 85 08 ff ff ff 	mov    -0xf8(%rbp),%rax
ffffffff800037e4:	48 8b 88 00 01 00 00 	mov    0x100(%rax),%rcx
ffffffff800037eb:	48 8b 95 10 ff ff ff 	mov    -0xf0(%rbp),%rdx
ffffffff800037f2:	48 8b 85 08 ff ff ff 	mov    -0xf8(%rbp),%rax
ffffffff800037f9:	be 00 00 00 00       	mov    $0x0,%esi
ffffffff800037fe:	48 89 c7             	mov    %rax,%rdi
ffffffff80003801:	ff d1                	call   *%rcx
ffffffff80003803:	48 c7 85 70 ff ff ff 	movq   $0x0,-0x90(%rbp)
ffffffff8000380a:	00 00 00 00 
ffffffff8000380e:	eb 27                	jmp    ffffffff80003837 <control_sequence_parse+0x12b9>
ffffffff80003810:	48 8b 85 08 ff ff ff 	mov    -0xf8(%rbp),%rax
ffffffff80003817:	48 8b 90 f0 00 00 00 	mov    0xf0(%rax),%rdx
ffffffff8000381e:	48 8b 85 08 ff ff ff 	mov    -0xf8(%rbp),%rax
ffffffff80003825:	be 20 00 00 00       	mov    $0x20,%esi
ffffffff8000382a:	48 89 c7             	mov    %rax,%rdi
ffffffff8000382d:	ff d2                	call   *%rdx
ffffffff8000382f:	48 83 85 70 ff ff ff 	addq   $0x1,-0x90(%rbp)
ffffffff80003836:	01 
ffffffff80003837:	48 8b 85 08 ff ff ff 	mov    -0xf8(%rbp),%rax
ffffffff8000383e:	48 8b 80 e8 00 00 00 	mov    0xe8(%rax),%rax
ffffffff80003845:	48 39 85 70 ff ff ff 	cmp    %rax,-0x90(%rbp)
ffffffff8000384c:	72 c2                	jb     ffffffff80003810 <control_sequence_parse+0x1292>
ffffffff8000384e:	48 8b 85 08 ff ff ff 	mov    -0xf8(%rbp),%rax
ffffffff80003855:	4c 8b 80 00 01 00 00 	mov    0x100(%rax),%r8
ffffffff8000385c:	48 8b 95 10 ff ff ff 	mov    -0xf0(%rbp),%rdx
ffffffff80003863:	48 8b 8d 18 ff ff ff 	mov    -0xe8(%rbp),%rcx
ffffffff8000386a:	48 8b 85 08 ff ff ff 	mov    -0xf8(%rbp),%rax
ffffffff80003871:	48 89 ce             	mov    %rcx,%rsi
ffffffff80003874:	48 89 c7             	mov    %rax,%rdi
ffffffff80003877:	41 ff d0             	call   *%r8
ffffffff8000387a:	90                   	nop
ffffffff8000387b:	e9 9c 01 00 00       	jmp    ffffffff80003a1c <control_sequence_parse+0x149e>
ffffffff80003880:	48 8b 85 08 ff ff ff 	mov    -0xf8(%rbp),%rax
ffffffff80003887:	8b 40 78             	mov    0x78(%rax),%eax
ffffffff8000388a:	85 c0                	test   %eax,%eax
ffffffff8000388c:	75 0e                	jne    ffffffff8000389c <control_sequence_parse+0x131e>
ffffffff8000388e:	48 8b 85 08 ff ff ff 	mov    -0xf8(%rbp),%rax
ffffffff80003895:	c7 40 78 01 00 00 00 	movl   $0x1,0x78(%rax)
ffffffff8000389c:	48 8b 85 08 ff ff ff 	mov    -0xf8(%rbp),%rax
ffffffff800038a3:	8b 40 7c             	mov    0x7c(%rax),%eax
ffffffff800038a6:	85 c0                	test   %eax,%eax
ffffffff800038a8:	75 0e                	jne    ffffffff800038b8 <control_sequence_parse+0x133a>
ffffffff800038aa:	48 8b 85 08 ff ff ff 	mov    -0xf8(%rbp),%rax
ffffffff800038b1:	c7 40 7c 01 00 00 00 	movl   $0x1,0x7c(%rax)
ffffffff800038b8:	48 8b 85 08 ff ff ff 	mov    -0xf8(%rbp),%rax
ffffffff800038bf:	48 c7 40 68 00 00 00 	movq   $0x0,0x68(%rax)
ffffffff800038c6:	00 
ffffffff800038c7:	48 8b 85 08 ff ff ff 	mov    -0xf8(%rbp),%rax
ffffffff800038ce:	48 8b 90 e0 00 00 00 	mov    0xe0(%rax),%rdx
ffffffff800038d5:	48 8b 85 08 ff ff ff 	mov    -0xf8(%rbp),%rax
ffffffff800038dc:	48 89 50 70          	mov    %rdx,0x70(%rax)
ffffffff800038e0:	48 8b 85 08 ff ff ff 	mov    -0xf8(%rbp),%rax
ffffffff800038e7:	48 8b 40 40          	mov    0x40(%rax),%rax
ffffffff800038eb:	48 85 c0             	test   %rax,%rax
ffffffff800038ee:	74 1a                	je     ffffffff8000390a <control_sequence_parse+0x138c>
ffffffff800038f0:	48 8b 85 08 ff ff ff 	mov    -0xf8(%rbp),%rax
ffffffff800038f7:	8b 40 78             	mov    0x78(%rax),%eax
ffffffff800038fa:	83 e8 01             	sub    $0x1,%eax
ffffffff800038fd:	89 c2                	mov    %eax,%edx
ffffffff800038ff:	48 8b 85 08 ff ff ff 	mov    -0xf8(%rbp),%rax
ffffffff80003906:	48 89 50 68          	mov    %rdx,0x68(%rax)
ffffffff8000390a:	48 8b 85 08 ff ff ff 	mov    -0xf8(%rbp),%rax
ffffffff80003911:	48 8b 40 40          	mov    0x40(%rax),%rax
ffffffff80003915:	48 83 f8 01          	cmp    $0x1,%rax
ffffffff80003919:	76 17                	jbe    ffffffff80003932 <control_sequence_parse+0x13b4>
ffffffff8000391b:	48 8b 85 08 ff ff ff 	mov    -0xf8(%rbp),%rax
ffffffff80003922:	8b 40 7c             	mov    0x7c(%rax),%eax
ffffffff80003925:	89 c2                	mov    %eax,%edx
ffffffff80003927:	48 8b 85 08 ff ff ff 	mov    -0xf8(%rbp),%rax
ffffffff8000392e:	48 89 50 70          	mov    %rdx,0x70(%rax)
ffffffff80003932:	48 8b 85 08 ff ff ff 	mov    -0xf8(%rbp),%rax
ffffffff80003939:	48 8b 50 68          	mov    0x68(%rax),%rdx
ffffffff8000393d:	48 8b 85 08 ff ff ff 	mov    -0xf8(%rbp),%rax
ffffffff80003944:	48 8b 80 e0 00 00 00 	mov    0xe0(%rax),%rax
ffffffff8000394b:	48 39 c2             	cmp    %rax,%rdx
ffffffff8000394e:	73 3d                	jae    ffffffff8000398d <control_sequence_parse+0x140f>
ffffffff80003950:	48 8b 85 08 ff ff ff 	mov    -0xf8(%rbp),%rax
ffffffff80003957:	48 8b 40 70          	mov    0x70(%rax),%rax
ffffffff8000395b:	48 8b 95 08 ff ff ff 	mov    -0xf8(%rbp),%rdx
ffffffff80003962:	48 8b 92 e0 00 00 00 	mov    0xe0(%rdx),%rdx
ffffffff80003969:	48 39 c2             	cmp    %rax,%rdx
ffffffff8000396c:	72 1f                	jb     ffffffff8000398d <control_sequence_parse+0x140f>
ffffffff8000396e:	48 8b 85 08 ff ff ff 	mov    -0xf8(%rbp),%rax
ffffffff80003975:	48 8b 50 68          	mov    0x68(%rax),%rdx
ffffffff80003979:	48 8b 85 08 ff ff ff 	mov    -0xf8(%rbp),%rax
ffffffff80003980:	48 8b 40 70          	mov    0x70(%rax),%rax
ffffffff80003984:	48 83 e8 01          	sub    $0x1,%rax
ffffffff80003988:	48 39 c2             	cmp    %rax,%rdx
ffffffff8000398b:	72 28                	jb     ffffffff800039b5 <control_sequence_parse+0x1437>
ffffffff8000398d:	48 8b 85 08 ff ff ff 	mov    -0xf8(%rbp),%rax
ffffffff80003994:	48 c7 40 68 00 00 00 	movq   $0x0,0x68(%rax)
ffffffff8000399b:	00 
ffffffff8000399c:	48 8b 85 08 ff ff ff 	mov    -0xf8(%rbp),%rax
ffffffff800039a3:	48 8b 90 e0 00 00 00 	mov    0xe0(%rax),%rdx
ffffffff800039aa:	48 8b 85 08 ff ff ff 	mov    -0xf8(%rbp),%rax
ffffffff800039b1:	48 89 50 70          	mov    %rdx,0x70(%rax)
ffffffff800039b5:	48 8b 85 08 ff ff ff 	mov    -0xf8(%rbp),%rax
ffffffff800039bc:	48 8b 88 00 01 00 00 	mov    0x100(%rax),%rcx
ffffffff800039c3:	48 8b 85 08 ff ff ff 	mov    -0xf8(%rbp),%rax
ffffffff800039ca:	ba 00 00 00 00       	mov    $0x0,%edx
ffffffff800039cf:	be 00 00 00 00       	mov    $0x0,%esi
ffffffff800039d4:	48 89 c7             	mov    %rax,%rdi
ffffffff800039d7:	ff d1                	call   *%rcx
ffffffff800039d9:	eb 42                	jmp    ffffffff80003a1d <control_sequence_parse+0x149f>
ffffffff800039db:	0f b6 95 04 ff ff ff 	movzbl -0xfc(%rbp),%edx
ffffffff800039e2:	48 8b 85 08 ff ff ff 	mov    -0xf8(%rbp),%rax
ffffffff800039e9:	89 d6                	mov    %edx,%esi
ffffffff800039eb:	48 89 c7             	mov    %rax,%rdi
ffffffff800039ee:	e8 5a ea ff ff       	call   ffffffff8000244d <mode_toggle>
ffffffff800039f3:	eb 28                	jmp    ffffffff80003a1d <control_sequence_parse+0x149f>
ffffffff800039f5:	48 8b 85 08 ff ff ff 	mov    -0xf8(%rbp),%rax
ffffffff800039fc:	48 89 c7             	mov    %rax,%rdi
ffffffff800039ff:	e8 e8 e9 ff ff       	call   ffffffff800023ec <linux_private_parse>
ffffffff80003a04:	eb 17                	jmp    ffffffff80003a1d <control_sequence_parse+0x149f>
ffffffff80003a06:	48 8b 85 08 ff ff ff 	mov    -0xf8(%rbp),%rax
ffffffff80003a0d:	c6 40 16 01          	movb   $0x1,0x16(%rax)
ffffffff80003a11:	eb 3d                	jmp    ffffffff80003a50 <control_sequence_parse+0x14d2>
ffffffff80003a13:	90                   	nop
ffffffff80003a14:	eb 07                	jmp    ffffffff80003a1d <control_sequence_parse+0x149f>
ffffffff80003a16:	90                   	nop
ffffffff80003a17:	eb 04                	jmp    ffffffff80003a1d <control_sequence_parse+0x149f>
ffffffff80003a19:	90                   	nop
ffffffff80003a1a:	eb 01                	jmp    ffffffff80003a1d <control_sequence_parse+0x149f>
ffffffff80003a1c:	90                   	nop
ffffffff80003a1d:	48 8b 85 08 ff ff ff 	mov    -0xf8(%rbp),%rax
ffffffff80003a24:	0f b6 95 6f ff ff ff 	movzbl -0x91(%rbp),%edx
ffffffff80003a2b:	88 50 0a             	mov    %dl,0xa(%rax)
ffffffff80003a2e:	48 8b 85 08 ff ff ff 	mov    -0xf8(%rbp),%rax
ffffffff80003a35:	c6 40 0b 00          	movb   $0x0,0xb(%rax)
ffffffff80003a39:	48 8b 85 08 ff ff ff 	mov    -0xf8(%rbp),%rax
ffffffff80003a40:	c6 40 0c 00          	movb   $0x0,0xc(%rax)
ffffffff80003a44:	eb 0a                	jmp    ffffffff80003a50 <control_sequence_parse+0x14d2>
ffffffff80003a46:	90                   	nop
ffffffff80003a47:	eb 07                	jmp    ffffffff80003a50 <control_sequence_parse+0x14d2>
ffffffff80003a49:	90                   	nop
ffffffff80003a4a:	eb 04                	jmp    ffffffff80003a50 <control_sequence_parse+0x14d2>
ffffffff80003a4c:	90                   	nop
ffffffff80003a4d:	eb 01                	jmp    ffffffff80003a50 <control_sequence_parse+0x14d2>
ffffffff80003a4f:	90                   	nop
ffffffff80003a50:	c9                   	leave
ffffffff80003a51:	c3                   	ret

ffffffff80003a52 <restore_state>:
ffffffff80003a52:	55                   	push   %rbp
ffffffff80003a53:	48 89 e5             	mov    %rsp,%rbp
ffffffff80003a56:	48 83 ec 10          	sub    $0x10,%rsp
ffffffff80003a5a:	48 89 7d f8          	mov    %rdi,-0x8(%rbp)
ffffffff80003a5e:	48 8b 45 f8          	mov    -0x8(%rbp),%rax
ffffffff80003a62:	0f b6 90 c0 00 00 00 	movzbl 0xc0(%rax),%edx
ffffffff80003a69:	48 8b 45 f8          	mov    -0x8(%rbp),%rax
ffffffff80003a6d:	88 50 11             	mov    %dl,0x11(%rax)
ffffffff80003a70:	48 8b 45 f8          	mov    -0x8(%rbp),%rax
ffffffff80003a74:	0f b6 90 c1 00 00 00 	movzbl 0xc1(%rax),%edx
ffffffff80003a7b:	48 8b 45 f8          	mov    -0x8(%rbp),%rax
ffffffff80003a7f:	88 50 12             	mov    %dl,0x12(%rax)
ffffffff80003a82:	48 8b 45 f8          	mov    -0x8(%rbp),%rax
ffffffff80003a86:	0f b6 90 c2 00 00 00 	movzbl 0xc2(%rax),%edx
ffffffff80003a8d:	48 8b 45 f8          	mov    -0x8(%rbp),%rax
ffffffff80003a91:	88 50 13             	mov    %dl,0x13(%rax)
ffffffff80003a94:	48 8b 45 f8          	mov    -0x8(%rbp),%rax
ffffffff80003a98:	48 8b 90 c8 00 00 00 	mov    0xc8(%rax),%rdx
ffffffff80003a9f:	48 8b 45 f8          	mov    -0x8(%rbp),%rax
ffffffff80003aa3:	48 89 50 30          	mov    %rdx,0x30(%rax)
ffffffff80003aa7:	48 8b 45 f8          	mov    -0x8(%rbp),%rax
ffffffff80003aab:	48 8b 90 d0 00 00 00 	mov    0xd0(%rax),%rdx
ffffffff80003ab2:	48 8b 45 f8          	mov    -0x8(%rbp),%rax
ffffffff80003ab6:	48 89 50 58          	mov    %rdx,0x58(%rax)
ffffffff80003aba:	48 8b 45 f8          	mov    -0x8(%rbp),%rax
ffffffff80003abe:	48 8b 90 d8 00 00 00 	mov    0xd8(%rax),%rdx
ffffffff80003ac5:	48 8b 45 f8          	mov    -0x8(%rbp),%rax
ffffffff80003ac9:	48 89 50 60          	mov    %rdx,0x60(%rax)
ffffffff80003acd:	48 8b 45 f8          	mov    -0x8(%rbp),%rax
ffffffff80003ad1:	48 8b 90 88 01 00 00 	mov    0x188(%rax),%rdx
ffffffff80003ad8:	48 8b 45 f8          	mov    -0x8(%rbp),%rax
ffffffff80003adc:	48 89 c7             	mov    %rax,%rdi
ffffffff80003adf:	ff d2                	call   *%rdx
ffffffff80003ae1:	90                   	nop
ffffffff80003ae2:	c9                   	leave
ffffffff80003ae3:	c3                   	ret

ffffffff80003ae4 <save_state>:
ffffffff80003ae4:	55                   	push   %rbp
ffffffff80003ae5:	48 89 e5             	mov    %rsp,%rbp
ffffffff80003ae8:	48 83 ec 10          	sub    $0x10,%rsp
ffffffff80003aec:	48 89 7d f8          	mov    %rdi,-0x8(%rbp)
ffffffff80003af0:	48 8b 45 f8          	mov    -0x8(%rbp),%rax
ffffffff80003af4:	48 8b 90 80 01 00 00 	mov    0x180(%rax),%rdx
ffffffff80003afb:	48 8b 45 f8          	mov    -0x8(%rbp),%rax
ffffffff80003aff:	48 89 c7             	mov    %rax,%rdi
ffffffff80003b02:	ff d2                	call   *%rdx
ffffffff80003b04:	48 8b 45 f8          	mov    -0x8(%rbp),%rax
ffffffff80003b08:	0f b6 50 11          	movzbl 0x11(%rax),%edx
ffffffff80003b0c:	48 8b 45 f8          	mov    -0x8(%rbp),%rax
ffffffff80003b10:	88 90 c0 00 00 00    	mov    %dl,0xc0(%rax)
ffffffff80003b16:	48 8b 45 f8          	mov    -0x8(%rbp),%rax
ffffffff80003b1a:	0f b6 50 12          	movzbl 0x12(%rax),%edx
ffffffff80003b1e:	48 8b 45 f8          	mov    -0x8(%rbp),%rax
ffffffff80003b22:	88 90 c1 00 00 00    	mov    %dl,0xc1(%rax)
ffffffff80003b28:	48 8b 45 f8          	mov    -0x8(%rbp),%rax
ffffffff80003b2c:	0f b6 50 13          	movzbl 0x13(%rax),%edx
ffffffff80003b30:	48 8b 45 f8          	mov    -0x8(%rbp),%rax
ffffffff80003b34:	88 90 c2 00 00 00    	mov    %dl,0xc2(%rax)
ffffffff80003b3a:	48 8b 45 f8          	mov    -0x8(%rbp),%rax
ffffffff80003b3e:	48 8b 50 30          	mov    0x30(%rax),%rdx
ffffffff80003b42:	48 8b 45 f8          	mov    -0x8(%rbp),%rax
ffffffff80003b46:	48 89 90 c8 00 00 00 	mov    %rdx,0xc8(%rax)
ffffffff80003b4d:	48 8b 45 f8          	mov    -0x8(%rbp),%rax
ffffffff80003b51:	48 8b 50 58          	mov    0x58(%rax),%rdx
ffffffff80003b55:	48 8b 45 f8          	mov    -0x8(%rbp),%rax
ffffffff80003b59:	48 89 90 d0 00 00 00 	mov    %rdx,0xd0(%rax)
ffffffff80003b60:	48 8b 45 f8          	mov    -0x8(%rbp),%rax
ffffffff80003b64:	48 8b 50 60          	mov    0x60(%rax),%rdx
ffffffff80003b68:	48 8b 45 f8          	mov    -0x8(%rbp),%rax
ffffffff80003b6c:	48 89 90 d8 00 00 00 	mov    %rdx,0xd8(%rax)
ffffffff80003b73:	90                   	nop
ffffffff80003b74:	c9                   	leave
ffffffff80003b75:	c3                   	ret

ffffffff80003b76 <escape_parse>:
ffffffff80003b76:	55                   	push   %rbp
ffffffff80003b77:	48 89 e5             	mov    %rsp,%rbp
ffffffff80003b7a:	48 83 ec 30          	sub    $0x30,%rsp
ffffffff80003b7e:	48 89 7d d8          	mov    %rdi,-0x28(%rbp)
ffffffff80003b82:	89 f0                	mov    %esi,%eax
ffffffff80003b84:	88 45 d4             	mov    %al,-0x2c(%rbp)
ffffffff80003b87:	48 8b 45 d8          	mov    -0x28(%rbp),%rax
ffffffff80003b8b:	48 8b 40 38          	mov    0x38(%rax),%rax
ffffffff80003b8f:	48 8d 50 01          	lea    0x1(%rax),%rdx
ffffffff80003b93:	48 8b 45 d8          	mov    -0x28(%rbp),%rax
ffffffff80003b97:	48 89 50 38          	mov    %rdx,0x38(%rax)
ffffffff80003b9b:	48 8b 45 d8          	mov    -0x28(%rbp),%rax
ffffffff80003b9f:	0f b6 40 0d          	movzbl 0xd(%rax),%eax
ffffffff80003ba3:	84 c0                	test   %al,%al
ffffffff80003ba5:	74 1a                	je     ffffffff80003bc1 <escape_parse+0x4b>
ffffffff80003ba7:	0f b6 55 d4          	movzbl -0x2c(%rbp),%edx
ffffffff80003bab:	48 8b 45 d8          	mov    -0x28(%rbp),%rax
ffffffff80003baf:	89 d6                	mov    %edx,%esi
ffffffff80003bb1:	48 89 c7             	mov    %rax,%rdi
ffffffff80003bb4:	e8 32 e9 ff ff       	call   ffffffff800024eb <osc_parse>
ffffffff80003bb9:	84 c0                	test   %al,%al
ffffffff80003bbb:	0f 85 4e 03 00 00    	jne    ffffffff80003f0f <escape_parse+0x399>
ffffffff80003bc1:	48 8b 45 d8          	mov    -0x28(%rbp),%rax
ffffffff80003bc5:	0f b6 40 0b          	movzbl 0xb(%rax),%eax
ffffffff80003bc9:	84 c0                	test   %al,%al
ffffffff80003bcb:	74 17                	je     ffffffff80003be4 <escape_parse+0x6e>
ffffffff80003bcd:	0f b6 55 d4          	movzbl -0x2c(%rbp),%edx
ffffffff80003bd1:	48 8b 45 d8          	mov    -0x28(%rbp),%rax
ffffffff80003bd5:	89 d6                	mov    %edx,%esi
ffffffff80003bd7:	48 89 c7             	mov    %rax,%rdi
ffffffff80003bda:	e8 9f e9 ff ff       	call   ffffffff8000257e <control_sequence_parse>
ffffffff80003bdf:	e9 2c 03 00 00       	jmp    ffffffff80003f10 <escape_parse+0x39a>
ffffffff80003be4:	48 8b 45 d8          	mov    -0x28(%rbp),%rax
ffffffff80003be8:	4c 8b 80 08 01 00 00 	mov    0x108(%rax),%r8
ffffffff80003bef:	48 8d 55 e8          	lea    -0x18(%rbp),%rdx
ffffffff80003bf3:	48 8d 4d f0          	lea    -0x10(%rbp),%rcx
ffffffff80003bf7:	48 8b 45 d8          	mov    -0x28(%rbp),%rax
ffffffff80003bfb:	48 89 ce             	mov    %rcx,%rsi
ffffffff80003bfe:	48 89 c7             	mov    %rax,%rdi
ffffffff80003c01:	41 ff d0             	call   *%r8
ffffffff80003c04:	0f b6 45 d4          	movzbl -0x2c(%rbp),%eax
ffffffff80003c08:	83 f8 63             	cmp    $0x63,%eax
ffffffff80003c0b:	0f 84 2e 01 00 00    	je     ffffffff80003d3f <escape_parse+0x1c9>
ffffffff80003c11:	83 f8 63             	cmp    $0x63,%eax
ffffffff80003c14:	0f 8f eb 02 00 00    	jg     ffffffff80003f05 <escape_parse+0x38f>
ffffffff80003c1a:	83 f8 5d             	cmp    $0x5d,%eax
ffffffff80003c1d:	0f 84 92 00 00 00    	je     ffffffff80003cb5 <escape_parse+0x13f>
ffffffff80003c23:	83 f8 5d             	cmp    $0x5d,%eax
ffffffff80003c26:	0f 8f d9 02 00 00    	jg     ffffffff80003f05 <escape_parse+0x38f>
ffffffff80003c2c:	83 f8 5b             	cmp    $0x5b,%eax
ffffffff80003c2f:	0f 84 95 00 00 00    	je     ffffffff80003cca <escape_parse+0x154>
ffffffff80003c35:	83 f8 5b             	cmp    $0x5b,%eax
ffffffff80003c38:	0f 8f c7 02 00 00    	jg     ffffffff80003f05 <escape_parse+0x38f>
ffffffff80003c3e:	83 f8 5a             	cmp    $0x5a,%eax
ffffffff80003c41:	0f 84 71 02 00 00    	je     ffffffff80003eb8 <escape_parse+0x342>
ffffffff80003c47:	83 f8 5a             	cmp    $0x5a,%eax
ffffffff80003c4a:	0f 8f b5 02 00 00    	jg     ffffffff80003f05 <escape_parse+0x38f>
ffffffff80003c50:	83 f8 4d             	cmp    $0x4d,%eax
ffffffff80003c53:	0f 84 f8 01 00 00    	je     ffffffff80003e51 <escape_parse+0x2db>
ffffffff80003c59:	83 f8 4d             	cmp    $0x4d,%eax
ffffffff80003c5c:	0f 8f a3 02 00 00    	jg     ffffffff80003f05 <escape_parse+0x38f>
ffffffff80003c62:	83 f8 45             	cmp    $0x45,%eax
ffffffff80003c65:	0f 84 75 01 00 00    	je     ffffffff80003de0 <escape_parse+0x26a>
ffffffff80003c6b:	83 f8 45             	cmp    $0x45,%eax
ffffffff80003c6e:	0f 8f 91 02 00 00    	jg     ffffffff80003f05 <escape_parse+0x38f>
ffffffff80003c74:	83 f8 44             	cmp    $0x44,%eax
ffffffff80003c77:	0f 84 ec 00 00 00    	je     ffffffff80003d69 <escape_parse+0x1f3>
ffffffff80003c7d:	83 f8 44             	cmp    $0x44,%eax
ffffffff80003c80:	0f 8f 7f 02 00 00    	jg     ffffffff80003f05 <escape_parse+0x38f>
ffffffff80003c86:	83 f8 38             	cmp    $0x38,%eax
ffffffff80003c89:	0f 84 9f 00 00 00    	je     ffffffff80003d2e <escape_parse+0x1b8>
ffffffff80003c8f:	83 f8 38             	cmp    $0x38,%eax
ffffffff80003c92:	0f 8f 6d 02 00 00    	jg     ffffffff80003f05 <escape_parse+0x38f>
ffffffff80003c98:	83 f8 29             	cmp    $0x29,%eax
ffffffff80003c9b:	7f 0e                	jg     ffffffff80003cab <escape_parse+0x135>
ffffffff80003c9d:	83 f8 28             	cmp    $0x28,%eax
ffffffff80003ca0:	0f 8d 4e 02 00 00    	jge    ffffffff80003ef4 <escape_parse+0x37e>
ffffffff80003ca6:	e9 5a 02 00 00       	jmp    ffffffff80003f05 <escape_parse+0x38f>
ffffffff80003cab:	83 f8 37             	cmp    $0x37,%eax
ffffffff80003cae:	74 6d                	je     ffffffff80003d1d <escape_parse+0x1a7>
ffffffff80003cb0:	e9 50 02 00 00       	jmp    ffffffff80003f05 <escape_parse+0x38f>
ffffffff80003cb5:	48 8b 45 d8          	mov    -0x28(%rbp),%rax
ffffffff80003cb9:	c6 40 0e 00          	movb   $0x0,0xe(%rax)
ffffffff80003cbd:	48 8b 45 d8          	mov    -0x28(%rbp),%rax
ffffffff80003cc1:	c6 40 0d 01          	movb   $0x1,0xd(%rax)
ffffffff80003cc5:	e9 46 02 00 00       	jmp    ffffffff80003f10 <escape_parse+0x39a>
ffffffff80003cca:	48 c7 45 f8 00 00 00 	movq   $0x0,-0x8(%rbp)
ffffffff80003cd1:	00 
ffffffff80003cd2:	eb 19                	jmp    ffffffff80003ced <escape_parse+0x177>
ffffffff80003cd4:	48 8b 45 d8          	mov    -0x28(%rbp),%rax
ffffffff80003cd8:	48 8b 55 f8          	mov    -0x8(%rbp),%rdx
ffffffff80003cdc:	48 83 c2 1c          	add    $0x1c,%rdx
ffffffff80003ce0:	c7 44 90 08 00 00 00 	movl   $0x0,0x8(%rax,%rdx,4)
ffffffff80003ce7:	00 
ffffffff80003ce8:	48 83 45 f8 01       	addq   $0x1,-0x8(%rbp)
ffffffff80003ced:	48 83 7d f8 0f       	cmpq   $0xf,-0x8(%rbp)
ffffffff80003cf2:	76 e0                	jbe    ffffffff80003cd4 <escape_parse+0x15e>
ffffffff80003cf4:	48 8b 45 d8          	mov    -0x28(%rbp),%rax
ffffffff80003cf8:	48 c7 40 40 00 00 00 	movq   $0x0,0x40(%rax)
ffffffff80003cff:	00 
ffffffff80003d00:	48 8b 45 d8          	mov    -0x28(%rbp),%rax
ffffffff80003d04:	c6 40 0f 00          	movb   $0x0,0xf(%rax)
ffffffff80003d08:	48 8b 45 d8          	mov    -0x28(%rbp),%rax
ffffffff80003d0c:	c6 40 16 00          	movb   $0x0,0x16(%rax)
ffffffff80003d10:	48 8b 45 d8          	mov    -0x28(%rbp),%rax
ffffffff80003d14:	c6 40 0b 01          	movb   $0x1,0xb(%rax)
ffffffff80003d18:	e9 f3 01 00 00       	jmp    ffffffff80003f10 <escape_parse+0x39a>
ffffffff80003d1d:	48 8b 45 d8          	mov    -0x28(%rbp),%rax
ffffffff80003d21:	48 89 c7             	mov    %rax,%rdi
ffffffff80003d24:	e8 bb fd ff ff       	call   ffffffff80003ae4 <save_state>
ffffffff80003d29:	e9 d7 01 00 00       	jmp    ffffffff80003f05 <escape_parse+0x38f>
ffffffff80003d2e:	48 8b 45 d8          	mov    -0x28(%rbp),%rax
ffffffff80003d32:	48 89 c7             	mov    %rax,%rdi
ffffffff80003d35:	e8 18 fd ff ff       	call   ffffffff80003a52 <restore_state>
ffffffff80003d3a:	e9 c6 01 00 00       	jmp    ffffffff80003f05 <escape_parse+0x38f>
ffffffff80003d3f:	48 8b 45 d8          	mov    -0x28(%rbp),%rax
ffffffff80003d43:	48 89 c7             	mov    %rax,%rdi
ffffffff80003d46:	e8 eb d8 ff ff       	call   ffffffff80001636 <flanterm_context_reinit>
ffffffff80003d4b:	48 8b 45 d8          	mov    -0x28(%rbp),%rax
ffffffff80003d4f:	48 8b 90 f8 00 00 00 	mov    0xf8(%rax),%rdx
ffffffff80003d56:	48 8b 45 d8          	mov    -0x28(%rbp),%rax
ffffffff80003d5a:	be 01 00 00 00       	mov    $0x1,%esi
ffffffff80003d5f:	48 89 c7             	mov    %rax,%rdi
ffffffff80003d62:	ff d2                	call   *%rdx
ffffffff80003d64:	e9 9c 01 00 00       	jmp    ffffffff80003f05 <escape_parse+0x38f>
ffffffff80003d69:	48 8b 45 d8          	mov    -0x28(%rbp),%rax
ffffffff80003d6d:	48 8b 40 70          	mov    0x70(%rax),%rax
ffffffff80003d71:	48 8d 50 ff          	lea    -0x1(%rax),%rdx
ffffffff80003d75:	48 8b 45 e8          	mov    -0x18(%rbp),%rax
ffffffff80003d79:	48 39 c2             	cmp    %rax,%rdx
ffffffff80003d7c:	75 39                	jne    ffffffff80003db7 <escape_parse+0x241>
ffffffff80003d7e:	48 8b 45 d8          	mov    -0x28(%rbp),%rax
ffffffff80003d82:	48 8b 90 68 01 00 00 	mov    0x168(%rax),%rdx
ffffffff80003d89:	48 8b 45 d8          	mov    -0x28(%rbp),%rax
ffffffff80003d8d:	48 89 c7             	mov    %rax,%rdi
ffffffff80003d90:	ff d2                	call   *%rdx
ffffffff80003d92:	48 8b 45 d8          	mov    -0x28(%rbp),%rax
ffffffff80003d96:	4c 8b 80 00 01 00 00 	mov    0x100(%rax),%r8
ffffffff80003d9d:	48 8b 55 e8          	mov    -0x18(%rbp),%rdx
ffffffff80003da1:	48 8b 4d f0          	mov    -0x10(%rbp),%rcx
ffffffff80003da5:	48 8b 45 d8          	mov    -0x28(%rbp),%rax
ffffffff80003da9:	48 89 ce             	mov    %rcx,%rsi
ffffffff80003dac:	48 89 c7             	mov    %rax,%rdi
ffffffff80003daf:	41 ff d0             	call   *%r8
ffffffff80003db2:	e9 4e 01 00 00       	jmp    ffffffff80003f05 <escape_parse+0x38f>
ffffffff80003db7:	48 8b 45 d8          	mov    -0x28(%rbp),%rax
ffffffff80003dbb:	4c 8b 80 00 01 00 00 	mov    0x100(%rax),%r8
ffffffff80003dc2:	48 8b 45 e8          	mov    -0x18(%rbp),%rax
ffffffff80003dc6:	48 8d 50 01          	lea    0x1(%rax),%rdx
ffffffff80003dca:	48 8b 4d f0          	mov    -0x10(%rbp),%rcx
ffffffff80003dce:	48 8b 45 d8          	mov    -0x28(%rbp),%rax
ffffffff80003dd2:	48 89 ce             	mov    %rcx,%rsi
ffffffff80003dd5:	48 89 c7             	mov    %rax,%rdi
ffffffff80003dd8:	41 ff d0             	call   *%r8
ffffffff80003ddb:	e9 25 01 00 00       	jmp    ffffffff80003f05 <escape_parse+0x38f>
ffffffff80003de0:	48 8b 45 d8          	mov    -0x28(%rbp),%rax
ffffffff80003de4:	48 8b 40 70          	mov    0x70(%rax),%rax
ffffffff80003de8:	48 8d 50 ff          	lea    -0x1(%rax),%rdx
ffffffff80003dec:	48 8b 45 e8          	mov    -0x18(%rbp),%rax
ffffffff80003df0:	48 39 c2             	cmp    %rax,%rdx
ffffffff80003df3:	75 36                	jne    ffffffff80003e2b <escape_parse+0x2b5>
ffffffff80003df5:	48 8b 45 d8          	mov    -0x28(%rbp),%rax
ffffffff80003df9:	48 8b 90 68 01 00 00 	mov    0x168(%rax),%rdx
ffffffff80003e00:	48 8b 45 d8          	mov    -0x28(%rbp),%rax
ffffffff80003e04:	48 89 c7             	mov    %rax,%rdi
ffffffff80003e07:	ff d2                	call   *%rdx
ffffffff80003e09:	48 8b 45 d8          	mov    -0x28(%rbp),%rax
ffffffff80003e0d:	48 8b 88 00 01 00 00 	mov    0x100(%rax),%rcx
ffffffff80003e14:	48 8b 55 e8          	mov    -0x18(%rbp),%rdx
ffffffff80003e18:	48 8b 45 d8          	mov    -0x28(%rbp),%rax
ffffffff80003e1c:	be 00 00 00 00       	mov    $0x0,%esi
ffffffff80003e21:	48 89 c7             	mov    %rax,%rdi
ffffffff80003e24:	ff d1                	call   *%rcx
ffffffff80003e26:	e9 da 00 00 00       	jmp    ffffffff80003f05 <escape_parse+0x38f>
ffffffff80003e2b:	48 8b 45 d8          	mov    -0x28(%rbp),%rax
ffffffff80003e2f:	48 8b 88 00 01 00 00 	mov    0x100(%rax),%rcx
ffffffff80003e36:	48 8b 45 e8          	mov    -0x18(%rbp),%rax
ffffffff80003e3a:	48 8d 50 01          	lea    0x1(%rax),%rdx
ffffffff80003e3e:	48 8b 45 d8          	mov    -0x28(%rbp),%rax
ffffffff80003e42:	be 00 00 00 00       	mov    $0x0,%esi
ffffffff80003e47:	48 89 c7             	mov    %rax,%rdi
ffffffff80003e4a:	ff d1                	call   *%rcx
ffffffff80003e4c:	e9 b4 00 00 00       	jmp    ffffffff80003f05 <escape_parse+0x38f>
ffffffff80003e51:	48 8b 45 d8          	mov    -0x28(%rbp),%rax
ffffffff80003e55:	48 8b 50 68          	mov    0x68(%rax),%rdx
ffffffff80003e59:	48 8b 45 e8          	mov    -0x18(%rbp),%rax
ffffffff80003e5d:	48 39 c2             	cmp    %rax,%rdx
ffffffff80003e60:	75 33                	jne    ffffffff80003e95 <escape_parse+0x31f>
ffffffff80003e62:	48 8b 45 d8          	mov    -0x28(%rbp),%rax
ffffffff80003e66:	48 8b 90 70 01 00 00 	mov    0x170(%rax),%rdx
ffffffff80003e6d:	48 8b 45 d8          	mov    -0x28(%rbp),%rax
ffffffff80003e71:	48 89 c7             	mov    %rax,%rdi
ffffffff80003e74:	ff d2                	call   *%rdx
ffffffff80003e76:	48 8b 45 d8          	mov    -0x28(%rbp),%rax
ffffffff80003e7a:	48 8b 88 00 01 00 00 	mov    0x100(%rax),%rcx
ffffffff80003e81:	48 8b 55 e8          	mov    -0x18(%rbp),%rdx
ffffffff80003e85:	48 8b 45 d8          	mov    -0x28(%rbp),%rax
ffffffff80003e89:	be 00 00 00 00       	mov    $0x0,%esi
ffffffff80003e8e:	48 89 c7             	mov    %rax,%rdi
ffffffff80003e91:	ff d1                	call   *%rcx
ffffffff80003e93:	eb 70                	jmp    ffffffff80003f05 <escape_parse+0x38f>
ffffffff80003e95:	48 8b 45 d8          	mov    -0x28(%rbp),%rax
ffffffff80003e99:	48 8b 88 00 01 00 00 	mov    0x100(%rax),%rcx
ffffffff80003ea0:	48 8b 45 e8          	mov    -0x18(%rbp),%rax
ffffffff80003ea4:	48 8d 50 ff          	lea    -0x1(%rax),%rdx
ffffffff80003ea8:	48 8b 45 d8          	mov    -0x28(%rbp),%rax
ffffffff80003eac:	be 00 00 00 00       	mov    $0x0,%esi
ffffffff80003eb1:	48 89 c7             	mov    %rax,%rdi
ffffffff80003eb4:	ff d1                	call   *%rcx
ffffffff80003eb6:	eb 4d                	jmp    ffffffff80003f05 <escape_parse+0x38f>
ffffffff80003eb8:	48 8b 45 d8          	mov    -0x28(%rbp),%rax
ffffffff80003ebc:	48 8b 80 a8 01 00 00 	mov    0x1a8(%rax),%rax
ffffffff80003ec3:	48 85 c0             	test   %rax,%rax
ffffffff80003ec6:	74 3c                	je     ffffffff80003f04 <escape_parse+0x38e>
ffffffff80003ec8:	48 8b 45 d8          	mov    -0x28(%rbp),%rax
ffffffff80003ecc:	4c 8b 88 a8 01 00 00 	mov    0x1a8(%rax),%r9
ffffffff80003ed3:	48 8b 45 d8          	mov    -0x28(%rbp),%rax
ffffffff80003ed7:	41 b8 00 00 00 00    	mov    $0x0,%r8d
ffffffff80003edd:	b9 00 00 00 00       	mov    $0x0,%ecx
ffffffff80003ee2:	ba 00 00 00 00       	mov    $0x0,%edx
ffffffff80003ee7:	be 1e 00 00 00       	mov    $0x1e,%esi
ffffffff80003eec:	48 89 c7             	mov    %rax,%rdi
ffffffff80003eef:	41 ff d1             	call   *%r9
ffffffff80003ef2:	eb 10                	jmp    ffffffff80003f04 <escape_parse+0x38e>
ffffffff80003ef4:	0f b6 45 d4          	movzbl -0x2c(%rbp),%eax
ffffffff80003ef8:	8d 50 d9             	lea    -0x27(%rax),%edx
ffffffff80003efb:	48 8b 45 d8          	mov    -0x28(%rbp),%rax
ffffffff80003eff:	88 50 28             	mov    %dl,0x28(%rax)
ffffffff80003f02:	eb 01                	jmp    ffffffff80003f05 <escape_parse+0x38f>
ffffffff80003f04:	90                   	nop
ffffffff80003f05:	48 8b 45 d8          	mov    -0x28(%rbp),%rax
ffffffff80003f09:	c6 40 0c 00          	movb   $0x0,0xc(%rax)
ffffffff80003f0d:	eb 01                	jmp    ffffffff80003f10 <escape_parse+0x39a>
ffffffff80003f0f:	90                   	nop
ffffffff80003f10:	c9                   	leave
ffffffff80003f11:	c3                   	ret

ffffffff80003f12 <dec_special_print>:
ffffffff80003f12:	55                   	push   %rbp
ffffffff80003f13:	48 89 e5             	mov    %rsp,%rbp
ffffffff80003f16:	48 83 ec 10          	sub    $0x10,%rsp
ffffffff80003f1a:	48 89 7d f8          	mov    %rdi,-0x8(%rbp)
ffffffff80003f1e:	89 f0                	mov    %esi,%eax
ffffffff80003f20:	88 45 f4             	mov    %al,-0xc(%rbp)
ffffffff80003f23:	0f b6 45 f4          	movzbl -0xc(%rbp),%eax
ffffffff80003f27:	83 f8 7e             	cmp    $0x7e,%eax
ffffffff80003f2a:	0f 84 f7 04 00 00    	je     ffffffff80004427 <dec_special_print+0x515>
ffffffff80003f30:	83 f8 7e             	cmp    $0x7e,%eax
ffffffff80003f33:	0f 8f 91 05 00 00    	jg     ffffffff800044ca <dec_special_print+0x5b8>
ffffffff80003f39:	83 f8 7d             	cmp    $0x7d,%eax
ffffffff80003f3c:	0f 84 68 05 00 00    	je     ffffffff800044aa <dec_special_print+0x598>
ffffffff80003f42:	83 f8 7d             	cmp    $0x7d,%eax
ffffffff80003f45:	0f 8f 7f 05 00 00    	jg     ffffffff800044ca <dec_special_print+0x5b8>
ffffffff80003f4b:	83 f8 7b             	cmp    $0x7b,%eax
ffffffff80003f4e:	0f 84 36 05 00 00    	je     ffffffff8000448a <dec_special_print+0x578>
ffffffff80003f54:	83 f8 7b             	cmp    $0x7b,%eax
ffffffff80003f57:	0f 8f 6d 05 00 00    	jg     ffffffff800044ca <dec_special_print+0x5b8>
ffffffff80003f5d:	83 f8 7a             	cmp    $0x7a,%eax
ffffffff80003f60:	0f 84 9e 04 00 00    	je     ffffffff80004404 <dec_special_print+0x4f2>
ffffffff80003f66:	83 f8 7a             	cmp    $0x7a,%eax
ffffffff80003f69:	0f 8f 5b 05 00 00    	jg     ffffffff800044ca <dec_special_print+0x5b8>
ffffffff80003f6f:	83 f8 79             	cmp    $0x79,%eax
ffffffff80003f72:	0f 84 69 04 00 00    	je     ffffffff800043e1 <dec_special_print+0x4cf>
ffffffff80003f78:	83 f8 79             	cmp    $0x79,%eax
ffffffff80003f7b:	0f 8f 49 05 00 00    	jg     ffffffff800044ca <dec_special_print+0x5b8>
ffffffff80003f81:	83 f8 78             	cmp    $0x78,%eax
ffffffff80003f84:	0f 84 34 04 00 00    	je     ffffffff800043be <dec_special_print+0x4ac>
ffffffff80003f8a:	83 f8 78             	cmp    $0x78,%eax
ffffffff80003f8d:	0f 8f 37 05 00 00    	jg     ffffffff800044ca <dec_special_print+0x5b8>
ffffffff80003f93:	83 f8 77             	cmp    $0x77,%eax
ffffffff80003f96:	0f 84 ff 03 00 00    	je     ffffffff8000439b <dec_special_print+0x489>
ffffffff80003f9c:	83 f8 77             	cmp    $0x77,%eax
ffffffff80003f9f:	0f 8f 25 05 00 00    	jg     ffffffff800044ca <dec_special_print+0x5b8>
ffffffff80003fa5:	83 f8 76             	cmp    $0x76,%eax
ffffffff80003fa8:	0f 84 ca 03 00 00    	je     ffffffff80004378 <dec_special_print+0x466>
ffffffff80003fae:	83 f8 76             	cmp    $0x76,%eax
ffffffff80003fb1:	0f 8f 13 05 00 00    	jg     ffffffff800044ca <dec_special_print+0x5b8>
ffffffff80003fb7:	83 f8 75             	cmp    $0x75,%eax
ffffffff80003fba:	0f 84 95 03 00 00    	je     ffffffff80004355 <dec_special_print+0x443>
ffffffff80003fc0:	83 f8 75             	cmp    $0x75,%eax
ffffffff80003fc3:	0f 8f 01 05 00 00    	jg     ffffffff800044ca <dec_special_print+0x5b8>
ffffffff80003fc9:	83 f8 74             	cmp    $0x74,%eax
ffffffff80003fcc:	0f 84 60 03 00 00    	je     ffffffff80004332 <dec_special_print+0x420>
ffffffff80003fd2:	83 f8 74             	cmp    $0x74,%eax
ffffffff80003fd5:	0f 8f ef 04 00 00    	jg     ffffffff800044ca <dec_special_print+0x5b8>
ffffffff80003fdb:	83 f8 73             	cmp    $0x73,%eax
ffffffff80003fde:	0f 84 2b 03 00 00    	je     ffffffff8000430f <dec_special_print+0x3fd>
ffffffff80003fe4:	83 f8 73             	cmp    $0x73,%eax
ffffffff80003fe7:	0f 8f dd 04 00 00    	jg     ffffffff800044ca <dec_special_print+0x5b8>
ffffffff80003fed:	83 f8 71             	cmp    $0x71,%eax
ffffffff80003ff0:	0f 84 f6 02 00 00    	je     ffffffff800042ec <dec_special_print+0x3da>
ffffffff80003ff6:	83 f8 71             	cmp    $0x71,%eax
ffffffff80003ff9:	0f 8f cb 04 00 00    	jg     ffffffff800044ca <dec_special_print+0x5b8>
ffffffff80003fff:	83 f8 6e             	cmp    $0x6e,%eax
ffffffff80004002:	0f 84 c1 02 00 00    	je     ffffffff800042c9 <dec_special_print+0x3b7>
ffffffff80004008:	83 f8 6e             	cmp    $0x6e,%eax
ffffffff8000400b:	0f 8f b9 04 00 00    	jg     ffffffff800044ca <dec_special_print+0x5b8>
ffffffff80004011:	83 f8 6d             	cmp    $0x6d,%eax
ffffffff80004014:	0f 84 8c 02 00 00    	je     ffffffff800042a6 <dec_special_print+0x394>
ffffffff8000401a:	83 f8 6d             	cmp    $0x6d,%eax
ffffffff8000401d:	0f 8f a7 04 00 00    	jg     ffffffff800044ca <dec_special_print+0x5b8>
ffffffff80004023:	83 f8 6c             	cmp    $0x6c,%eax
ffffffff80004026:	0f 84 57 02 00 00    	je     ffffffff80004283 <dec_special_print+0x371>
ffffffff8000402c:	83 f8 6c             	cmp    $0x6c,%eax
ffffffff8000402f:	0f 8f 95 04 00 00    	jg     ffffffff800044ca <dec_special_print+0x5b8>
ffffffff80004035:	83 f8 6b             	cmp    $0x6b,%eax
ffffffff80004038:	0f 84 22 02 00 00    	je     ffffffff80004260 <dec_special_print+0x34e>
ffffffff8000403e:	83 f8 6b             	cmp    $0x6b,%eax
ffffffff80004041:	0f 8f 83 04 00 00    	jg     ffffffff800044ca <dec_special_print+0x5b8>
ffffffff80004047:	83 f8 6a             	cmp    $0x6a,%eax
ffffffff8000404a:	0f 84 ed 01 00 00    	je     ffffffff8000423d <dec_special_print+0x32b>
ffffffff80004050:	83 f8 6a             	cmp    $0x6a,%eax
ffffffff80004053:	0f 8f 71 04 00 00    	jg     ffffffff800044ca <dec_special_print+0x5b8>
ffffffff80004059:	83 f8 68             	cmp    $0x68,%eax
ffffffff8000405c:	0f 84 b8 01 00 00    	je     ffffffff8000421a <dec_special_print+0x308>
ffffffff80004062:	83 f8 68             	cmp    $0x68,%eax
ffffffff80004065:	0f 8f 5f 04 00 00    	jg     ffffffff800044ca <dec_special_print+0x5b8>
ffffffff8000406b:	83 f8 67             	cmp    $0x67,%eax
ffffffff8000406e:	0f 84 83 01 00 00    	je     ffffffff800041f7 <dec_special_print+0x2e5>
ffffffff80004074:	83 f8 67             	cmp    $0x67,%eax
ffffffff80004077:	0f 8f 4d 04 00 00    	jg     ffffffff800044ca <dec_special_print+0x5b8>
ffffffff8000407d:	83 f8 66             	cmp    $0x66,%eax
ffffffff80004080:	0f 84 4e 01 00 00    	je     ffffffff800041d4 <dec_special_print+0x2c2>
ffffffff80004086:	83 f8 66             	cmp    $0x66,%eax
ffffffff80004089:	0f 8f 3b 04 00 00    	jg     ffffffff800044ca <dec_special_print+0x5b8>
ffffffff8000408f:	83 f8 61             	cmp    $0x61,%eax
ffffffff80004092:	0f 84 19 01 00 00    	je     ffffffff800041b1 <dec_special_print+0x29f>
ffffffff80004098:	83 f8 61             	cmp    $0x61,%eax
ffffffff8000409b:	0f 8f 29 04 00 00    	jg     ffffffff800044ca <dec_special_print+0x5b8>
ffffffff800040a1:	83 f8 60             	cmp    $0x60,%eax
ffffffff800040a4:	74 5c                	je     ffffffff80004102 <dec_special_print+0x1f0>
ffffffff800040a6:	83 f8 60             	cmp    $0x60,%eax
ffffffff800040a9:	0f 8f 1b 04 00 00    	jg     ffffffff800044ca <dec_special_print+0x5b8>
ffffffff800040af:	83 f8 5f             	cmp    $0x5f,%eax
ffffffff800040b2:	0f 84 92 03 00 00    	je     ffffffff8000444a <dec_special_print+0x538>
ffffffff800040b8:	83 f8 5f             	cmp    $0x5f,%eax
ffffffff800040bb:	0f 8f 09 04 00 00    	jg     ffffffff800044ca <dec_special_print+0x5b8>
ffffffff800040c1:	83 f8 30             	cmp    $0x30,%eax
ffffffff800040c4:	74 5f                	je     ffffffff80004125 <dec_special_print+0x213>
ffffffff800040c6:	83 f8 30             	cmp    $0x30,%eax
ffffffff800040c9:	0f 8f fb 03 00 00    	jg     ffffffff800044ca <dec_special_print+0x5b8>
ffffffff800040cf:	83 f8 2e             	cmp    $0x2e,%eax
ffffffff800040d2:	0f 84 b6 00 00 00    	je     ffffffff8000418e <dec_special_print+0x27c>
ffffffff800040d8:	83 f8 2e             	cmp    $0x2e,%eax
ffffffff800040db:	0f 8f e9 03 00 00    	jg     ffffffff800044ca <dec_special_print+0x5b8>
ffffffff800040e1:	83 f8 2d             	cmp    $0x2d,%eax
ffffffff800040e4:	74 62                	je     ffffffff80004148 <dec_special_print+0x236>
ffffffff800040e6:	83 f8 2d             	cmp    $0x2d,%eax
ffffffff800040e9:	0f 8f db 03 00 00    	jg     ffffffff800044ca <dec_special_print+0x5b8>
ffffffff800040ef:	83 f8 2b             	cmp    $0x2b,%eax
ffffffff800040f2:	0f 84 72 03 00 00    	je     ffffffff8000446a <dec_special_print+0x558>
ffffffff800040f8:	83 f8 2c             	cmp    $0x2c,%eax
ffffffff800040fb:	74 6e                	je     ffffffff8000416b <dec_special_print+0x259>
ffffffff800040fd:	e9 c8 03 00 00       	jmp    ffffffff800044ca <dec_special_print+0x5b8>
ffffffff80004102:	48 8b 45 f8          	mov    -0x8(%rbp),%rax
ffffffff80004106:	48 8b 90 f0 00 00 00 	mov    0xf0(%rax),%rdx
ffffffff8000410d:	48 8b 45 f8          	mov    -0x8(%rbp),%rax
ffffffff80004111:	be 04 00 00 00       	mov    $0x4,%esi
ffffffff80004116:	48 89 c7             	mov    %rax,%rdi
ffffffff80004119:	ff d2                	call   *%rdx
ffffffff8000411b:	b8 01 00 00 00       	mov    $0x1,%eax
ffffffff80004120:	e9 aa 03 00 00       	jmp    ffffffff800044cf <dec_special_print+0x5bd>
ffffffff80004125:	48 8b 45 f8          	mov    -0x8(%rbp),%rax
ffffffff80004129:	48 8b 90 f0 00 00 00 	mov    0xf0(%rax),%rdx
ffffffff80004130:	48 8b 45 f8          	mov    -0x8(%rbp),%rax
ffffffff80004134:	be db 00 00 00       	mov    $0xdb,%esi
ffffffff80004139:	48 89 c7             	mov    %rax,%rdi
ffffffff8000413c:	ff d2                	call   *%rdx
ffffffff8000413e:	b8 01 00 00 00       	mov    $0x1,%eax
ffffffff80004143:	e9 87 03 00 00       	jmp    ffffffff800044cf <dec_special_print+0x5bd>
ffffffff80004148:	48 8b 45 f8          	mov    -0x8(%rbp),%rax
ffffffff8000414c:	48 8b 90 f0 00 00 00 	mov    0xf0(%rax),%rdx
ffffffff80004153:	48 8b 45 f8          	mov    -0x8(%rbp),%rax
ffffffff80004157:	be 18 00 00 00       	mov    $0x18,%esi
ffffffff8000415c:	48 89 c7             	mov    %rax,%rdi
ffffffff8000415f:	ff d2                	call   *%rdx
ffffffff80004161:	b8 01 00 00 00       	mov    $0x1,%eax
ffffffff80004166:	e9 64 03 00 00       	jmp    ffffffff800044cf <dec_special_print+0x5bd>
ffffffff8000416b:	48 8b 45 f8          	mov    -0x8(%rbp),%rax
ffffffff8000416f:	48 8b 90 f0 00 00 00 	mov    0xf0(%rax),%rdx
ffffffff80004176:	48 8b 45 f8          	mov    -0x8(%rbp),%rax
ffffffff8000417a:	be 1b 00 00 00       	mov    $0x1b,%esi
ffffffff8000417f:	48 89 c7             	mov    %rax,%rdi
ffffffff80004182:	ff d2                	call   *%rdx
ffffffff80004184:	b8 01 00 00 00       	mov    $0x1,%eax
ffffffff80004189:	e9 41 03 00 00       	jmp    ffffffff800044cf <dec_special_print+0x5bd>
ffffffff8000418e:	48 8b 45 f8          	mov    -0x8(%rbp),%rax
ffffffff80004192:	48 8b 90 f0 00 00 00 	mov    0xf0(%rax),%rdx
ffffffff80004199:	48 8b 45 f8          	mov    -0x8(%rbp),%rax
ffffffff8000419d:	be 19 00 00 00       	mov    $0x19,%esi
ffffffff800041a2:	48 89 c7             	mov    %rax,%rdi
ffffffff800041a5:	ff d2                	call   *%rdx
ffffffff800041a7:	b8 01 00 00 00       	mov    $0x1,%eax
ffffffff800041ac:	e9 1e 03 00 00       	jmp    ffffffff800044cf <dec_special_print+0x5bd>
ffffffff800041b1:	48 8b 45 f8          	mov    -0x8(%rbp),%rax
ffffffff800041b5:	48 8b 90 f0 00 00 00 	mov    0xf0(%rax),%rdx
ffffffff800041bc:	48 8b 45 f8          	mov    -0x8(%rbp),%rax
ffffffff800041c0:	be b1 00 00 00       	mov    $0xb1,%esi
ffffffff800041c5:	48 89 c7             	mov    %rax,%rdi
ffffffff800041c8:	ff d2                	call   *%rdx
ffffffff800041ca:	b8 01 00 00 00       	mov    $0x1,%eax
ffffffff800041cf:	e9 fb 02 00 00       	jmp    ffffffff800044cf <dec_special_print+0x5bd>
ffffffff800041d4:	48 8b 45 f8          	mov    -0x8(%rbp),%rax
ffffffff800041d8:	48 8b 90 f0 00 00 00 	mov    0xf0(%rax),%rdx
ffffffff800041df:	48 8b 45 f8          	mov    -0x8(%rbp),%rax
ffffffff800041e3:	be f8 00 00 00       	mov    $0xf8,%esi
ffffffff800041e8:	48 89 c7             	mov    %rax,%rdi
ffffffff800041eb:	ff d2                	call   *%rdx
ffffffff800041ed:	b8 01 00 00 00       	mov    $0x1,%eax
ffffffff800041f2:	e9 d8 02 00 00       	jmp    ffffffff800044cf <dec_special_print+0x5bd>
ffffffff800041f7:	48 8b 45 f8          	mov    -0x8(%rbp),%rax
ffffffff800041fb:	48 8b 90 f0 00 00 00 	mov    0xf0(%rax),%rdx
ffffffff80004202:	48 8b 45 f8          	mov    -0x8(%rbp),%rax
ffffffff80004206:	be f1 00 00 00       	mov    $0xf1,%esi
ffffffff8000420b:	48 89 c7             	mov    %rax,%rdi
ffffffff8000420e:	ff d2                	call   *%rdx
ffffffff80004210:	b8 01 00 00 00       	mov    $0x1,%eax
ffffffff80004215:	e9 b5 02 00 00       	jmp    ffffffff800044cf <dec_special_print+0x5bd>
ffffffff8000421a:	48 8b 45 f8          	mov    -0x8(%rbp),%rax
ffffffff8000421e:	48 8b 90 f0 00 00 00 	mov    0xf0(%rax),%rdx
ffffffff80004225:	48 8b 45 f8          	mov    -0x8(%rbp),%rax
ffffffff80004229:	be b0 00 00 00       	mov    $0xb0,%esi
ffffffff8000422e:	48 89 c7             	mov    %rax,%rdi
ffffffff80004231:	ff d2                	call   *%rdx
ffffffff80004233:	b8 01 00 00 00       	mov    $0x1,%eax
ffffffff80004238:	e9 92 02 00 00       	jmp    ffffffff800044cf <dec_special_print+0x5bd>
ffffffff8000423d:	48 8b 45 f8          	mov    -0x8(%rbp),%rax
ffffffff80004241:	48 8b 90 f0 00 00 00 	mov    0xf0(%rax),%rdx
ffffffff80004248:	48 8b 45 f8          	mov    -0x8(%rbp),%rax
ffffffff8000424c:	be d9 00 00 00       	mov    $0xd9,%esi
ffffffff80004251:	48 89 c7             	mov    %rax,%rdi
ffffffff80004254:	ff d2                	call   *%rdx
ffffffff80004256:	b8 01 00 00 00       	mov    $0x1,%eax
ffffffff8000425b:	e9 6f 02 00 00       	jmp    ffffffff800044cf <dec_special_print+0x5bd>
ffffffff80004260:	48 8b 45 f8          	mov    -0x8(%rbp),%rax
ffffffff80004264:	48 8b 90 f0 00 00 00 	mov    0xf0(%rax),%rdx
ffffffff8000426b:	48 8b 45 f8          	mov    -0x8(%rbp),%rax
ffffffff8000426f:	be bf 00 00 00       	mov    $0xbf,%esi
ffffffff80004274:	48 89 c7             	mov    %rax,%rdi
ffffffff80004277:	ff d2                	call   *%rdx
ffffffff80004279:	b8 01 00 00 00       	mov    $0x1,%eax
ffffffff8000427e:	e9 4c 02 00 00       	jmp    ffffffff800044cf <dec_special_print+0x5bd>
ffffffff80004283:	48 8b 45 f8          	mov    -0x8(%rbp),%rax
ffffffff80004287:	48 8b 90 f0 00 00 00 	mov    0xf0(%rax),%rdx
ffffffff8000428e:	48 8b 45 f8          	mov    -0x8(%rbp),%rax
ffffffff80004292:	be da 00 00 00       	mov    $0xda,%esi
ffffffff80004297:	48 89 c7             	mov    %rax,%rdi
ffffffff8000429a:	ff d2                	call   *%rdx
ffffffff8000429c:	b8 01 00 00 00       	mov    $0x1,%eax
ffffffff800042a1:	e9 29 02 00 00       	jmp    ffffffff800044cf <dec_special_print+0x5bd>
ffffffff800042a6:	48 8b 45 f8          	mov    -0x8(%rbp),%rax
ffffffff800042aa:	48 8b 90 f0 00 00 00 	mov    0xf0(%rax),%rdx
ffffffff800042b1:	48 8b 45 f8          	mov    -0x8(%rbp),%rax
ffffffff800042b5:	be c0 00 00 00       	mov    $0xc0,%esi
ffffffff800042ba:	48 89 c7             	mov    %rax,%rdi
ffffffff800042bd:	ff d2                	call   *%rdx
ffffffff800042bf:	b8 01 00 00 00       	mov    $0x1,%eax
ffffffff800042c4:	e9 06 02 00 00       	jmp    ffffffff800044cf <dec_special_print+0x5bd>
ffffffff800042c9:	48 8b 45 f8          	mov    -0x8(%rbp),%rax
ffffffff800042cd:	48 8b 90 f0 00 00 00 	mov    0xf0(%rax),%rdx
ffffffff800042d4:	48 8b 45 f8          	mov    -0x8(%rbp),%rax
ffffffff800042d8:	be c5 00 00 00       	mov    $0xc5,%esi
ffffffff800042dd:	48 89 c7             	mov    %rax,%rdi
ffffffff800042e0:	ff d2                	call   *%rdx
ffffffff800042e2:	b8 01 00 00 00       	mov    $0x1,%eax
ffffffff800042e7:	e9 e3 01 00 00       	jmp    ffffffff800044cf <dec_special_print+0x5bd>
ffffffff800042ec:	48 8b 45 f8          	mov    -0x8(%rbp),%rax
ffffffff800042f0:	48 8b 90 f0 00 00 00 	mov    0xf0(%rax),%rdx
ffffffff800042f7:	48 8b 45 f8          	mov    -0x8(%rbp),%rax
ffffffff800042fb:	be c4 00 00 00       	mov    $0xc4,%esi
ffffffff80004300:	48 89 c7             	mov    %rax,%rdi
ffffffff80004303:	ff d2                	call   *%rdx
ffffffff80004305:	b8 01 00 00 00       	mov    $0x1,%eax
ffffffff8000430a:	e9 c0 01 00 00       	jmp    ffffffff800044cf <dec_special_print+0x5bd>
ffffffff8000430f:	48 8b 45 f8          	mov    -0x8(%rbp),%rax
ffffffff80004313:	48 8b 90 f0 00 00 00 	mov    0xf0(%rax),%rdx
ffffffff8000431a:	48 8b 45 f8          	mov    -0x8(%rbp),%rax
ffffffff8000431e:	be 5f 00 00 00       	mov    $0x5f,%esi
ffffffff80004323:	48 89 c7             	mov    %rax,%rdi
ffffffff80004326:	ff d2                	call   *%rdx
ffffffff80004328:	b8 01 00 00 00       	mov    $0x1,%eax
ffffffff8000432d:	e9 9d 01 00 00       	jmp    ffffffff800044cf <dec_special_print+0x5bd>
ffffffff80004332:	48 8b 45 f8          	mov    -0x8(%rbp),%rax
ffffffff80004336:	48 8b 90 f0 00 00 00 	mov    0xf0(%rax),%rdx
ffffffff8000433d:	48 8b 45 f8          	mov    -0x8(%rbp),%rax
ffffffff80004341:	be c3 00 00 00       	mov    $0xc3,%esi
ffffffff80004346:	48 89 c7             	mov    %rax,%rdi
ffffffff80004349:	ff d2                	call   *%rdx
ffffffff8000434b:	b8 01 00 00 00       	mov    $0x1,%eax
ffffffff80004350:	e9 7a 01 00 00       	jmp    ffffffff800044cf <dec_special_print+0x5bd>
ffffffff80004355:	48 8b 45 f8          	mov    -0x8(%rbp),%rax
ffffffff80004359:	48 8b 90 f0 00 00 00 	mov    0xf0(%rax),%rdx
ffffffff80004360:	48 8b 45 f8          	mov    -0x8(%rbp),%rax
ffffffff80004364:	be b4 00 00 00       	mov    $0xb4,%esi
ffffffff80004369:	48 89 c7             	mov    %rax,%rdi
ffffffff8000436c:	ff d2                	call   *%rdx
ffffffff8000436e:	b8 01 00 00 00       	mov    $0x1,%eax
ffffffff80004373:	e9 57 01 00 00       	jmp    ffffffff800044cf <dec_special_print+0x5bd>
ffffffff80004378:	48 8b 45 f8          	mov    -0x8(%rbp),%rax
ffffffff8000437c:	48 8b 90 f0 00 00 00 	mov    0xf0(%rax),%rdx
ffffffff80004383:	48 8b 45 f8          	mov    -0x8(%rbp),%rax
ffffffff80004387:	be c1 00 00 00       	mov    $0xc1,%esi
ffffffff8000438c:	48 89 c7             	mov    %rax,%rdi
ffffffff8000438f:	ff d2                	call   *%rdx
ffffffff80004391:	b8 01 00 00 00       	mov    $0x1,%eax
ffffffff80004396:	e9 34 01 00 00       	jmp    ffffffff800044cf <dec_special_print+0x5bd>
ffffffff8000439b:	48 8b 45 f8          	mov    -0x8(%rbp),%rax
ffffffff8000439f:	48 8b 90 f0 00 00 00 	mov    0xf0(%rax),%rdx
ffffffff800043a6:	48 8b 45 f8          	mov    -0x8(%rbp),%rax
ffffffff800043aa:	be c2 00 00 00       	mov    $0xc2,%esi
ffffffff800043af:	48 89 c7             	mov    %rax,%rdi
ffffffff800043b2:	ff d2                	call   *%rdx
ffffffff800043b4:	b8 01 00 00 00       	mov    $0x1,%eax
ffffffff800043b9:	e9 11 01 00 00       	jmp    ffffffff800044cf <dec_special_print+0x5bd>
ffffffff800043be:	48 8b 45 f8          	mov    -0x8(%rbp),%rax
ffffffff800043c2:	48 8b 90 f0 00 00 00 	mov    0xf0(%rax),%rdx
ffffffff800043c9:	48 8b 45 f8          	mov    -0x8(%rbp),%rax
ffffffff800043cd:	be b3 00 00 00       	mov    $0xb3,%esi
ffffffff800043d2:	48 89 c7             	mov    %rax,%rdi
ffffffff800043d5:	ff d2                	call   *%rdx
ffffffff800043d7:	b8 01 00 00 00       	mov    $0x1,%eax
ffffffff800043dc:	e9 ee 00 00 00       	jmp    ffffffff800044cf <dec_special_print+0x5bd>
ffffffff800043e1:	48 8b 45 f8          	mov    -0x8(%rbp),%rax
ffffffff800043e5:	48 8b 90 f0 00 00 00 	mov    0xf0(%rax),%rdx
ffffffff800043ec:	48 8b 45 f8          	mov    -0x8(%rbp),%rax
ffffffff800043f0:	be f3 00 00 00       	mov    $0xf3,%esi
ffffffff800043f5:	48 89 c7             	mov    %rax,%rdi
ffffffff800043f8:	ff d2                	call   *%rdx
ffffffff800043fa:	b8 01 00 00 00       	mov    $0x1,%eax
ffffffff800043ff:	e9 cb 00 00 00       	jmp    ffffffff800044cf <dec_special_print+0x5bd>
ffffffff80004404:	48 8b 45 f8          	mov    -0x8(%rbp),%rax
ffffffff80004408:	48 8b 90 f0 00 00 00 	mov    0xf0(%rax),%rdx
ffffffff8000440f:	48 8b 45 f8          	mov    -0x8(%rbp),%rax
ffffffff80004413:	be f2 00 00 00       	mov    $0xf2,%esi
ffffffff80004418:	48 89 c7             	mov    %rax,%rdi
ffffffff8000441b:	ff d2                	call   *%rdx
ffffffff8000441d:	b8 01 00 00 00       	mov    $0x1,%eax
ffffffff80004422:	e9 a8 00 00 00       	jmp    ffffffff800044cf <dec_special_print+0x5bd>
ffffffff80004427:	48 8b 45 f8          	mov    -0x8(%rbp),%rax
ffffffff8000442b:	48 8b 90 f0 00 00 00 	mov    0xf0(%rax),%rdx
ffffffff80004432:	48 8b 45 f8          	mov    -0x8(%rbp),%rax
ffffffff80004436:	be fa 00 00 00       	mov    $0xfa,%esi
ffffffff8000443b:	48 89 c7             	mov    %rax,%rdi
ffffffff8000443e:	ff d2                	call   *%rdx
ffffffff80004440:	b8 01 00 00 00       	mov    $0x1,%eax
ffffffff80004445:	e9 85 00 00 00       	jmp    ffffffff800044cf <dec_special_print+0x5bd>
ffffffff8000444a:	48 8b 45 f8          	mov    -0x8(%rbp),%rax
ffffffff8000444e:	48 8b 90 f0 00 00 00 	mov    0xf0(%rax),%rdx
ffffffff80004455:	48 8b 45 f8          	mov    -0x8(%rbp),%rax
ffffffff80004459:	be ff 00 00 00       	mov    $0xff,%esi
ffffffff8000445e:	48 89 c7             	mov    %rax,%rdi
ffffffff80004461:	ff d2                	call   *%rdx
ffffffff80004463:	b8 01 00 00 00       	mov    $0x1,%eax
ffffffff80004468:	eb 65                	jmp    ffffffff800044cf <dec_special_print+0x5bd>
ffffffff8000446a:	48 8b 45 f8          	mov    -0x8(%rbp),%rax
ffffffff8000446e:	48 8b 90 f0 00 00 00 	mov    0xf0(%rax),%rdx
ffffffff80004475:	48 8b 45 f8          	mov    -0x8(%rbp),%rax
ffffffff80004479:	be 1a 00 00 00       	mov    $0x1a,%esi
ffffffff8000447e:	48 89 c7             	mov    %rax,%rdi
ffffffff80004481:	ff d2                	call   *%rdx
ffffffff80004483:	b8 01 00 00 00       	mov    $0x1,%eax
ffffffff80004488:	eb 45                	jmp    ffffffff800044cf <dec_special_print+0x5bd>
ffffffff8000448a:	48 8b 45 f8          	mov    -0x8(%rbp),%rax
ffffffff8000448e:	48 8b 90 f0 00 00 00 	mov    0xf0(%rax),%rdx
ffffffff80004495:	48 8b 45 f8          	mov    -0x8(%rbp),%rax
ffffffff80004499:	be e3 00 00 00       	mov    $0xe3,%esi
ffffffff8000449e:	48 89 c7             	mov    %rax,%rdi
ffffffff800044a1:	ff d2                	call   *%rdx
ffffffff800044a3:	b8 01 00 00 00       	mov    $0x1,%eax
ffffffff800044a8:	eb 25                	jmp    ffffffff800044cf <dec_special_print+0x5bd>
ffffffff800044aa:	48 8b 45 f8          	mov    -0x8(%rbp),%rax
ffffffff800044ae:	48 8b 90 f0 00 00 00 	mov    0xf0(%rax),%rdx
ffffffff800044b5:	48 8b 45 f8          	mov    -0x8(%rbp),%rax
ffffffff800044b9:	be 9c 00 00 00       	mov    $0x9c,%esi
ffffffff800044be:	48 89 c7             	mov    %rax,%rdi
ffffffff800044c1:	ff d2                	call   *%rdx
ffffffff800044c3:	b8 01 00 00 00       	mov    $0x1,%eax
ffffffff800044c8:	eb 05                	jmp    ffffffff800044cf <dec_special_print+0x5bd>
ffffffff800044ca:	b8 00 00 00 00       	mov    $0x0,%eax
ffffffff800044cf:	c9                   	leave
ffffffff800044d0:	c3                   	ret

ffffffff800044d1 <bisearch>:
ffffffff800044d1:	55                   	push   %rbp
ffffffff800044d2:	48 89 e5             	mov    %rsp,%rbp
ffffffff800044d5:	48 83 ec 20          	sub    $0x20,%rsp
ffffffff800044d9:	89 7d ec             	mov    %edi,-0x14(%rbp)
ffffffff800044dc:	48 89 75 e0          	mov    %rsi,-0x20(%rbp)
ffffffff800044e0:	89 55 e8             	mov    %edx,-0x18(%rbp)
ffffffff800044e3:	c7 45 fc 00 00 00 00 	movl   $0x0,-0x4(%rbp)
ffffffff800044ea:	48 8b 45 e0          	mov    -0x20(%rbp),%rax
ffffffff800044ee:	8b 00                	mov    (%rax),%eax
ffffffff800044f0:	39 45 ec             	cmp    %eax,-0x14(%rbp)
ffffffff800044f3:	72 1c                	jb     ffffffff80004511 <bisearch+0x40>
ffffffff800044f5:	8b 45 e8             	mov    -0x18(%rbp),%eax
ffffffff800044f8:	48 98                	cltq
ffffffff800044fa:	48 8d 14 c5 00 00 00 	lea    0x0(,%rax,8),%rdx
ffffffff80004501:	00 
ffffffff80004502:	48 8b 45 e0          	mov    -0x20(%rbp),%rax
ffffffff80004506:	48 01 d0             	add    %rdx,%rax
ffffffff80004509:	8b 40 04             	mov    0x4(%rax),%eax
ffffffff8000450c:	3b 45 ec             	cmp    -0x14(%rbp),%eax
ffffffff8000450f:	73 6f                	jae    ffffffff80004580 <bisearch+0xaf>
ffffffff80004511:	b8 00 00 00 00       	mov    $0x0,%eax
ffffffff80004516:	eb 75                	jmp    ffffffff8000458d <bisearch+0xbc>
ffffffff80004518:	8b 55 fc             	mov    -0x4(%rbp),%edx
ffffffff8000451b:	8b 45 e8             	mov    -0x18(%rbp),%eax
ffffffff8000451e:	01 d0                	add    %edx,%eax
ffffffff80004520:	89 c2                	mov    %eax,%edx
ffffffff80004522:	c1 ea 1f             	shr    $0x1f,%edx
ffffffff80004525:	01 d0                	add    %edx,%eax
ffffffff80004527:	d1 f8                	sar    $1,%eax
ffffffff80004529:	89 45 f8             	mov    %eax,-0x8(%rbp)
ffffffff8000452c:	8b 45 f8             	mov    -0x8(%rbp),%eax
ffffffff8000452f:	48 98                	cltq
ffffffff80004531:	48 8d 14 c5 00 00 00 	lea    0x0(,%rax,8),%rdx
ffffffff80004538:	00 
ffffffff80004539:	48 8b 45 e0          	mov    -0x20(%rbp),%rax
ffffffff8000453d:	48 01 d0             	add    %rdx,%rax
ffffffff80004540:	8b 40 04             	mov    0x4(%rax),%eax
ffffffff80004543:	3b 45 ec             	cmp    -0x14(%rbp),%eax
ffffffff80004546:	73 0b                	jae    ffffffff80004553 <bisearch+0x82>
ffffffff80004548:	8b 45 f8             	mov    -0x8(%rbp),%eax
ffffffff8000454b:	83 c0 01             	add    $0x1,%eax
ffffffff8000454e:	89 45 fc             	mov    %eax,-0x4(%rbp)
ffffffff80004551:	eb 2d                	jmp    ffffffff80004580 <bisearch+0xaf>
ffffffff80004553:	8b 45 f8             	mov    -0x8(%rbp),%eax
ffffffff80004556:	48 98                	cltq
ffffffff80004558:	48 8d 14 c5 00 00 00 	lea    0x0(,%rax,8),%rdx
ffffffff8000455f:	00 
ffffffff80004560:	48 8b 45 e0          	mov    -0x20(%rbp),%rax
ffffffff80004564:	48 01 d0             	add    %rdx,%rax
ffffffff80004567:	8b 00                	mov    (%rax),%eax
ffffffff80004569:	39 45 ec             	cmp    %eax,-0x14(%rbp)
ffffffff8000456c:	73 0b                	jae    ffffffff80004579 <bisearch+0xa8>
ffffffff8000456e:	8b 45 f8             	mov    -0x8(%rbp),%eax
ffffffff80004571:	83 e8 01             	sub    $0x1,%eax
ffffffff80004574:	89 45 e8             	mov    %eax,-0x18(%rbp)
ffffffff80004577:	eb 07                	jmp    ffffffff80004580 <bisearch+0xaf>
ffffffff80004579:	b8 01 00 00 00       	mov    $0x1,%eax
ffffffff8000457e:	eb 0d                	jmp    ffffffff8000458d <bisearch+0xbc>
ffffffff80004580:	8b 45 e8             	mov    -0x18(%rbp),%eax
ffffffff80004583:	3b 45 fc             	cmp    -0x4(%rbp),%eax
ffffffff80004586:	7d 90                	jge    ffffffff80004518 <bisearch+0x47>
ffffffff80004588:	b8 00 00 00 00       	mov    $0x0,%eax
ffffffff8000458d:	c9                   	leave
ffffffff8000458e:	c3                   	ret

ffffffff8000458f <mk_wcwidth>:
ffffffff8000458f:	55                   	push   %rbp
ffffffff80004590:	48 89 e5             	mov    %rsp,%rbp
ffffffff80004593:	48 83 ec 08          	sub    $0x8,%rsp
ffffffff80004597:	89 7d fc             	mov    %edi,-0x4(%rbp)
ffffffff8000459a:	83 7d fc 00          	cmpl   $0x0,-0x4(%rbp)
ffffffff8000459e:	75 0a                	jne    ffffffff800045aa <mk_wcwidth+0x1b>
ffffffff800045a0:	b8 00 00 00 00       	mov    $0x0,%eax
ffffffff800045a5:	e9 38 01 00 00       	jmp    ffffffff800046e2 <mk_wcwidth+0x153>
ffffffff800045aa:	83 7d fc 1f          	cmpl   $0x1f,-0x4(%rbp)
ffffffff800045ae:	76 0f                	jbe    ffffffff800045bf <mk_wcwidth+0x30>
ffffffff800045b0:	83 7d fc 7e          	cmpl   $0x7e,-0x4(%rbp)
ffffffff800045b4:	76 13                	jbe    ffffffff800045c9 <mk_wcwidth+0x3a>
ffffffff800045b6:	81 7d fc 9f 00 00 00 	cmpl   $0x9f,-0x4(%rbp)
ffffffff800045bd:	77 0a                	ja     ffffffff800045c9 <mk_wcwidth+0x3a>
ffffffff800045bf:	b8 01 00 00 00       	mov    $0x1,%eax
ffffffff800045c4:	e9 19 01 00 00       	jmp    ffffffff800046e2 <mk_wcwidth+0x153>
ffffffff800045c9:	48 8d 0d f0 87 00 00 	lea    0x87f0(%rip),%rcx        # ffffffff8000cdc0 <combining.0>
ffffffff800045d0:	8b 45 fc             	mov    -0x4(%rbp),%eax
ffffffff800045d3:	ba 8d 00 00 00       	mov    $0x8d,%edx
ffffffff800045d8:	48 89 ce             	mov    %rcx,%rsi
ffffffff800045db:	89 c7                	mov    %eax,%edi
ffffffff800045dd:	e8 ef fe ff ff       	call   ffffffff800044d1 <bisearch>
ffffffff800045e2:	85 c0                	test   %eax,%eax
ffffffff800045e4:	74 0a                	je     ffffffff800045f0 <mk_wcwidth+0x61>
ffffffff800045e6:	b8 00 00 00 00       	mov    $0x0,%eax
ffffffff800045eb:	e9 f2 00 00 00       	jmp    ffffffff800046e2 <mk_wcwidth+0x153>
ffffffff800045f0:	81 7d fc ff 10 00 00 	cmpl   $0x10ff,-0x4(%rbp)
ffffffff800045f7:	0f 86 dd 00 00 00    	jbe    ffffffff800046da <mk_wcwidth+0x14b>
ffffffff800045fd:	81 7d fc 5f 11 00 00 	cmpl   $0x115f,-0x4(%rbp)
ffffffff80004604:	0f 86 c9 00 00 00    	jbe    ffffffff800046d3 <mk_wcwidth+0x144>
ffffffff8000460a:	81 7d fc 29 23 00 00 	cmpl   $0x2329,-0x4(%rbp)
ffffffff80004611:	0f 84 bc 00 00 00    	je     ffffffff800046d3 <mk_wcwidth+0x144>
ffffffff80004617:	81 7d fc 2a 23 00 00 	cmpl   $0x232a,-0x4(%rbp)
ffffffff8000461e:	0f 84 af 00 00 00    	je     ffffffff800046d3 <mk_wcwidth+0x144>
ffffffff80004624:	81 7d fc 7f 2e 00 00 	cmpl   $0x2e7f,-0x4(%rbp)
ffffffff8000462b:	76 16                	jbe    ffffffff80004643 <mk_wcwidth+0xb4>
ffffffff8000462d:	81 7d fc cf a4 00 00 	cmpl   $0xa4cf,-0x4(%rbp)
ffffffff80004634:	77 0d                	ja     ffffffff80004643 <mk_wcwidth+0xb4>
ffffffff80004636:	81 7d fc 3f 30 00 00 	cmpl   $0x303f,-0x4(%rbp)
ffffffff8000463d:	0f 85 90 00 00 00    	jne    ffffffff800046d3 <mk_wcwidth+0x144>
ffffffff80004643:	81 7d fc ff ab 00 00 	cmpl   $0xabff,-0x4(%rbp)
ffffffff8000464a:	76 09                	jbe    ffffffff80004655 <mk_wcwidth+0xc6>
ffffffff8000464c:	81 7d fc a3 d7 00 00 	cmpl   $0xd7a3,-0x4(%rbp)
ffffffff80004653:	76 7e                	jbe    ffffffff800046d3 <mk_wcwidth+0x144>
ffffffff80004655:	81 7d fc ff f8 00 00 	cmpl   $0xf8ff,-0x4(%rbp)
ffffffff8000465c:	76 09                	jbe    ffffffff80004667 <mk_wcwidth+0xd8>
ffffffff8000465e:	81 7d fc ff fa 00 00 	cmpl   $0xfaff,-0x4(%rbp)
ffffffff80004665:	76 6c                	jbe    ffffffff800046d3 <mk_wcwidth+0x144>
ffffffff80004667:	81 7d fc 0f fe 00 00 	cmpl   $0xfe0f,-0x4(%rbp)
ffffffff8000466e:	76 09                	jbe    ffffffff80004679 <mk_wcwidth+0xea>
ffffffff80004670:	81 7d fc 19 fe 00 00 	cmpl   $0xfe19,-0x4(%rbp)
ffffffff80004677:	76 5a                	jbe    ffffffff800046d3 <mk_wcwidth+0x144>
ffffffff80004679:	81 7d fc 2f fe 00 00 	cmpl   $0xfe2f,-0x4(%rbp)
ffffffff80004680:	76 09                	jbe    ffffffff8000468b <mk_wcwidth+0xfc>
ffffffff80004682:	81 7d fc 6f fe 00 00 	cmpl   $0xfe6f,-0x4(%rbp)
ffffffff80004689:	76 48                	jbe    ffffffff800046d3 <mk_wcwidth+0x144>
ffffffff8000468b:	81 7d fc ff fe 00 00 	cmpl   $0xfeff,-0x4(%rbp)
ffffffff80004692:	76 09                	jbe    ffffffff8000469d <mk_wcwidth+0x10e>
ffffffff80004694:	81 7d fc 60 ff 00 00 	cmpl   $0xff60,-0x4(%rbp)
ffffffff8000469b:	76 36                	jbe    ffffffff800046d3 <mk_wcwidth+0x144>
ffffffff8000469d:	81 7d fc df ff 00 00 	cmpl   $0xffdf,-0x4(%rbp)
ffffffff800046a4:	76 09                	jbe    ffffffff800046af <mk_wcwidth+0x120>
ffffffff800046a6:	81 7d fc e6 ff 00 00 	cmpl   $0xffe6,-0x4(%rbp)
ffffffff800046ad:	76 24                	jbe    ffffffff800046d3 <mk_wcwidth+0x144>
ffffffff800046af:	81 7d fc ff ff 01 00 	cmpl   $0x1ffff,-0x4(%rbp)
ffffffff800046b6:	76 09                	jbe    ffffffff800046c1 <mk_wcwidth+0x132>
ffffffff800046b8:	81 7d fc fd ff 02 00 	cmpl   $0x2fffd,-0x4(%rbp)
ffffffff800046bf:	76 12                	jbe    ffffffff800046d3 <mk_wcwidth+0x144>
ffffffff800046c1:	81 7d fc ff ff 02 00 	cmpl   $0x2ffff,-0x4(%rbp)
ffffffff800046c8:	76 10                	jbe    ffffffff800046da <mk_wcwidth+0x14b>
ffffffff800046ca:	81 7d fc fd ff 03 00 	cmpl   $0x3fffd,-0x4(%rbp)
ffffffff800046d1:	77 07                	ja     ffffffff800046da <mk_wcwidth+0x14b>
ffffffff800046d3:	b8 01 00 00 00       	mov    $0x1,%eax
ffffffff800046d8:	eb 05                	jmp    ffffffff800046df <mk_wcwidth+0x150>
ffffffff800046da:	b8 00 00 00 00       	mov    $0x0,%eax
ffffffff800046df:	83 c0 01             	add    $0x1,%eax
ffffffff800046e2:	c9                   	leave
ffffffff800046e3:	c3                   	ret

ffffffff800046e4 <unicode_to_cp437>:
ffffffff800046e4:	55                   	push   %rbp
ffffffff800046e5:	48 89 e5             	mov    %rsp,%rbp
ffffffff800046e8:	48 83 ec 08          	sub    $0x8,%rsp
ffffffff800046ec:	48 89 7d f8          	mov    %rdi,-0x8(%rbp)
ffffffff800046f0:	48 81 7d f8 6b 26 00 	cmpq   $0x266b,-0x8(%rbp)
ffffffff800046f7:	00 
ffffffff800046f8:	0f 84 c1 11 00 00    	je     ffffffff800058bf <unicode_to_cp437+0x11db>
ffffffff800046fe:	48 81 7d f8 6b 26 00 	cmpq   $0x266b,-0x8(%rbp)
ffffffff80004705:	00 
ffffffff80004706:	0f 87 31 17 00 00    	ja     ffffffff80005e3d <unicode_to_cp437+0x1759>
ffffffff8000470c:	48 81 7d f8 6a 26 00 	cmpq   $0x266a,-0x8(%rbp)
ffffffff80004713:	00 
ffffffff80004714:	0f 84 9b 11 00 00    	je     ffffffff800058b5 <unicode_to_cp437+0x11d1>
ffffffff8000471a:	48 81 7d f8 6a 26 00 	cmpq   $0x266a,-0x8(%rbp)
ffffffff80004721:	00 
ffffffff80004722:	0f 87 15 17 00 00    	ja     ffffffff80005e3d <unicode_to_cp437+0x1759>
ffffffff80004728:	48 81 7d f8 66 26 00 	cmpq   $0x2666,-0x8(%rbp)
ffffffff8000472f:	00 
ffffffff80004730:	0f 84 25 11 00 00    	je     ffffffff8000585b <unicode_to_cp437+0x1177>
ffffffff80004736:	48 81 7d f8 66 26 00 	cmpq   $0x2666,-0x8(%rbp)
ffffffff8000473d:	00 
ffffffff8000473e:	0f 87 f9 16 00 00    	ja     ffffffff80005e3d <unicode_to_cp437+0x1759>
ffffffff80004744:	48 81 7d f8 65 26 00 	cmpq   $0x2665,-0x8(%rbp)
ffffffff8000474b:	00 
ffffffff8000474c:	0f 84 ff 10 00 00    	je     ffffffff80005851 <unicode_to_cp437+0x116d>
ffffffff80004752:	48 81 7d f8 65 26 00 	cmpq   $0x2665,-0x8(%rbp)
ffffffff80004759:	00 
ffffffff8000475a:	0f 87 dd 16 00 00    	ja     ffffffff80005e3d <unicode_to_cp437+0x1759>
ffffffff80004760:	48 81 7d f8 63 26 00 	cmpq   $0x2663,-0x8(%rbp)
ffffffff80004767:	00 
ffffffff80004768:	0f 84 f7 10 00 00    	je     ffffffff80005865 <unicode_to_cp437+0x1181>
ffffffff8000476e:	48 81 7d f8 63 26 00 	cmpq   $0x2663,-0x8(%rbp)
ffffffff80004775:	00 
ffffffff80004776:	0f 87 c1 16 00 00    	ja     ffffffff80005e3d <unicode_to_cp437+0x1759>
ffffffff8000477c:	48 81 7d f8 60 26 00 	cmpq   $0x2660,-0x8(%rbp)
ffffffff80004783:	00 
ffffffff80004784:	0f 84 e5 10 00 00    	je     ffffffff8000586f <unicode_to_cp437+0x118b>
ffffffff8000478a:	48 81 7d f8 60 26 00 	cmpq   $0x2660,-0x8(%rbp)
ffffffff80004791:	00 
ffffffff80004792:	0f 87 a5 16 00 00    	ja     ffffffff80005e3d <unicode_to_cp437+0x1759>
ffffffff80004798:	48 81 7d f8 42 26 00 	cmpq   $0x2642,-0x8(%rbp)
ffffffff8000479f:	00 
ffffffff800047a0:	0f 84 fb 10 00 00    	je     ffffffff800058a1 <unicode_to_cp437+0x11bd>
ffffffff800047a6:	48 81 7d f8 42 26 00 	cmpq   $0x2642,-0x8(%rbp)
ffffffff800047ad:	00 
ffffffff800047ae:	0f 87 89 16 00 00    	ja     ffffffff80005e3d <unicode_to_cp437+0x1759>
ffffffff800047b4:	48 81 7d f8 40 26 00 	cmpq   $0x2640,-0x8(%rbp)
ffffffff800047bb:	00 
ffffffff800047bc:	0f 84 e9 10 00 00    	je     ffffffff800058ab <unicode_to_cp437+0x11c7>
ffffffff800047c2:	48 81 7d f8 40 26 00 	cmpq   $0x2640,-0x8(%rbp)
ffffffff800047c9:	00 
ffffffff800047ca:	0f 87 6d 16 00 00    	ja     ffffffff80005e3d <unicode_to_cp437+0x1759>
ffffffff800047d0:	48 81 7d f8 3c 26 00 	cmpq   $0x263c,-0x8(%rbp)
ffffffff800047d7:	00 
ffffffff800047d8:	0f 84 eb 10 00 00    	je     ffffffff800058c9 <unicode_to_cp437+0x11e5>
ffffffff800047de:	48 81 7d f8 3c 26 00 	cmpq   $0x263c,-0x8(%rbp)
ffffffff800047e5:	00 
ffffffff800047e6:	0f 87 51 16 00 00    	ja     ffffffff80005e3d <unicode_to_cp437+0x1759>
ffffffff800047ec:	48 81 7d f8 3b 26 00 	cmpq   $0x263b,-0x8(%rbp)
ffffffff800047f3:	00 
ffffffff800047f4:	0f 84 4d 10 00 00    	je     ffffffff80005847 <unicode_to_cp437+0x1163>
ffffffff800047fa:	48 81 7d f8 3b 26 00 	cmpq   $0x263b,-0x8(%rbp)
ffffffff80004801:	00 
ffffffff80004802:	0f 87 35 16 00 00    	ja     ffffffff80005e3d <unicode_to_cp437+0x1759>
ffffffff80004808:	48 81 7d f8 3a 26 00 	cmpq   $0x263a,-0x8(%rbp)
ffffffff8000480f:	00 
ffffffff80004810:	0f 84 27 10 00 00    	je     ffffffff8000583d <unicode_to_cp437+0x1159>
ffffffff80004816:	48 81 7d f8 3a 26 00 	cmpq   $0x263a,-0x8(%rbp)
ffffffff8000481d:	00 
ffffffff8000481e:	0f 87 19 16 00 00    	ja     ffffffff80005e3d <unicode_to_cp437+0x1759>
ffffffff80004824:	48 81 7d f8 d9 25 00 	cmpq   $0x25d9,-0x8(%rbp)
ffffffff8000482b:	00 
ffffffff8000482c:	0f 84 65 10 00 00    	je     ffffffff80005897 <unicode_to_cp437+0x11b3>
ffffffff80004832:	48 81 7d f8 d9 25 00 	cmpq   $0x25d9,-0x8(%rbp)
ffffffff80004839:	00 
ffffffff8000483a:	0f 87 fd 15 00 00    	ja     ffffffff80005e3d <unicode_to_cp437+0x1759>
ffffffff80004840:	48 81 7d f8 d8 25 00 	cmpq   $0x25d8,-0x8(%rbp)
ffffffff80004847:	00 
ffffffff80004848:	0f 84 35 10 00 00    	je     ffffffff80005883 <unicode_to_cp437+0x119f>
ffffffff8000484e:	48 81 7d f8 d8 25 00 	cmpq   $0x25d8,-0x8(%rbp)
ffffffff80004855:	00 
ffffffff80004856:	0f 87 e1 15 00 00    	ja     ffffffff80005e3d <unicode_to_cp437+0x1759>
ffffffff8000485c:	48 81 7d f8 cb 25 00 	cmpq   $0x25cb,-0x8(%rbp)
ffffffff80004863:	00 
ffffffff80004864:	0f 84 23 10 00 00    	je     ffffffff8000588d <unicode_to_cp437+0x11a9>
ffffffff8000486a:	48 81 7d f8 cb 25 00 	cmpq   $0x25cb,-0x8(%rbp)
ffffffff80004871:	00 
ffffffff80004872:	0f 87 c5 15 00 00    	ja     ffffffff80005e3d <unicode_to_cp437+0x1759>
ffffffff80004878:	48 81 7d f8 c4 25 00 	cmpq   $0x25c4,-0x8(%rbp)
ffffffff8000487f:	00 
ffffffff80004880:	0f 84 57 10 00 00    	je     ffffffff800058dd <unicode_to_cp437+0x11f9>
ffffffff80004886:	48 81 7d f8 c4 25 00 	cmpq   $0x25c4,-0x8(%rbp)
ffffffff8000488d:	00 
ffffffff8000488e:	0f 87 a9 15 00 00    	ja     ffffffff80005e3d <unicode_to_cp437+0x1759>
ffffffff80004894:	48 81 7d f8 bc 25 00 	cmpq   $0x25bc,-0x8(%rbp)
ffffffff8000489b:	00 
ffffffff8000489c:	0f 84 c7 10 00 00    	je     ffffffff80005969 <unicode_to_cp437+0x1285>
ffffffff800048a2:	48 81 7d f8 bc 25 00 	cmpq   $0x25bc,-0x8(%rbp)
ffffffff800048a9:	00 
ffffffff800048aa:	0f 87 8d 15 00 00    	ja     ffffffff80005e3d <unicode_to_cp437+0x1759>
ffffffff800048b0:	48 81 7d f8 ba 25 00 	cmpq   $0x25ba,-0x8(%rbp)
ffffffff800048b7:	00 
ffffffff800048b8:	0f 84 15 10 00 00    	je     ffffffff800058d3 <unicode_to_cp437+0x11ef>
ffffffff800048be:	48 81 7d f8 ba 25 00 	cmpq   $0x25ba,-0x8(%rbp)
ffffffff800048c5:	00 
ffffffff800048c6:	0f 87 71 15 00 00    	ja     ffffffff80005e3d <unicode_to_cp437+0x1759>
ffffffff800048cc:	48 81 7d f8 b2 25 00 	cmpq   $0x25b2,-0x8(%rbp)
ffffffff800048d3:	00 
ffffffff800048d4:	0f 84 85 10 00 00    	je     ffffffff8000595f <unicode_to_cp437+0x127b>
ffffffff800048da:	48 81 7d f8 b2 25 00 	cmpq   $0x25b2,-0x8(%rbp)
ffffffff800048e1:	00 
ffffffff800048e2:	0f 87 55 15 00 00    	ja     ffffffff80005e3d <unicode_to_cp437+0x1759>
ffffffff800048e8:	48 81 7d f8 ac 25 00 	cmpq   $0x25ac,-0x8(%rbp)
ffffffff800048ef:	00 
ffffffff800048f0:	0f 84 19 10 00 00    	je     ffffffff8000590f <unicode_to_cp437+0x122b>
ffffffff800048f6:	48 81 7d f8 ac 25 00 	cmpq   $0x25ac,-0x8(%rbp)
ffffffff800048fd:	00 
ffffffff800048fe:	0f 87 39 15 00 00    	ja     ffffffff80005e3d <unicode_to_cp437+0x1759>
ffffffff80004904:	48 81 7d f8 a0 25 00 	cmpq   $0x25a0,-0x8(%rbp)
ffffffff8000490b:	00 
ffffffff8000490c:	0f 84 24 15 00 00    	je     ffffffff80005e36 <unicode_to_cp437+0x1752>
ffffffff80004912:	48 81 7d f8 a0 25 00 	cmpq   $0x25a0,-0x8(%rbp)
ffffffff80004919:	00 
ffffffff8000491a:	0f 87 1d 15 00 00    	ja     ffffffff80005e3d <unicode_to_cp437+0x1759>
ffffffff80004920:	48 81 7d f8 93 25 00 	cmpq   $0x2593,-0x8(%rbp)
ffffffff80004927:	00 
ffffffff80004928:	0f 84 43 12 00 00    	je     ffffffff80005b71 <unicode_to_cp437+0x148d>
ffffffff8000492e:	48 81 7d f8 93 25 00 	cmpq   $0x2593,-0x8(%rbp)
ffffffff80004935:	00 
ffffffff80004936:	0f 87 01 15 00 00    	ja     ffffffff80005e3d <unicode_to_cp437+0x1759>
ffffffff8000493c:	48 81 7d f8 92 25 00 	cmpq   $0x2592,-0x8(%rbp)
ffffffff80004943:	00 
ffffffff80004944:	0f 84 1d 12 00 00    	je     ffffffff80005b67 <unicode_to_cp437+0x1483>
ffffffff8000494a:	48 81 7d f8 92 25 00 	cmpq   $0x2592,-0x8(%rbp)
ffffffff80004951:	00 
ffffffff80004952:	0f 87 e5 14 00 00    	ja     ffffffff80005e3d <unicode_to_cp437+0x1759>
ffffffff80004958:	48 81 7d f8 91 25 00 	cmpq   $0x2591,-0x8(%rbp)
ffffffff8000495f:	00 
ffffffff80004960:	0f 84 f7 11 00 00    	je     ffffffff80005b5d <unicode_to_cp437+0x1479>
ffffffff80004966:	48 81 7d f8 91 25 00 	cmpq   $0x2591,-0x8(%rbp)
ffffffff8000496d:	00 
ffffffff8000496e:	0f 87 c9 14 00 00    	ja     ffffffff80005e3d <unicode_to_cp437+0x1759>
ffffffff80004974:	48 81 7d f8 90 25 00 	cmpq   $0x2590,-0x8(%rbp)
ffffffff8000497b:	00 
ffffffff8000497c:	0f 84 a7 13 00 00    	je     ffffffff80005d29 <unicode_to_cp437+0x1645>
ffffffff80004982:	48 81 7d f8 90 25 00 	cmpq   $0x2590,-0x8(%rbp)
ffffffff80004989:	00 
ffffffff8000498a:	0f 87 ad 14 00 00    	ja     ffffffff80005e3d <unicode_to_cp437+0x1759>
ffffffff80004990:	48 81 7d f8 8c 25 00 	cmpq   $0x258c,-0x8(%rbp)
ffffffff80004997:	00 
ffffffff80004998:	0f 84 81 13 00 00    	je     ffffffff80005d1f <unicode_to_cp437+0x163b>
ffffffff8000499e:	48 81 7d f8 8c 25 00 	cmpq   $0x258c,-0x8(%rbp)
ffffffff800049a5:	00 
ffffffff800049a6:	0f 87 91 14 00 00    	ja     ffffffff80005e3d <unicode_to_cp437+0x1759>
ffffffff800049ac:	48 81 7d f8 88 25 00 	cmpq   $0x2588,-0x8(%rbp)
ffffffff800049b3:	00 
ffffffff800049b4:	0f 84 51 13 00 00    	je     ffffffff80005d0b <unicode_to_cp437+0x1627>
ffffffff800049ba:	48 81 7d f8 88 25 00 	cmpq   $0x2588,-0x8(%rbp)
ffffffff800049c1:	00 
ffffffff800049c2:	0f 87 75 14 00 00    	ja     ffffffff80005e3d <unicode_to_cp437+0x1759>
ffffffff800049c8:	48 81 7d f8 84 25 00 	cmpq   $0x2584,-0x8(%rbp)
ffffffff800049cf:	00 
ffffffff800049d0:	0f 84 3f 13 00 00    	je     ffffffff80005d15 <unicode_to_cp437+0x1631>
ffffffff800049d6:	48 81 7d f8 84 25 00 	cmpq   $0x2584,-0x8(%rbp)
ffffffff800049dd:	00 
ffffffff800049de:	0f 87 59 14 00 00    	ja     ffffffff80005e3d <unicode_to_cp437+0x1759>
ffffffff800049e4:	48 81 7d f8 80 25 00 	cmpq   $0x2580,-0x8(%rbp)
ffffffff800049eb:	00 
ffffffff800049ec:	0f 84 41 13 00 00    	je     ffffffff80005d33 <unicode_to_cp437+0x164f>
ffffffff800049f2:	48 81 7d f8 80 25 00 	cmpq   $0x2580,-0x8(%rbp)
ffffffff800049f9:	00 
ffffffff800049fa:	0f 87 3d 14 00 00    	ja     ffffffff80005e3d <unicode_to_cp437+0x1759>
ffffffff80004a00:	48 81 7d f8 6c 25 00 	cmpq   $0x256c,-0x8(%rbp)
ffffffff80004a07:	00 
ffffffff80004a08:	0f 84 7b 12 00 00    	je     ffffffff80005c89 <unicode_to_cp437+0x15a5>
ffffffff80004a0e:	48 81 7d f8 6c 25 00 	cmpq   $0x256c,-0x8(%rbp)
ffffffff80004a15:	00 
ffffffff80004a16:	0f 87 21 14 00 00    	ja     ffffffff80005e3d <unicode_to_cp437+0x1759>
ffffffff80004a1c:	48 81 7d f8 6b 25 00 	cmpq   $0x256b,-0x8(%rbp)
ffffffff80004a23:	00 
ffffffff80004a24:	0f 84 b9 12 00 00    	je     ffffffff80005ce3 <unicode_to_cp437+0x15ff>
ffffffff80004a2a:	48 81 7d f8 6b 25 00 	cmpq   $0x256b,-0x8(%rbp)
ffffffff80004a31:	00 
ffffffff80004a32:	0f 87 05 14 00 00    	ja     ffffffff80005e3d <unicode_to_cp437+0x1759>
ffffffff80004a38:	48 81 7d f8 6a 25 00 	cmpq   $0x256a,-0x8(%rbp)
ffffffff80004a3f:	00 
ffffffff80004a40:	0f 84 a7 12 00 00    	je     ffffffff80005ced <unicode_to_cp437+0x1609>
ffffffff80004a46:	48 81 7d f8 6a 25 00 	cmpq   $0x256a,-0x8(%rbp)
ffffffff80004a4d:	00 
ffffffff80004a4e:	0f 87 e9 13 00 00    	ja     ffffffff80005e3d <unicode_to_cp437+0x1759>
ffffffff80004a54:	48 81 7d f8 69 25 00 	cmpq   $0x2569,-0x8(%rbp)
ffffffff80004a5b:	00 
ffffffff80004a5c:	0f 84 ff 11 00 00    	je     ffffffff80005c61 <unicode_to_cp437+0x157d>
ffffffff80004a62:	48 81 7d f8 69 25 00 	cmpq   $0x2569,-0x8(%rbp)
ffffffff80004a69:	00 
ffffffff80004a6a:	0f 87 cd 13 00 00    	ja     ffffffff80005e3d <unicode_to_cp437+0x1759>
ffffffff80004a70:	48 81 7d f8 68 25 00 	cmpq   $0x2568,-0x8(%rbp)
ffffffff80004a77:	00 
ffffffff80004a78:	0f 84 1f 12 00 00    	je     ffffffff80005c9d <unicode_to_cp437+0x15b9>
ffffffff80004a7e:	48 81 7d f8 68 25 00 	cmpq   $0x2568,-0x8(%rbp)
ffffffff80004a85:	00 
ffffffff80004a86:	0f 87 b1 13 00 00    	ja     ffffffff80005e3d <unicode_to_cp437+0x1759>
ffffffff80004a8c:	48 81 7d f8 67 25 00 	cmpq   $0x2567,-0x8(%rbp)
ffffffff80004a93:	00 
ffffffff80004a94:	0f 84 f9 11 00 00    	je     ffffffff80005c93 <unicode_to_cp437+0x15af>
ffffffff80004a9a:	48 81 7d f8 67 25 00 	cmpq   $0x2567,-0x8(%rbp)
ffffffff80004aa1:	00 
ffffffff80004aa2:	0f 87 95 13 00 00    	ja     ffffffff80005e3d <unicode_to_cp437+0x1759>
ffffffff80004aa8:	48 81 7d f8 66 25 00 	cmpq   $0x2566,-0x8(%rbp)
ffffffff80004aaf:	00 
ffffffff80004ab0:	0f 84 b5 11 00 00    	je     ffffffff80005c6b <unicode_to_cp437+0x1587>
ffffffff80004ab6:	48 81 7d f8 66 25 00 	cmpq   $0x2566,-0x8(%rbp)
ffffffff80004abd:	00 
ffffffff80004abe:	0f 87 79 13 00 00    	ja     ffffffff80005e3d <unicode_to_cp437+0x1759>
ffffffff80004ac4:	48 81 7d f8 65 25 00 	cmpq   $0x2565,-0x8(%rbp)
ffffffff80004acb:	00 
ffffffff80004acc:	0f 84 df 11 00 00    	je     ffffffff80005cb1 <unicode_to_cp437+0x15cd>
ffffffff80004ad2:	48 81 7d f8 65 25 00 	cmpq   $0x2565,-0x8(%rbp)
ffffffff80004ad9:	00 
ffffffff80004ada:	0f 87 5d 13 00 00    	ja     ffffffff80005e3d <unicode_to_cp437+0x1759>
ffffffff80004ae0:	48 81 7d f8 64 25 00 	cmpq   $0x2564,-0x8(%rbp)
ffffffff80004ae7:	00 
ffffffff80004ae8:	0f 84 b9 11 00 00    	je     ffffffff80005ca7 <unicode_to_cp437+0x15c3>
ffffffff80004aee:	48 81 7d f8 64 25 00 	cmpq   $0x2564,-0x8(%rbp)
ffffffff80004af5:	00 
ffffffff80004af6:	0f 87 41 13 00 00    	ja     ffffffff80005e3d <unicode_to_cp437+0x1759>
ffffffff80004afc:	48 81 7d f8 63 25 00 	cmpq   $0x2563,-0x8(%rbp)
ffffffff80004b03:	00 
ffffffff80004b04:	0f 84 ad 10 00 00    	je     ffffffff80005bb7 <unicode_to_cp437+0x14d3>
ffffffff80004b0a:	48 81 7d f8 63 25 00 	cmpq   $0x2563,-0x8(%rbp)
ffffffff80004b11:	00 
ffffffff80004b12:	0f 87 25 13 00 00    	ja     ffffffff80005e3d <unicode_to_cp437+0x1759>
ffffffff80004b18:	48 81 7d f8 62 25 00 	cmpq   $0x2562,-0x8(%rbp)
ffffffff80004b1f:	00 
ffffffff80004b20:	0f 84 73 10 00 00    	je     ffffffff80005b99 <unicode_to_cp437+0x14b5>
ffffffff80004b26:	48 81 7d f8 62 25 00 	cmpq   $0x2562,-0x8(%rbp)
ffffffff80004b2d:	00 
ffffffff80004b2e:	0f 87 09 13 00 00    	ja     ffffffff80005e3d <unicode_to_cp437+0x1759>
ffffffff80004b34:	48 81 7d f8 61 25 00 	cmpq   $0x2561,-0x8(%rbp)
ffffffff80004b3b:	00 
ffffffff80004b3c:	0f 84 4d 10 00 00    	je     ffffffff80005b8f <unicode_to_cp437+0x14ab>
ffffffff80004b42:	48 81 7d f8 61 25 00 	cmpq   $0x2561,-0x8(%rbp)
ffffffff80004b49:	00 
ffffffff80004b4a:	0f 87 ed 12 00 00    	ja     ffffffff80005e3d <unicode_to_cp437+0x1759>
ffffffff80004b50:	48 81 7d f8 60 25 00 	cmpq   $0x2560,-0x8(%rbp)
ffffffff80004b57:	00 
ffffffff80004b58:	0f 84 17 11 00 00    	je     ffffffff80005c75 <unicode_to_cp437+0x1591>
ffffffff80004b5e:	48 81 7d f8 60 25 00 	cmpq   $0x2560,-0x8(%rbp)
ffffffff80004b65:	00 
ffffffff80004b66:	0f 87 d1 12 00 00    	ja     ffffffff80005e3d <unicode_to_cp437+0x1759>
ffffffff80004b6c:	48 81 7d f8 5f 25 00 	cmpq   $0x255f,-0x8(%rbp)
ffffffff80004b73:	00 
ffffffff80004b74:	0f 84 c9 10 00 00    	je     ffffffff80005c43 <unicode_to_cp437+0x155f>
ffffffff80004b7a:	48 81 7d f8 5f 25 00 	cmpq   $0x255f,-0x8(%rbp)
ffffffff80004b81:	00 
ffffffff80004b82:	0f 87 b5 12 00 00    	ja     ffffffff80005e3d <unicode_to_cp437+0x1759>
ffffffff80004b88:	48 81 7d f8 5e 25 00 	cmpq   $0x255e,-0x8(%rbp)
ffffffff80004b8f:	00 
ffffffff80004b90:	0f 84 a3 10 00 00    	je     ffffffff80005c39 <unicode_to_cp437+0x1555>
ffffffff80004b96:	48 81 7d f8 5e 25 00 	cmpq   $0x255e,-0x8(%rbp)
ffffffff80004b9d:	00 
ffffffff80004b9e:	0f 87 99 12 00 00    	ja     ffffffff80005e3d <unicode_to_cp437+0x1759>
ffffffff80004ba4:	48 81 7d f8 5d 25 00 	cmpq   $0x255d,-0x8(%rbp)
ffffffff80004bab:	00 
ffffffff80004bac:	0f 84 23 10 00 00    	je     ffffffff80005bd5 <unicode_to_cp437+0x14f1>
ffffffff80004bb2:	48 81 7d f8 5d 25 00 	cmpq   $0x255d,-0x8(%rbp)
ffffffff80004bb9:	00 
ffffffff80004bba:	0f 87 7d 12 00 00    	ja     ffffffff80005e3d <unicode_to_cp437+0x1759>
ffffffff80004bc0:	48 81 7d f8 5c 25 00 	cmpq   $0x255c,-0x8(%rbp)
ffffffff80004bc7:	00 
ffffffff80004bc8:	0f 84 11 10 00 00    	je     ffffffff80005bdf <unicode_to_cp437+0x14fb>
ffffffff80004bce:	48 81 7d f8 5c 25 00 	cmpq   $0x255c,-0x8(%rbp)
ffffffff80004bd5:	00 
ffffffff80004bd6:	0f 87 61 12 00 00    	ja     ffffffff80005e3d <unicode_to_cp437+0x1759>
ffffffff80004bdc:	48 81 7d f8 5b 25 00 	cmpq   $0x255b,-0x8(%rbp)
ffffffff80004be3:	00 
ffffffff80004be4:	0f 84 ff 0f 00 00    	je     ffffffff80005be9 <unicode_to_cp437+0x1505>
ffffffff80004bea:	48 81 7d f8 5b 25 00 	cmpq   $0x255b,-0x8(%rbp)
ffffffff80004bf1:	00 
ffffffff80004bf2:	0f 87 45 12 00 00    	ja     ffffffff80005e3d <unicode_to_cp437+0x1759>
ffffffff80004bf8:	48 81 7d f8 5a 25 00 	cmpq   $0x255a,-0x8(%rbp)
ffffffff80004bff:	00 
ffffffff80004c00:	0f 84 47 10 00 00    	je     ffffffff80005c4d <unicode_to_cp437+0x1569>
ffffffff80004c06:	48 81 7d f8 5a 25 00 	cmpq   $0x255a,-0x8(%rbp)
ffffffff80004c0d:	00 
ffffffff80004c0e:	0f 87 29 12 00 00    	ja     ffffffff80005e3d <unicode_to_cp437+0x1759>
ffffffff80004c14:	48 81 7d f8 59 25 00 	cmpq   $0x2559,-0x8(%rbp)
ffffffff80004c1b:	00 
ffffffff80004c1c:	0f 84 99 10 00 00    	je     ffffffff80005cbb <unicode_to_cp437+0x15d7>
ffffffff80004c22:	48 81 7d f8 59 25 00 	cmpq   $0x2559,-0x8(%rbp)
ffffffff80004c29:	00 
ffffffff80004c2a:	0f 87 0d 12 00 00    	ja     ffffffff80005e3d <unicode_to_cp437+0x1759>
ffffffff80004c30:	48 81 7d f8 58 25 00 	cmpq   $0x2558,-0x8(%rbp)
ffffffff80004c37:	00 
ffffffff80004c38:	0f 84 87 10 00 00    	je     ffffffff80005cc5 <unicode_to_cp437+0x15e1>
ffffffff80004c3e:	48 81 7d f8 58 25 00 	cmpq   $0x2558,-0x8(%rbp)
ffffffff80004c45:	00 
ffffffff80004c46:	0f 87 f1 11 00 00    	ja     ffffffff80005e3d <unicode_to_cp437+0x1759>
ffffffff80004c4c:	48 81 7d f8 57 25 00 	cmpq   $0x2557,-0x8(%rbp)
ffffffff80004c53:	00 
ffffffff80004c54:	0f 84 71 0f 00 00    	je     ffffffff80005bcb <unicode_to_cp437+0x14e7>
ffffffff80004c5a:	48 81 7d f8 57 25 00 	cmpq   $0x2557,-0x8(%rbp)
ffffffff80004c61:	00 
ffffffff80004c62:	0f 87 d5 11 00 00    	ja     ffffffff80005e3d <unicode_to_cp437+0x1759>
ffffffff80004c68:	48 81 7d f8 56 25 00 	cmpq   $0x2556,-0x8(%rbp)
ffffffff80004c6f:	00 
ffffffff80004c70:	0f 84 2d 0f 00 00    	je     ffffffff80005ba3 <unicode_to_cp437+0x14bf>
ffffffff80004c76:	48 81 7d f8 56 25 00 	cmpq   $0x2556,-0x8(%rbp)
ffffffff80004c7d:	00 
ffffffff80004c7e:	0f 87 b9 11 00 00    	ja     ffffffff80005e3d <unicode_to_cp437+0x1759>
ffffffff80004c84:	48 81 7d f8 55 25 00 	cmpq   $0x2555,-0x8(%rbp)
ffffffff80004c8b:	00 
ffffffff80004c8c:	0f 84 1b 0f 00 00    	je     ffffffff80005bad <unicode_to_cp437+0x14c9>
ffffffff80004c92:	48 81 7d f8 55 25 00 	cmpq   $0x2555,-0x8(%rbp)
ffffffff80004c99:	00 
ffffffff80004c9a:	0f 87 9d 11 00 00    	ja     ffffffff80005e3d <unicode_to_cp437+0x1759>
ffffffff80004ca0:	48 81 7d f8 54 25 00 	cmpq   $0x2554,-0x8(%rbp)
ffffffff80004ca7:	00 
ffffffff80004ca8:	0f 84 a9 0f 00 00    	je     ffffffff80005c57 <unicode_to_cp437+0x1573>
ffffffff80004cae:	48 81 7d f8 54 25 00 	cmpq   $0x2554,-0x8(%rbp)
ffffffff80004cb5:	00 
ffffffff80004cb6:	0f 87 81 11 00 00    	ja     ffffffff80005e3d <unicode_to_cp437+0x1759>
ffffffff80004cbc:	48 81 7d f8 53 25 00 	cmpq   $0x2553,-0x8(%rbp)
ffffffff80004cc3:	00 
ffffffff80004cc4:	0f 84 0f 10 00 00    	je     ffffffff80005cd9 <unicode_to_cp437+0x15f5>
ffffffff80004cca:	48 81 7d f8 53 25 00 	cmpq   $0x2553,-0x8(%rbp)
ffffffff80004cd1:	00 
ffffffff80004cd2:	0f 87 65 11 00 00    	ja     ffffffff80005e3d <unicode_to_cp437+0x1759>
ffffffff80004cd8:	48 81 7d f8 52 25 00 	cmpq   $0x2552,-0x8(%rbp)
ffffffff80004cdf:	00 
ffffffff80004ce0:	0f 84 e9 0f 00 00    	je     ffffffff80005ccf <unicode_to_cp437+0x15eb>
ffffffff80004ce6:	48 81 7d f8 52 25 00 	cmpq   $0x2552,-0x8(%rbp)
ffffffff80004ced:	00 
ffffffff80004cee:	0f 87 49 11 00 00    	ja     ffffffff80005e3d <unicode_to_cp437+0x1759>
ffffffff80004cf4:	48 81 7d f8 51 25 00 	cmpq   $0x2551,-0x8(%rbp)
ffffffff80004cfb:	00 
ffffffff80004cfc:	0f 84 bf 0e 00 00    	je     ffffffff80005bc1 <unicode_to_cp437+0x14dd>
ffffffff80004d02:	48 81 7d f8 51 25 00 	cmpq   $0x2551,-0x8(%rbp)
ffffffff80004d09:	00 
ffffffff80004d0a:	0f 87 2d 11 00 00    	ja     ffffffff80005e3d <unicode_to_cp437+0x1759>
ffffffff80004d10:	48 81 7d f8 50 25 00 	cmpq   $0x2550,-0x8(%rbp)
ffffffff80004d17:	00 
ffffffff80004d18:	0f 84 61 0f 00 00    	je     ffffffff80005c7f <unicode_to_cp437+0x159b>
ffffffff80004d1e:	48 81 7d f8 50 25 00 	cmpq   $0x2550,-0x8(%rbp)
ffffffff80004d25:	00 
ffffffff80004d26:	0f 87 11 11 00 00    	ja     ffffffff80005e3d <unicode_to_cp437+0x1759>
ffffffff80004d2c:	48 81 7d f8 3c 25 00 	cmpq   $0x253c,-0x8(%rbp)
ffffffff80004d33:	00 
ffffffff80004d34:	0f 84 f5 0e 00 00    	je     ffffffff80005c2f <unicode_to_cp437+0x154b>
ffffffff80004d3a:	48 81 7d f8 3c 25 00 	cmpq   $0x253c,-0x8(%rbp)
ffffffff80004d41:	00 
ffffffff80004d42:	0f 87 f5 10 00 00    	ja     ffffffff80005e3d <unicode_to_cp437+0x1759>
ffffffff80004d48:	48 81 7d f8 34 25 00 	cmpq   $0x2534,-0x8(%rbp)
ffffffff80004d4f:	00 
ffffffff80004d50:	0f 84 b1 0e 00 00    	je     ffffffff80005c07 <unicode_to_cp437+0x1523>
ffffffff80004d56:	48 81 7d f8 34 25 00 	cmpq   $0x2534,-0x8(%rbp)
ffffffff80004d5d:	00 
ffffffff80004d5e:	0f 87 d9 10 00 00    	ja     ffffffff80005e3d <unicode_to_cp437+0x1759>
ffffffff80004d64:	48 81 7d f8 2c 25 00 	cmpq   $0x252c,-0x8(%rbp)
ffffffff80004d6b:	00 
ffffffff80004d6c:	0f 84 9f 0e 00 00    	je     ffffffff80005c11 <unicode_to_cp437+0x152d>
ffffffff80004d72:	48 81 7d f8 2c 25 00 	cmpq   $0x252c,-0x8(%rbp)
ffffffff80004d79:	00 
ffffffff80004d7a:	0f 87 bd 10 00 00    	ja     ffffffff80005e3d <unicode_to_cp437+0x1759>
ffffffff80004d80:	48 81 7d f8 24 25 00 	cmpq   $0x2524,-0x8(%rbp)
ffffffff80004d87:	00 
ffffffff80004d88:	0f 84 f7 0d 00 00    	je     ffffffff80005b85 <unicode_to_cp437+0x14a1>
ffffffff80004d8e:	48 81 7d f8 24 25 00 	cmpq   $0x2524,-0x8(%rbp)
ffffffff80004d95:	00 
ffffffff80004d96:	0f 87 a1 10 00 00    	ja     ffffffff80005e3d <unicode_to_cp437+0x1759>
ffffffff80004d9c:	48 81 7d f8 1c 25 00 	cmpq   $0x251c,-0x8(%rbp)
ffffffff80004da3:	00 
ffffffff80004da4:	0f 84 71 0e 00 00    	je     ffffffff80005c1b <unicode_to_cp437+0x1537>
ffffffff80004daa:	48 81 7d f8 1c 25 00 	cmpq   $0x251c,-0x8(%rbp)
ffffffff80004db1:	00 
ffffffff80004db2:	0f 87 85 10 00 00    	ja     ffffffff80005e3d <unicode_to_cp437+0x1759>
ffffffff80004db8:	48 81 7d f8 18 25 00 	cmpq   $0x2518,-0x8(%rbp)
ffffffff80004dbf:	00 
ffffffff80004dc0:	0f 84 31 0f 00 00    	je     ffffffff80005cf7 <unicode_to_cp437+0x1613>
ffffffff80004dc6:	48 81 7d f8 18 25 00 	cmpq   $0x2518,-0x8(%rbp)
ffffffff80004dcd:	00 
ffffffff80004dce:	0f 87 69 10 00 00    	ja     ffffffff80005e3d <unicode_to_cp437+0x1759>
ffffffff80004dd4:	48 81 7d f8 14 25 00 	cmpq   $0x2514,-0x8(%rbp)
ffffffff80004ddb:	00 
ffffffff80004ddc:	0f 84 1b 0e 00 00    	je     ffffffff80005bfd <unicode_to_cp437+0x1519>
ffffffff80004de2:	48 81 7d f8 14 25 00 	cmpq   $0x2514,-0x8(%rbp)
ffffffff80004de9:	00 
ffffffff80004dea:	0f 87 4d 10 00 00    	ja     ffffffff80005e3d <unicode_to_cp437+0x1759>
ffffffff80004df0:	48 81 7d f8 10 25 00 	cmpq   $0x2510,-0x8(%rbp)
ffffffff80004df7:	00 
ffffffff80004df8:	0f 84 f5 0d 00 00    	je     ffffffff80005bf3 <unicode_to_cp437+0x150f>
ffffffff80004dfe:	48 81 7d f8 10 25 00 	cmpq   $0x2510,-0x8(%rbp)
ffffffff80004e05:	00 
ffffffff80004e06:	0f 87 31 10 00 00    	ja     ffffffff80005e3d <unicode_to_cp437+0x1759>
ffffffff80004e0c:	48 81 7d f8 0c 25 00 	cmpq   $0x250c,-0x8(%rbp)
ffffffff80004e13:	00 
ffffffff80004e14:	0f 84 e7 0e 00 00    	je     ffffffff80005d01 <unicode_to_cp437+0x161d>
ffffffff80004e1a:	48 81 7d f8 0c 25 00 	cmpq   $0x250c,-0x8(%rbp)
ffffffff80004e21:	00 
ffffffff80004e22:	0f 87 15 10 00 00    	ja     ffffffff80005e3d <unicode_to_cp437+0x1759>
ffffffff80004e28:	48 81 7d f8 02 25 00 	cmpq   $0x2502,-0x8(%rbp)
ffffffff80004e2f:	00 
ffffffff80004e30:	0f 84 45 0d 00 00    	je     ffffffff80005b7b <unicode_to_cp437+0x1497>
ffffffff80004e36:	48 81 7d f8 02 25 00 	cmpq   $0x2502,-0x8(%rbp)
ffffffff80004e3d:	00 
ffffffff80004e3e:	0f 87 f9 0f 00 00    	ja     ffffffff80005e3d <unicode_to_cp437+0x1759>
ffffffff80004e44:	48 81 7d f8 00 25 00 	cmpq   $0x2500,-0x8(%rbp)
ffffffff80004e4b:	00 
ffffffff80004e4c:	0f 84 d3 0d 00 00    	je     ffffffff80005c25 <unicode_to_cp437+0x1541>
ffffffff80004e52:	48 81 7d f8 00 25 00 	cmpq   $0x2500,-0x8(%rbp)
ffffffff80004e59:	00 
ffffffff80004e5a:	0f 87 dd 0f 00 00    	ja     ffffffff80005e3d <unicode_to_cp437+0x1759>
ffffffff80004e60:	48 81 7d f8 21 23 00 	cmpq   $0x2321,-0x8(%rbp)
ffffffff80004e67:	00 
ffffffff80004e68:	0f 84 89 0f 00 00    	je     ffffffff80005df7 <unicode_to_cp437+0x1713>
ffffffff80004e6e:	48 81 7d f8 21 23 00 	cmpq   $0x2321,-0x8(%rbp)
ffffffff80004e75:	00 
ffffffff80004e76:	0f 87 c1 0f 00 00    	ja     ffffffff80005e3d <unicode_to_cp437+0x1759>
ffffffff80004e7c:	48 81 7d f8 20 23 00 	cmpq   $0x2320,-0x8(%rbp)
ffffffff80004e83:	00 
ffffffff80004e84:	0f 84 66 0f 00 00    	je     ffffffff80005df0 <unicode_to_cp437+0x170c>
ffffffff80004e8a:	48 81 7d f8 20 23 00 	cmpq   $0x2320,-0x8(%rbp)
ffffffff80004e91:	00 
ffffffff80004e92:	0f 87 a5 0f 00 00    	ja     ffffffff80005e3d <unicode_to_cp437+0x1759>
ffffffff80004e98:	48 81 7d f8 10 23 00 	cmpq   $0x2310,-0x8(%rbp)
ffffffff80004e9f:	00 
ffffffff80004ea0:	0f 84 71 0c 00 00    	je     ffffffff80005b17 <unicode_to_cp437+0x1433>
ffffffff80004ea6:	48 81 7d f8 10 23 00 	cmpq   $0x2310,-0x8(%rbp)
ffffffff80004ead:	00 
ffffffff80004eae:	0f 87 89 0f 00 00    	ja     ffffffff80005e3d <unicode_to_cp437+0x1759>
ffffffff80004eb4:	48 81 7d f8 02 23 00 	cmpq   $0x2302,-0x8(%rbp)
ffffffff80004ebb:	00 
ffffffff80004ebc:	0f 84 b1 0a 00 00    	je     ffffffff80005973 <unicode_to_cp437+0x128f>
ffffffff80004ec2:	48 81 7d f8 02 23 00 	cmpq   $0x2302,-0x8(%rbp)
ffffffff80004ec9:	00 
ffffffff80004eca:	0f 87 6d 0f 00 00    	ja     ffffffff80005e3d <unicode_to_cp437+0x1759>
ffffffff80004ed0:	48 81 7d f8 65 22 00 	cmpq   $0x2265,-0x8(%rbp)
ffffffff80004ed7:	00 
ffffffff80004ed8:	0f 84 04 0f 00 00    	je     ffffffff80005de2 <unicode_to_cp437+0x16fe>
ffffffff80004ede:	48 81 7d f8 65 22 00 	cmpq   $0x2265,-0x8(%rbp)
ffffffff80004ee5:	00 
ffffffff80004ee6:	0f 87 51 0f 00 00    	ja     ffffffff80005e3d <unicode_to_cp437+0x1759>
ffffffff80004eec:	48 81 7d f8 64 22 00 	cmpq   $0x2264,-0x8(%rbp)
ffffffff80004ef3:	00 
ffffffff80004ef4:	0f 84 ef 0e 00 00    	je     ffffffff80005de9 <unicode_to_cp437+0x1705>
ffffffff80004efa:	48 81 7d f8 64 22 00 	cmpq   $0x2264,-0x8(%rbp)
ffffffff80004f01:	00 
ffffffff80004f02:	0f 87 35 0f 00 00    	ja     ffffffff80005e3d <unicode_to_cp437+0x1759>
ffffffff80004f08:	48 81 7d f8 61 22 00 	cmpq   $0x2261,-0x8(%rbp)
ffffffff80004f0f:	00 
ffffffff80004f10:	0f 84 be 0e 00 00    	je     ffffffff80005dd4 <unicode_to_cp437+0x16f0>
ffffffff80004f16:	48 81 7d f8 61 22 00 	cmpq   $0x2261,-0x8(%rbp)
ffffffff80004f1d:	00 
ffffffff80004f1e:	0f 87 19 0f 00 00    	ja     ffffffff80005e3d <unicode_to_cp437+0x1759>
ffffffff80004f24:	48 81 7d f8 48 22 00 	cmpq   $0x2248,-0x8(%rbp)
ffffffff80004f2b:	00 
ffffffff80004f2c:	0f 84 d3 0e 00 00    	je     ffffffff80005e05 <unicode_to_cp437+0x1721>
ffffffff80004f32:	48 81 7d f8 48 22 00 	cmpq   $0x2248,-0x8(%rbp)
ffffffff80004f39:	00 
ffffffff80004f3a:	0f 87 fd 0e 00 00    	ja     ffffffff80005e3d <unicode_to_cp437+0x1759>
ffffffff80004f40:	48 81 7d f8 29 22 00 	cmpq   $0x2229,-0x8(%rbp)
ffffffff80004f47:	00 
ffffffff80004f48:	0f 84 7f 0e 00 00    	je     ffffffff80005dcd <unicode_to_cp437+0x16e9>
ffffffff80004f4e:	48 81 7d f8 29 22 00 	cmpq   $0x2229,-0x8(%rbp)
ffffffff80004f55:	00 
ffffffff80004f56:	0f 87 e1 0e 00 00    	ja     ffffffff80005e3d <unicode_to_cp437+0x1759>
ffffffff80004f5c:	48 81 7d f8 1f 22 00 	cmpq   $0x221f,-0x8(%rbp)
ffffffff80004f63:	00 
ffffffff80004f64:	0f 84 e1 09 00 00    	je     ffffffff8000594b <unicode_to_cp437+0x1267>
ffffffff80004f6a:	48 81 7d f8 1f 22 00 	cmpq   $0x221f,-0x8(%rbp)
ffffffff80004f71:	00 
ffffffff80004f72:	0f 87 c5 0e 00 00    	ja     ffffffff80005e3d <unicode_to_cp437+0x1759>
ffffffff80004f78:	48 81 7d f8 1e 22 00 	cmpq   $0x221e,-0x8(%rbp)
ffffffff80004f7f:	00 
ffffffff80004f80:	0f 84 2f 0e 00 00    	je     ffffffff80005db5 <unicode_to_cp437+0x16d1>
ffffffff80004f86:	48 81 7d f8 1e 22 00 	cmpq   $0x221e,-0x8(%rbp)
ffffffff80004f8d:	00 
ffffffff80004f8e:	0f 87 a9 0e 00 00    	ja     ffffffff80005e3d <unicode_to_cp437+0x1759>
ffffffff80004f94:	48 81 7d f8 1a 22 00 	cmpq   $0x221a,-0x8(%rbp)
ffffffff80004f9b:	00 
ffffffff80004f9c:	0f 84 7f 0e 00 00    	je     ffffffff80005e21 <unicode_to_cp437+0x173d>
ffffffff80004fa2:	48 81 7d f8 1a 22 00 	cmpq   $0x221a,-0x8(%rbp)
ffffffff80004fa9:	00 
ffffffff80004faa:	0f 87 8d 0e 00 00    	ja     ffffffff80005e3d <unicode_to_cp437+0x1759>
ffffffff80004fb0:	48 81 7d f8 19 22 00 	cmpq   $0x2219,-0x8(%rbp)
ffffffff80004fb7:	00 
ffffffff80004fb8:	0f 84 55 0e 00 00    	je     ffffffff80005e13 <unicode_to_cp437+0x172f>
ffffffff80004fbe:	48 81 7d f8 19 22 00 	cmpq   $0x2219,-0x8(%rbp)
ffffffff80004fc5:	00 
ffffffff80004fc6:	0f 87 71 0e 00 00    	ja     ffffffff80005e3d <unicode_to_cp437+0x1759>
ffffffff80004fcc:	48 81 7d f8 a8 21 00 	cmpq   $0x21a8,-0x8(%rbp)
ffffffff80004fd3:	00 
ffffffff80004fd4:	0f 84 3f 09 00 00    	je     ffffffff80005919 <unicode_to_cp437+0x1235>
ffffffff80004fda:	48 81 7d f8 a8 21 00 	cmpq   $0x21a8,-0x8(%rbp)
ffffffff80004fe1:	00 
ffffffff80004fe2:	0f 87 55 0e 00 00    	ja     ffffffff80005e3d <unicode_to_cp437+0x1759>
ffffffff80004fe8:	48 81 7d f8 95 21 00 	cmpq   $0x2195,-0x8(%rbp)
ffffffff80004fef:	00 
ffffffff80004ff0:	0f 84 f1 08 00 00    	je     ffffffff800058e7 <unicode_to_cp437+0x1203>
ffffffff80004ff6:	48 81 7d f8 95 21 00 	cmpq   $0x2195,-0x8(%rbp)
ffffffff80004ffd:	00 
ffffffff80004ffe:	0f 87 39 0e 00 00    	ja     ffffffff80005e3d <unicode_to_cp437+0x1759>
ffffffff80005004:	48 81 7d f8 94 21 00 	cmpq   $0x2194,-0x8(%rbp)
ffffffff8000500b:	00 
ffffffff8000500c:	0f 84 43 09 00 00    	je     ffffffff80005955 <unicode_to_cp437+0x1271>
ffffffff80005012:	48 81 7d f8 94 21 00 	cmpq   $0x2194,-0x8(%rbp)
ffffffff80005019:	00 
ffffffff8000501a:	0f 87 1d 0e 00 00    	ja     ffffffff80005e3d <unicode_to_cp437+0x1759>
ffffffff80005020:	48 81 7d f8 93 21 00 	cmpq   $0x2193,-0x8(%rbp)
ffffffff80005027:	00 
ffffffff80005028:	0f 84 ff 08 00 00    	je     ffffffff8000592d <unicode_to_cp437+0x1249>
ffffffff8000502e:	48 81 7d f8 93 21 00 	cmpq   $0x2193,-0x8(%rbp)
ffffffff80005035:	00 
ffffffff80005036:	0f 87 01 0e 00 00    	ja     ffffffff80005e3d <unicode_to_cp437+0x1759>
ffffffff8000503c:	48 81 7d f8 92 21 00 	cmpq   $0x2192,-0x8(%rbp)
ffffffff80005043:	00 
ffffffff80005044:	0f 84 ed 08 00 00    	je     ffffffff80005937 <unicode_to_cp437+0x1253>
ffffffff8000504a:	48 81 7d f8 92 21 00 	cmpq   $0x2192,-0x8(%rbp)
ffffffff80005051:	00 
ffffffff80005052:	0f 87 e5 0d 00 00    	ja     ffffffff80005e3d <unicode_to_cp437+0x1759>
ffffffff80005058:	48 81 7d f8 91 21 00 	cmpq   $0x2191,-0x8(%rbp)
ffffffff8000505f:	00 
ffffffff80005060:	0f 84 bd 08 00 00    	je     ffffffff80005923 <unicode_to_cp437+0x123f>
ffffffff80005066:	48 81 7d f8 91 21 00 	cmpq   $0x2191,-0x8(%rbp)
ffffffff8000506d:	00 
ffffffff8000506e:	0f 87 c9 0d 00 00    	ja     ffffffff80005e3d <unicode_to_cp437+0x1759>
ffffffff80005074:	48 81 7d f8 90 21 00 	cmpq   $0x2190,-0x8(%rbp)
ffffffff8000507b:	00 
ffffffff8000507c:	0f 84 bf 08 00 00    	je     ffffffff80005941 <unicode_to_cp437+0x125d>
ffffffff80005082:	48 81 7d f8 90 21 00 	cmpq   $0x2190,-0x8(%rbp)
ffffffff80005089:	00 
ffffffff8000508a:	0f 87 ad 0d 00 00    	ja     ffffffff80005e3d <unicode_to_cp437+0x1759>
ffffffff80005090:	48 81 7d f8 a7 20 00 	cmpq   $0x20a7,-0x8(%rbp)
ffffffff80005097:	00 
ffffffff80005098:	0f 84 0b 0a 00 00    	je     ffffffff80005aa9 <unicode_to_cp437+0x13c5>
ffffffff8000509e:	48 81 7d f8 a7 20 00 	cmpq   $0x20a7,-0x8(%rbp)
ffffffff800050a5:	00 
ffffffff800050a6:	0f 87 91 0d 00 00    	ja     ffffffff80005e3d <unicode_to_cp437+0x1759>
ffffffff800050ac:	48 81 7d f8 7f 20 00 	cmpq   $0x207f,-0x8(%rbp)
ffffffff800050b3:	00 
ffffffff800050b4:	0f 84 6e 0d 00 00    	je     ffffffff80005e28 <unicode_to_cp437+0x1744>
ffffffff800050ba:	48 81 7d f8 7f 20 00 	cmpq   $0x207f,-0x8(%rbp)
ffffffff800050c1:	00 
ffffffff800050c2:	0f 87 75 0d 00 00    	ja     ffffffff80005e3d <unicode_to_cp437+0x1759>
ffffffff800050c8:	48 81 7d f8 3c 20 00 	cmpq   $0x203c,-0x8(%rbp)
ffffffff800050cf:	00 
ffffffff800050d0:	0f 84 1b 08 00 00    	je     ffffffff800058f1 <unicode_to_cp437+0x120d>
ffffffff800050d6:	48 81 7d f8 3c 20 00 	cmpq   $0x203c,-0x8(%rbp)
ffffffff800050dd:	00 
ffffffff800050de:	0f 87 59 0d 00 00    	ja     ffffffff80005e3d <unicode_to_cp437+0x1759>
ffffffff800050e4:	48 81 7d f8 22 20 00 	cmpq   $0x2022,-0x8(%rbp)
ffffffff800050eb:	00 
ffffffff800050ec:	0f 84 87 07 00 00    	je     ffffffff80005879 <unicode_to_cp437+0x1195>
ffffffff800050f2:	48 81 7d f8 22 20 00 	cmpq   $0x2022,-0x8(%rbp)
ffffffff800050f9:	00 
ffffffff800050fa:	0f 87 3d 0d 00 00    	ja     ffffffff80005e3d <unicode_to_cp437+0x1759>
ffffffff80005100:	48 81 7d f8 c6 03 00 	cmpq   $0x3c6,-0x8(%rbp)
ffffffff80005107:	00 
ffffffff80005108:	0f 84 b1 0c 00 00    	je     ffffffff80005dbf <unicode_to_cp437+0x16db>
ffffffff8000510e:	48 81 7d f8 c6 03 00 	cmpq   $0x3c6,-0x8(%rbp)
ffffffff80005115:	00 
ffffffff80005116:	0f 87 21 0d 00 00    	ja     ffffffff80005e3d <unicode_to_cp437+0x1759>
ffffffff8000511c:	48 81 7d f8 c4 03 00 	cmpq   $0x3c4,-0x8(%rbp)
ffffffff80005123:	00 
ffffffff80005124:	0f 84 59 0c 00 00    	je     ffffffff80005d83 <unicode_to_cp437+0x169f>
ffffffff8000512a:	48 81 7d f8 c4 03 00 	cmpq   $0x3c4,-0x8(%rbp)
ffffffff80005131:	00 
ffffffff80005132:	0f 87 05 0d 00 00    	ja     ffffffff80005e3d <unicode_to_cp437+0x1759>
ffffffff80005138:	48 81 7d f8 c3 03 00 	cmpq   $0x3c3,-0x8(%rbp)
ffffffff8000513f:	00 
ffffffff80005140:	0f 84 29 0c 00 00    	je     ffffffff80005d6f <unicode_to_cp437+0x168b>
ffffffff80005146:	48 81 7d f8 c3 03 00 	cmpq   $0x3c3,-0x8(%rbp)
ffffffff8000514d:	00 
ffffffff8000514e:	0f 87 e9 0c 00 00    	ja     ffffffff80005e3d <unicode_to_cp437+0x1759>
ffffffff80005154:	48 81 7d f8 c0 03 00 	cmpq   $0x3c0,-0x8(%rbp)
ffffffff8000515b:	00 
ffffffff8000515c:	0f 84 f9 0b 00 00    	je     ffffffff80005d5b <unicode_to_cp437+0x1677>
ffffffff80005162:	48 81 7d f8 c0 03 00 	cmpq   $0x3c0,-0x8(%rbp)
ffffffff80005169:	00 
ffffffff8000516a:	0f 87 cd 0c 00 00    	ja     ffffffff80005e3d <unicode_to_cp437+0x1759>
ffffffff80005170:	48 81 7d f8 b5 03 00 	cmpq   $0x3b5,-0x8(%rbp)
ffffffff80005177:	00 
ffffffff80005178:	0f 84 48 0c 00 00    	je     ffffffff80005dc6 <unicode_to_cp437+0x16e2>
ffffffff8000517e:	48 81 7d f8 b5 03 00 	cmpq   $0x3b5,-0x8(%rbp)
ffffffff80005185:	00 
ffffffff80005186:	0f 87 b1 0c 00 00    	ja     ffffffff80005e3d <unicode_to_cp437+0x1759>
ffffffff8000518c:	48 81 7d f8 b4 03 00 	cmpq   $0x3b4,-0x8(%rbp)
ffffffff80005193:	00 
ffffffff80005194:	0f 84 11 0c 00 00    	je     ffffffff80005dab <unicode_to_cp437+0x16c7>
ffffffff8000519a:	48 81 7d f8 b4 03 00 	cmpq   $0x3b4,-0x8(%rbp)
ffffffff800051a1:	00 
ffffffff800051a2:	0f 87 95 0c 00 00    	ja     ffffffff80005e3d <unicode_to_cp437+0x1759>
ffffffff800051a8:	48 81 7d f8 b1 03 00 	cmpq   $0x3b1,-0x8(%rbp)
ffffffff800051af:	00 
ffffffff800051b0:	0f 84 87 0b 00 00    	je     ffffffff80005d3d <unicode_to_cp437+0x1659>
ffffffff800051b6:	48 81 7d f8 b1 03 00 	cmpq   $0x3b1,-0x8(%rbp)
ffffffff800051bd:	00 
ffffffff800051be:	0f 87 79 0c 00 00    	ja     ffffffff80005e3d <unicode_to_cp437+0x1759>
ffffffff800051c4:	48 81 7d f8 a9 03 00 	cmpq   $0x3a9,-0x8(%rbp)
ffffffff800051cb:	00 
ffffffff800051cc:	0f 84 cf 0b 00 00    	je     ffffffff80005da1 <unicode_to_cp437+0x16bd>
ffffffff800051d2:	48 81 7d f8 a9 03 00 	cmpq   $0x3a9,-0x8(%rbp)
ffffffff800051d9:	00 
ffffffff800051da:	0f 87 5d 0c 00 00    	ja     ffffffff80005e3d <unicode_to_cp437+0x1759>
ffffffff800051e0:	48 81 7d f8 a6 03 00 	cmpq   $0x3a6,-0x8(%rbp)
ffffffff800051e7:	00 
ffffffff800051e8:	0f 84 9f 0b 00 00    	je     ffffffff80005d8d <unicode_to_cp437+0x16a9>
ffffffff800051ee:	48 81 7d f8 a6 03 00 	cmpq   $0x3a6,-0x8(%rbp)
ffffffff800051f5:	00 
ffffffff800051f6:	0f 87 41 0c 00 00    	ja     ffffffff80005e3d <unicode_to_cp437+0x1759>
ffffffff800051fc:	48 81 7d f8 a3 03 00 	cmpq   $0x3a3,-0x8(%rbp)
ffffffff80005203:	00 
ffffffff80005204:	0f 84 5b 0b 00 00    	je     ffffffff80005d65 <unicode_to_cp437+0x1681>
ffffffff8000520a:	48 81 7d f8 a3 03 00 	cmpq   $0x3a3,-0x8(%rbp)
ffffffff80005211:	00 
ffffffff80005212:	0f 87 25 0c 00 00    	ja     ffffffff80005e3d <unicode_to_cp437+0x1759>
ffffffff80005218:	48 81 7d f8 98 03 00 	cmpq   $0x398,-0x8(%rbp)
ffffffff8000521f:	00 
ffffffff80005220:	0f 84 71 0b 00 00    	je     ffffffff80005d97 <unicode_to_cp437+0x16b3>
ffffffff80005226:	48 81 7d f8 98 03 00 	cmpq   $0x398,-0x8(%rbp)
ffffffff8000522d:	00 
ffffffff8000522e:	0f 87 09 0c 00 00    	ja     ffffffff80005e3d <unicode_to_cp437+0x1759>
ffffffff80005234:	48 81 7d f8 93 03 00 	cmpq   $0x393,-0x8(%rbp)
ffffffff8000523b:	00 
ffffffff8000523c:	0f 84 0f 0b 00 00    	je     ffffffff80005d51 <unicode_to_cp437+0x166d>
ffffffff80005242:	48 81 7d f8 93 03 00 	cmpq   $0x393,-0x8(%rbp)
ffffffff80005249:	00 
ffffffff8000524a:	0f 87 ed 0b 00 00    	ja     ffffffff80005e3d <unicode_to_cp437+0x1759>
ffffffff80005250:	48 81 7d f8 92 01 00 	cmpq   $0x192,-0x8(%rbp)
ffffffff80005257:	00 
ffffffff80005258:	0f 84 55 08 00 00    	je     ffffffff80005ab3 <unicode_to_cp437+0x13cf>
ffffffff8000525e:	48 81 7d f8 92 01 00 	cmpq   $0x192,-0x8(%rbp)
ffffffff80005265:	00 
ffffffff80005266:	0f 87 d1 0b 00 00    	ja     ffffffff80005e3d <unicode_to_cp437+0x1759>
ffffffff8000526c:	48 81 7d f8 ff 00 00 	cmpq   $0xff,-0x8(%rbp)
ffffffff80005273:	00 
ffffffff80005274:	0f 84 f3 07 00 00    	je     ffffffff80005a6d <unicode_to_cp437+0x1389>
ffffffff8000527a:	48 81 7d f8 ff 00 00 	cmpq   $0xff,-0x8(%rbp)
ffffffff80005281:	00 
ffffffff80005282:	0f 87 b5 0b 00 00    	ja     ffffffff80005e3d <unicode_to_cp437+0x1759>
ffffffff80005288:	48 81 7d f8 fc 00 00 	cmpq   $0xfc,-0x8(%rbp)
ffffffff8000528f:	00 
ffffffff80005290:	0f 84 f1 06 00 00    	je     ffffffff80005987 <unicode_to_cp437+0x12a3>
ffffffff80005296:	48 81 7d f8 fc 00 00 	cmpq   $0xfc,-0x8(%rbp)
ffffffff8000529d:	00 
ffffffff8000529e:	0f 87 99 0b 00 00    	ja     ffffffff80005e3d <unicode_to_cp437+0x1759>
ffffffff800052a4:	48 81 7d f8 fb 00 00 	cmpq   $0xfb,-0x8(%rbp)
ffffffff800052ab:	00 
ffffffff800052ac:	0f 84 a7 07 00 00    	je     ffffffff80005a59 <unicode_to_cp437+0x1375>
ffffffff800052b2:	48 81 7d f8 fb 00 00 	cmpq   $0xfb,-0x8(%rbp)
ffffffff800052b9:	00 
ffffffff800052ba:	0f 87 7d 0b 00 00    	ja     ffffffff80005e3d <unicode_to_cp437+0x1759>
ffffffff800052c0:	48 81 7d f8 fa 00 00 	cmpq   $0xfa,-0x8(%rbp)
ffffffff800052c7:	00 
ffffffff800052c8:	0f 84 0d 08 00 00    	je     ffffffff80005adb <unicode_to_cp437+0x13f7>
ffffffff800052ce:	48 81 7d f8 fa 00 00 	cmpq   $0xfa,-0x8(%rbp)
ffffffff800052d5:	00 
ffffffff800052d6:	0f 87 61 0b 00 00    	ja     ffffffff80005e3d <unicode_to_cp437+0x1759>
ffffffff800052dc:	48 81 7d f8 f9 00 00 	cmpq   $0xf9,-0x8(%rbp)
ffffffff800052e3:	00 
ffffffff800052e4:	0f 84 79 07 00 00    	je     ffffffff80005a63 <unicode_to_cp437+0x137f>
ffffffff800052ea:	48 81 7d f8 f9 00 00 	cmpq   $0xf9,-0x8(%rbp)
ffffffff800052f1:	00 
ffffffff800052f2:	0f 87 45 0b 00 00    	ja     ffffffff80005e3d <unicode_to_cp437+0x1759>
ffffffff800052f8:	48 81 7d f8 f7 00 00 	cmpq   $0xf7,-0x8(%rbp)
ffffffff800052ff:	00 
ffffffff80005300:	0f 84 f8 0a 00 00    	je     ffffffff80005dfe <unicode_to_cp437+0x171a>
ffffffff80005306:	48 81 7d f8 f7 00 00 	cmpq   $0xf7,-0x8(%rbp)
ffffffff8000530d:	00 
ffffffff8000530e:	0f 87 29 0b 00 00    	ja     ffffffff80005e3d <unicode_to_cp437+0x1759>
ffffffff80005314:	48 81 7d f8 f6 00 00 	cmpq   $0xf6,-0x8(%rbp)
ffffffff8000531b:	00 
ffffffff8000531c:	0f 84 23 07 00 00    	je     ffffffff80005a45 <unicode_to_cp437+0x1361>
ffffffff80005322:	48 81 7d f8 f6 00 00 	cmpq   $0xf6,-0x8(%rbp)
ffffffff80005329:	00 
ffffffff8000532a:	0f 87 0d 0b 00 00    	ja     ffffffff80005e3d <unicode_to_cp437+0x1759>
ffffffff80005330:	48 81 7d f8 f4 00 00 	cmpq   $0xf4,-0x8(%rbp)
ffffffff80005337:	00 
ffffffff80005338:	0f 84 fd 06 00 00    	je     ffffffff80005a3b <unicode_to_cp437+0x1357>
ffffffff8000533e:	48 81 7d f8 f4 00 00 	cmpq   $0xf4,-0x8(%rbp)
ffffffff80005345:	00 
ffffffff80005346:	0f 87 f1 0a 00 00    	ja     ffffffff80005e3d <unicode_to_cp437+0x1759>
ffffffff8000534c:	48 81 7d f8 f3 00 00 	cmpq   $0xf3,-0x8(%rbp)
ffffffff80005353:	00 
ffffffff80005354:	0f 84 77 07 00 00    	je     ffffffff80005ad1 <unicode_to_cp437+0x13ed>
ffffffff8000535a:	48 81 7d f8 f3 00 00 	cmpq   $0xf3,-0x8(%rbp)
ffffffff80005361:	00 
ffffffff80005362:	0f 87 d5 0a 00 00    	ja     ffffffff80005e3d <unicode_to_cp437+0x1759>
ffffffff80005368:	48 81 7d f8 f2 00 00 	cmpq   $0xf2,-0x8(%rbp)
ffffffff8000536f:	00 
ffffffff80005370:	0f 84 d9 06 00 00    	je     ffffffff80005a4f <unicode_to_cp437+0x136b>
ffffffff80005376:	48 81 7d f8 f2 00 00 	cmpq   $0xf2,-0x8(%rbp)
ffffffff8000537d:	00 
ffffffff8000537e:	0f 87 b9 0a 00 00    	ja     ffffffff80005e3d <unicode_to_cp437+0x1759>
ffffffff80005384:	48 81 7d f8 f1 00 00 	cmpq   $0xf1,-0x8(%rbp)
ffffffff8000538b:	00 
ffffffff8000538c:	0f 84 53 07 00 00    	je     ffffffff80005ae5 <unicode_to_cp437+0x1401>
ffffffff80005392:	48 81 7d f8 f1 00 00 	cmpq   $0xf1,-0x8(%rbp)
ffffffff80005399:	00 
ffffffff8000539a:	0f 87 9d 0a 00 00    	ja     ffffffff80005e3d <unicode_to_cp437+0x1759>
ffffffff800053a0:	48 81 7d f8 ef 00 00 	cmpq   $0xef,-0x8(%rbp)
ffffffff800053a7:	00 
ffffffff800053a8:	0f 84 3d 06 00 00    	je     ffffffff800059eb <unicode_to_cp437+0x1307>
ffffffff800053ae:	48 81 7d f8 ef 00 00 	cmpq   $0xef,-0x8(%rbp)
ffffffff800053b5:	00 
ffffffff800053b6:	0f 87 81 0a 00 00    	ja     ffffffff80005e3d <unicode_to_cp437+0x1759>
ffffffff800053bc:	48 81 7d f8 ee 00 00 	cmpq   $0xee,-0x8(%rbp)
ffffffff800053c3:	00 
ffffffff800053c4:	0f 84 2b 06 00 00    	je     ffffffff800059f5 <unicode_to_cp437+0x1311>
ffffffff800053ca:	48 81 7d f8 ee 00 00 	cmpq   $0xee,-0x8(%rbp)
ffffffff800053d1:	00 
ffffffff800053d2:	0f 87 65 0a 00 00    	ja     ffffffff80005e3d <unicode_to_cp437+0x1759>
ffffffff800053d8:	48 81 7d f8 ed 00 00 	cmpq   $0xed,-0x8(%rbp)
ffffffff800053df:	00 
ffffffff800053e0:	0f 84 e1 06 00 00    	je     ffffffff80005ac7 <unicode_to_cp437+0x13e3>
ffffffff800053e6:	48 81 7d f8 ed 00 00 	cmpq   $0xed,-0x8(%rbp)
ffffffff800053ed:	00 
ffffffff800053ee:	0f 87 49 0a 00 00    	ja     ffffffff80005e3d <unicode_to_cp437+0x1759>
ffffffff800053f4:	48 81 7d f8 ec 00 00 	cmpq   $0xec,-0x8(%rbp)
ffffffff800053fb:	00 
ffffffff800053fc:	0f 84 fd 05 00 00    	je     ffffffff800059ff <unicode_to_cp437+0x131b>
ffffffff80005402:	48 81 7d f8 ec 00 00 	cmpq   $0xec,-0x8(%rbp)
ffffffff80005409:	00 
ffffffff8000540a:	0f 87 2d 0a 00 00    	ja     ffffffff80005e3d <unicode_to_cp437+0x1759>
ffffffff80005410:	48 81 7d f8 eb 00 00 	cmpq   $0xeb,-0x8(%rbp)
ffffffff80005417:	00 
ffffffff80005418:	0f 84 b9 05 00 00    	je     ffffffff800059d7 <unicode_to_cp437+0x12f3>
ffffffff8000541e:	48 81 7d f8 eb 00 00 	cmpq   $0xeb,-0x8(%rbp)
ffffffff80005425:	00 
ffffffff80005426:	0f 87 11 0a 00 00    	ja     ffffffff80005e3d <unicode_to_cp437+0x1759>
ffffffff8000542c:	48 81 7d f8 ea 00 00 	cmpq   $0xea,-0x8(%rbp)
ffffffff80005433:	00 
ffffffff80005434:	0f 84 93 05 00 00    	je     ffffffff800059cd <unicode_to_cp437+0x12e9>
ffffffff8000543a:	48 81 7d f8 ea 00 00 	cmpq   $0xea,-0x8(%rbp)
ffffffff80005441:	00 
ffffffff80005442:	0f 87 f5 09 00 00    	ja     ffffffff80005e3d <unicode_to_cp437+0x1759>
ffffffff80005448:	48 81 7d f8 e9 00 00 	cmpq   $0xe9,-0x8(%rbp)
ffffffff8000544f:	00 
ffffffff80005450:	0f 84 3b 05 00 00    	je     ffffffff80005991 <unicode_to_cp437+0x12ad>
ffffffff80005456:	48 81 7d f8 e9 00 00 	cmpq   $0xe9,-0x8(%rbp)
ffffffff8000545d:	00 
ffffffff8000545e:	0f 87 d9 09 00 00    	ja     ffffffff80005e3d <unicode_to_cp437+0x1759>
ffffffff80005464:	48 81 7d f8 e8 00 00 	cmpq   $0xe8,-0x8(%rbp)
ffffffff8000546b:	00 
ffffffff8000546c:	0f 84 6f 05 00 00    	je     ffffffff800059e1 <unicode_to_cp437+0x12fd>
ffffffff80005472:	48 81 7d f8 e8 00 00 	cmpq   $0xe8,-0x8(%rbp)
ffffffff80005479:	00 
ffffffff8000547a:	0f 87 bd 09 00 00    	ja     ffffffff80005e3d <unicode_to_cp437+0x1759>
ffffffff80005480:	48 81 7d f8 e7 00 00 	cmpq   $0xe7,-0x8(%rbp)
ffffffff80005487:	00 
ffffffff80005488:	0f 84 35 05 00 00    	je     ffffffff800059c3 <unicode_to_cp437+0x12df>
ffffffff8000548e:	48 81 7d f8 e7 00 00 	cmpq   $0xe7,-0x8(%rbp)
ffffffff80005495:	00 
ffffffff80005496:	0f 87 a1 09 00 00    	ja     ffffffff80005e3d <unicode_to_cp437+0x1759>
ffffffff8000549c:	48 81 7d f8 e6 00 00 	cmpq   $0xe6,-0x8(%rbp)
ffffffff800054a3:	00 
ffffffff800054a4:	0f 84 7d 05 00 00    	je     ffffffff80005a27 <unicode_to_cp437+0x1343>
ffffffff800054aa:	48 81 7d f8 e6 00 00 	cmpq   $0xe6,-0x8(%rbp)
ffffffff800054b1:	00 
ffffffff800054b2:	0f 87 85 09 00 00    	ja     ffffffff80005e3d <unicode_to_cp437+0x1759>
ffffffff800054b8:	48 81 7d f8 e5 00 00 	cmpq   $0xe5,-0x8(%rbp)
ffffffff800054bf:	00 
ffffffff800054c0:	0f 84 f3 04 00 00    	je     ffffffff800059b9 <unicode_to_cp437+0x12d5>
ffffffff800054c6:	48 81 7d f8 e5 00 00 	cmpq   $0xe5,-0x8(%rbp)
ffffffff800054cd:	00 
ffffffff800054ce:	0f 87 69 09 00 00    	ja     ffffffff80005e3d <unicode_to_cp437+0x1759>
ffffffff800054d4:	48 81 7d f8 e4 00 00 	cmpq   $0xe4,-0x8(%rbp)
ffffffff800054db:	00 
ffffffff800054dc:	0f 84 c3 04 00 00    	je     ffffffff800059a5 <unicode_to_cp437+0x12c1>
ffffffff800054e2:	48 81 7d f8 e4 00 00 	cmpq   $0xe4,-0x8(%rbp)
ffffffff800054e9:	00 
ffffffff800054ea:	0f 87 4d 09 00 00    	ja     ffffffff80005e3d <unicode_to_cp437+0x1759>
ffffffff800054f0:	48 81 7d f8 e2 00 00 	cmpq   $0xe2,-0x8(%rbp)
ffffffff800054f7:	00 
ffffffff800054f8:	0f 84 9d 04 00 00    	je     ffffffff8000599b <unicode_to_cp437+0x12b7>
ffffffff800054fe:	48 81 7d f8 e2 00 00 	cmpq   $0xe2,-0x8(%rbp)
ffffffff80005505:	00 
ffffffff80005506:	0f 87 31 09 00 00    	ja     ffffffff80005e3d <unicode_to_cp437+0x1759>
ffffffff8000550c:	48 81 7d f8 e1 00 00 	cmpq   $0xe1,-0x8(%rbp)
ffffffff80005513:	00 
ffffffff80005514:	0f 84 a3 05 00 00    	je     ffffffff80005abd <unicode_to_cp437+0x13d9>
ffffffff8000551a:	48 81 7d f8 e1 00 00 	cmpq   $0xe1,-0x8(%rbp)
ffffffff80005521:	00 
ffffffff80005522:	0f 87 15 09 00 00    	ja     ffffffff80005e3d <unicode_to_cp437+0x1759>
ffffffff80005528:	48 81 7d f8 e0 00 00 	cmpq   $0xe0,-0x8(%rbp)
ffffffff8000552f:	00 
ffffffff80005530:	0f 84 79 04 00 00    	je     ffffffff800059af <unicode_to_cp437+0x12cb>
ffffffff80005536:	48 81 7d f8 e0 00 00 	cmpq   $0xe0,-0x8(%rbp)
ffffffff8000553d:	00 
ffffffff8000553e:	0f 87 f9 08 00 00    	ja     ffffffff80005e3d <unicode_to_cp437+0x1759>
ffffffff80005544:	48 81 7d f8 df 00 00 	cmpq   $0xdf,-0x8(%rbp)
ffffffff8000554b:	00 
ffffffff8000554c:	0f 84 f5 07 00 00    	je     ffffffff80005d47 <unicode_to_cp437+0x1663>
ffffffff80005552:	48 81 7d f8 df 00 00 	cmpq   $0xdf,-0x8(%rbp)
ffffffff80005559:	00 
ffffffff8000555a:	0f 87 dd 08 00 00    	ja     ffffffff80005e3d <unicode_to_cp437+0x1759>
ffffffff80005560:	48 81 7d f8 dc 00 00 	cmpq   $0xdc,-0x8(%rbp)
ffffffff80005567:	00 
ffffffff80005568:	0f 84 13 05 00 00    	je     ffffffff80005a81 <unicode_to_cp437+0x139d>
ffffffff8000556e:	48 81 7d f8 dc 00 00 	cmpq   $0xdc,-0x8(%rbp)
ffffffff80005575:	00 
ffffffff80005576:	0f 87 c1 08 00 00    	ja     ffffffff80005e3d <unicode_to_cp437+0x1759>
ffffffff8000557c:	48 81 7d f8 d6 00 00 	cmpq   $0xd6,-0x8(%rbp)
ffffffff80005583:	00 
ffffffff80005584:	0f 84 ed 04 00 00    	je     ffffffff80005a77 <unicode_to_cp437+0x1393>
ffffffff8000558a:	48 81 7d f8 d6 00 00 	cmpq   $0xd6,-0x8(%rbp)
ffffffff80005591:	00 
ffffffff80005592:	0f 87 a5 08 00 00    	ja     ffffffff80005e3d <unicode_to_cp437+0x1759>
ffffffff80005598:	48 81 7d f8 d1 00 00 	cmpq   $0xd1,-0x8(%rbp)
ffffffff8000559f:	00 
ffffffff800055a0:	0f 84 49 05 00 00    	je     ffffffff80005aef <unicode_to_cp437+0x140b>
ffffffff800055a6:	48 81 7d f8 d1 00 00 	cmpq   $0xd1,-0x8(%rbp)
ffffffff800055ad:	00 
ffffffff800055ae:	0f 87 89 08 00 00    	ja     ffffffff80005e3d <unicode_to_cp437+0x1759>
ffffffff800055b4:	48 81 7d f8 c9 00 00 	cmpq   $0xc9,-0x8(%rbp)
ffffffff800055bb:	00 
ffffffff800055bc:	0f 84 5b 04 00 00    	je     ffffffff80005a1d <unicode_to_cp437+0x1339>
ffffffff800055c2:	48 81 7d f8 c9 00 00 	cmpq   $0xc9,-0x8(%rbp)
ffffffff800055c9:	00 
ffffffff800055ca:	0f 87 6d 08 00 00    	ja     ffffffff80005e3d <unicode_to_cp437+0x1759>
ffffffff800055d0:	48 81 7d f8 c7 00 00 	cmpq   $0xc7,-0x8(%rbp)
ffffffff800055d7:	00 
ffffffff800055d8:	0f 84 9f 03 00 00    	je     ffffffff8000597d <unicode_to_cp437+0x1299>
ffffffff800055de:	48 81 7d f8 c7 00 00 	cmpq   $0xc7,-0x8(%rbp)
ffffffff800055e5:	00 
ffffffff800055e6:	0f 87 51 08 00 00    	ja     ffffffff80005e3d <unicode_to_cp437+0x1759>
ffffffff800055ec:	48 81 7d f8 c6 00 00 	cmpq   $0xc6,-0x8(%rbp)
ffffffff800055f3:	00 
ffffffff800055f4:	0f 84 37 04 00 00    	je     ffffffff80005a31 <unicode_to_cp437+0x134d>
ffffffff800055fa:	48 81 7d f8 c6 00 00 	cmpq   $0xc6,-0x8(%rbp)
ffffffff80005601:	00 
ffffffff80005602:	0f 87 35 08 00 00    	ja     ffffffff80005e3d <unicode_to_cp437+0x1759>
ffffffff80005608:	48 81 7d f8 c5 00 00 	cmpq   $0xc5,-0x8(%rbp)
ffffffff8000560f:	00 
ffffffff80005610:	0f 84 fd 03 00 00    	je     ffffffff80005a13 <unicode_to_cp437+0x132f>
ffffffff80005616:	48 81 7d f8 c5 00 00 	cmpq   $0xc5,-0x8(%rbp)
ffffffff8000561d:	00 
ffffffff8000561e:	0f 87 19 08 00 00    	ja     ffffffff80005e3d <unicode_to_cp437+0x1759>
ffffffff80005624:	48 81 7d f8 c4 00 00 	cmpq   $0xc4,-0x8(%rbp)
ffffffff8000562b:	00 
ffffffff8000562c:	0f 84 d7 03 00 00    	je     ffffffff80005a09 <unicode_to_cp437+0x1325>
ffffffff80005632:	48 81 7d f8 c4 00 00 	cmpq   $0xc4,-0x8(%rbp)
ffffffff80005639:	00 
ffffffff8000563a:	0f 87 fd 07 00 00    	ja     ffffffff80005e3d <unicode_to_cp437+0x1759>
ffffffff80005640:	48 81 7d f8 bf 00 00 	cmpq   $0xbf,-0x8(%rbp)
ffffffff80005647:	00 
ffffffff80005648:	0f 84 bf 04 00 00    	je     ffffffff80005b0d <unicode_to_cp437+0x1429>
ffffffff8000564e:	48 81 7d f8 bf 00 00 	cmpq   $0xbf,-0x8(%rbp)
ffffffff80005655:	00 
ffffffff80005656:	0f 87 e1 07 00 00    	ja     ffffffff80005e3d <unicode_to_cp437+0x1759>
ffffffff8000565c:	48 81 7d f8 bd 00 00 	cmpq   $0xbd,-0x8(%rbp)
ffffffff80005663:	00 
ffffffff80005664:	0f 84 c1 04 00 00    	je     ffffffff80005b2b <unicode_to_cp437+0x1447>
ffffffff8000566a:	48 81 7d f8 bd 00 00 	cmpq   $0xbd,-0x8(%rbp)
ffffffff80005671:	00 
ffffffff80005672:	0f 87 c5 07 00 00    	ja     ffffffff80005e3d <unicode_to_cp437+0x1759>
ffffffff80005678:	48 81 7d f8 bc 00 00 	cmpq   $0xbc,-0x8(%rbp)
ffffffff8000567f:	00 
ffffffff80005680:	0f 84 af 04 00 00    	je     ffffffff80005b35 <unicode_to_cp437+0x1451>
ffffffff80005686:	48 81 7d f8 bc 00 00 	cmpq   $0xbc,-0x8(%rbp)
ffffffff8000568d:	00 
ffffffff8000568e:	0f 87 a9 07 00 00    	ja     ffffffff80005e3d <unicode_to_cp437+0x1759>
ffffffff80005694:	48 81 7d f8 bb 00 00 	cmpq   $0xbb,-0x8(%rbp)
ffffffff8000569b:	00 
ffffffff8000569c:	0f 84 b1 04 00 00    	je     ffffffff80005b53 <unicode_to_cp437+0x146f>
ffffffff800056a2:	48 81 7d f8 bb 00 00 	cmpq   $0xbb,-0x8(%rbp)
ffffffff800056a9:	00 
ffffffff800056aa:	0f 87 8d 07 00 00    	ja     ffffffff80005e3d <unicode_to_cp437+0x1759>
ffffffff800056b0:	48 81 7d f8 ba 00 00 	cmpq   $0xba,-0x8(%rbp)
ffffffff800056b7:	00 
ffffffff800056b8:	0f 84 45 04 00 00    	je     ffffffff80005b03 <unicode_to_cp437+0x141f>
ffffffff800056be:	48 81 7d f8 ba 00 00 	cmpq   $0xba,-0x8(%rbp)
ffffffff800056c5:	00 
ffffffff800056c6:	0f 87 71 07 00 00    	ja     ffffffff80005e3d <unicode_to_cp437+0x1759>
ffffffff800056cc:	48 81 7d f8 b7 00 00 	cmpq   $0xb7,-0x8(%rbp)
ffffffff800056d3:	00 
ffffffff800056d4:	0f 84 40 07 00 00    	je     ffffffff80005e1a <unicode_to_cp437+0x1736>
ffffffff800056da:	48 81 7d f8 b7 00 00 	cmpq   $0xb7,-0x8(%rbp)
ffffffff800056e1:	00 
ffffffff800056e2:	0f 87 55 07 00 00    	ja     ffffffff80005e3d <unicode_to_cp437+0x1759>
ffffffff800056e8:	48 81 7d f8 b6 00 00 	cmpq   $0xb6,-0x8(%rbp)
ffffffff800056ef:	00 
ffffffff800056f0:	0f 84 05 02 00 00    	je     ffffffff800058fb <unicode_to_cp437+0x1217>
ffffffff800056f6:	48 81 7d f8 b6 00 00 	cmpq   $0xb6,-0x8(%rbp)
ffffffff800056fd:	00 
ffffffff800056fe:	0f 87 39 07 00 00    	ja     ffffffff80005e3d <unicode_to_cp437+0x1759>
ffffffff80005704:	48 81 7d f8 b5 00 00 	cmpq   $0xb5,-0x8(%rbp)
ffffffff8000570b:	00 
ffffffff8000570c:	0f 84 67 06 00 00    	je     ffffffff80005d79 <unicode_to_cp437+0x1695>
ffffffff80005712:	48 81 7d f8 b5 00 00 	cmpq   $0xb5,-0x8(%rbp)
ffffffff80005719:	00 
ffffffff8000571a:	0f 87 1d 07 00 00    	ja     ffffffff80005e3d <unicode_to_cp437+0x1759>
ffffffff80005720:	48 81 7d f8 b2 00 00 	cmpq   $0xb2,-0x8(%rbp)
ffffffff80005727:	00 
ffffffff80005728:	0f 84 01 07 00 00    	je     ffffffff80005e2f <unicode_to_cp437+0x174b>
ffffffff8000572e:	48 81 7d f8 b2 00 00 	cmpq   $0xb2,-0x8(%rbp)
ffffffff80005735:	00 
ffffffff80005736:	0f 87 01 07 00 00    	ja     ffffffff80005e3d <unicode_to_cp437+0x1759>
ffffffff8000573c:	48 81 7d f8 b1 00 00 	cmpq   $0xb1,-0x8(%rbp)
ffffffff80005743:	00 
ffffffff80005744:	0f 84 91 06 00 00    	je     ffffffff80005ddb <unicode_to_cp437+0x16f7>
ffffffff8000574a:	48 81 7d f8 b1 00 00 	cmpq   $0xb1,-0x8(%rbp)
ffffffff80005751:	00 
ffffffff80005752:	0f 87 e5 06 00 00    	ja     ffffffff80005e3d <unicode_to_cp437+0x1759>
ffffffff80005758:	48 81 7d f8 b0 00 00 	cmpq   $0xb0,-0x8(%rbp)
ffffffff8000575f:	00 
ffffffff80005760:	0f 84 a6 06 00 00    	je     ffffffff80005e0c <unicode_to_cp437+0x1728>
ffffffff80005766:	48 81 7d f8 b0 00 00 	cmpq   $0xb0,-0x8(%rbp)
ffffffff8000576d:	00 
ffffffff8000576e:	0f 87 c9 06 00 00    	ja     ffffffff80005e3d <unicode_to_cp437+0x1759>
ffffffff80005774:	48 81 7d f8 ac 00 00 	cmpq   $0xac,-0x8(%rbp)
ffffffff8000577b:	00 
ffffffff8000577c:	0f 84 9f 03 00 00    	je     ffffffff80005b21 <unicode_to_cp437+0x143d>
ffffffff80005782:	48 81 7d f8 ac 00 00 	cmpq   $0xac,-0x8(%rbp)
ffffffff80005789:	00 
ffffffff8000578a:	0f 87 ad 06 00 00    	ja     ffffffff80005e3d <unicode_to_cp437+0x1759>
ffffffff80005790:	48 81 7d f8 ab 00 00 	cmpq   $0xab,-0x8(%rbp)
ffffffff80005797:	00 
ffffffff80005798:	0f 84 ab 03 00 00    	je     ffffffff80005b49 <unicode_to_cp437+0x1465>
ffffffff8000579e:	48 81 7d f8 ab 00 00 	cmpq   $0xab,-0x8(%rbp)
ffffffff800057a5:	00 
ffffffff800057a6:	0f 87 91 06 00 00    	ja     ffffffff80005e3d <unicode_to_cp437+0x1759>
ffffffff800057ac:	48 81 7d f8 aa 00 00 	cmpq   $0xaa,-0x8(%rbp)
ffffffff800057b3:	00 
ffffffff800057b4:	0f 84 3f 03 00 00    	je     ffffffff80005af9 <unicode_to_cp437+0x1415>
ffffffff800057ba:	48 81 7d f8 aa 00 00 	cmpq   $0xaa,-0x8(%rbp)
ffffffff800057c1:	00 
ffffffff800057c2:	0f 87 75 06 00 00    	ja     ffffffff80005e3d <unicode_to_cp437+0x1759>
ffffffff800057c8:	48 81 7d f8 a7 00 00 	cmpq   $0xa7,-0x8(%rbp)
ffffffff800057cf:	00 
ffffffff800057d0:	0f 84 2f 01 00 00    	je     ffffffff80005905 <unicode_to_cp437+0x1221>
ffffffff800057d6:	48 81 7d f8 a7 00 00 	cmpq   $0xa7,-0x8(%rbp)
ffffffff800057dd:	00 
ffffffff800057de:	0f 87 59 06 00 00    	ja     ffffffff80005e3d <unicode_to_cp437+0x1759>
ffffffff800057e4:	48 81 7d f8 a5 00 00 	cmpq   $0xa5,-0x8(%rbp)
ffffffff800057eb:	00 
ffffffff800057ec:	0f 84 ad 02 00 00    	je     ffffffff80005a9f <unicode_to_cp437+0x13bb>
ffffffff800057f2:	48 81 7d f8 a5 00 00 	cmpq   $0xa5,-0x8(%rbp)
ffffffff800057f9:	00 
ffffffff800057fa:	0f 87 3d 06 00 00    	ja     ffffffff80005e3d <unicode_to_cp437+0x1759>
ffffffff80005800:	48 81 7d f8 a3 00 00 	cmpq   $0xa3,-0x8(%rbp)
ffffffff80005807:	00 
ffffffff80005808:	0f 84 87 02 00 00    	je     ffffffff80005a95 <unicode_to_cp437+0x13b1>
ffffffff8000580e:	48 81 7d f8 a3 00 00 	cmpq   $0xa3,-0x8(%rbp)
ffffffff80005815:	00 
ffffffff80005816:	0f 87 21 06 00 00    	ja     ffffffff80005e3d <unicode_to_cp437+0x1759>
ffffffff8000581c:	48 81 7d f8 a1 00 00 	cmpq   $0xa1,-0x8(%rbp)
ffffffff80005823:	00 
ffffffff80005824:	0f 84 15 03 00 00    	je     ffffffff80005b3f <unicode_to_cp437+0x145b>
ffffffff8000582a:	48 81 7d f8 a2 00 00 	cmpq   $0xa2,-0x8(%rbp)
ffffffff80005831:	00 
ffffffff80005832:	0f 84 53 02 00 00    	je     ffffffff80005a8b <unicode_to_cp437+0x13a7>
ffffffff80005838:	e9 00 06 00 00       	jmp    ffffffff80005e3d <unicode_to_cp437+0x1759>
ffffffff8000583d:	b8 01 00 00 00       	mov    $0x1,%eax
ffffffff80005842:	e9 fb 05 00 00       	jmp    ffffffff80005e42 <unicode_to_cp437+0x175e>
ffffffff80005847:	b8 02 00 00 00       	mov    $0x2,%eax
ffffffff8000584c:	e9 f1 05 00 00       	jmp    ffffffff80005e42 <unicode_to_cp437+0x175e>
ffffffff80005851:	b8 03 00 00 00       	mov    $0x3,%eax
ffffffff80005856:	e9 e7 05 00 00       	jmp    ffffffff80005e42 <unicode_to_cp437+0x175e>
ffffffff8000585b:	b8 04 00 00 00       	mov    $0x4,%eax
ffffffff80005860:	e9 dd 05 00 00       	jmp    ffffffff80005e42 <unicode_to_cp437+0x175e>
ffffffff80005865:	b8 05 00 00 00       	mov    $0x5,%eax
ffffffff8000586a:	e9 d3 05 00 00       	jmp    ffffffff80005e42 <unicode_to_cp437+0x175e>
ffffffff8000586f:	b8 06 00 00 00       	mov    $0x6,%eax
ffffffff80005874:	e9 c9 05 00 00       	jmp    ffffffff80005e42 <unicode_to_cp437+0x175e>
ffffffff80005879:	b8 07 00 00 00       	mov    $0x7,%eax
ffffffff8000587e:	e9 bf 05 00 00       	jmp    ffffffff80005e42 <unicode_to_cp437+0x175e>
ffffffff80005883:	b8 08 00 00 00       	mov    $0x8,%eax
ffffffff80005888:	e9 b5 05 00 00       	jmp    ffffffff80005e42 <unicode_to_cp437+0x175e>
ffffffff8000588d:	b8 09 00 00 00       	mov    $0x9,%eax
ffffffff80005892:	e9 ab 05 00 00       	jmp    ffffffff80005e42 <unicode_to_cp437+0x175e>
ffffffff80005897:	b8 0a 00 00 00       	mov    $0xa,%eax
ffffffff8000589c:	e9 a1 05 00 00       	jmp    ffffffff80005e42 <unicode_to_cp437+0x175e>
ffffffff800058a1:	b8 0b 00 00 00       	mov    $0xb,%eax
ffffffff800058a6:	e9 97 05 00 00       	jmp    ffffffff80005e42 <unicode_to_cp437+0x175e>
ffffffff800058ab:	b8 0c 00 00 00       	mov    $0xc,%eax
ffffffff800058b0:	e9 8d 05 00 00       	jmp    ffffffff80005e42 <unicode_to_cp437+0x175e>
ffffffff800058b5:	b8 0d 00 00 00       	mov    $0xd,%eax
ffffffff800058ba:	e9 83 05 00 00       	jmp    ffffffff80005e42 <unicode_to_cp437+0x175e>
ffffffff800058bf:	b8 0e 00 00 00       	mov    $0xe,%eax
ffffffff800058c4:	e9 79 05 00 00       	jmp    ffffffff80005e42 <unicode_to_cp437+0x175e>
ffffffff800058c9:	b8 0f 00 00 00       	mov    $0xf,%eax
ffffffff800058ce:	e9 6f 05 00 00       	jmp    ffffffff80005e42 <unicode_to_cp437+0x175e>
ffffffff800058d3:	b8 10 00 00 00       	mov    $0x10,%eax
ffffffff800058d8:	e9 65 05 00 00       	jmp    ffffffff80005e42 <unicode_to_cp437+0x175e>
ffffffff800058dd:	b8 11 00 00 00       	mov    $0x11,%eax
ffffffff800058e2:	e9 5b 05 00 00       	jmp    ffffffff80005e42 <unicode_to_cp437+0x175e>
ffffffff800058e7:	b8 12 00 00 00       	mov    $0x12,%eax
ffffffff800058ec:	e9 51 05 00 00       	jmp    ffffffff80005e42 <unicode_to_cp437+0x175e>
ffffffff800058f1:	b8 13 00 00 00       	mov    $0x13,%eax
ffffffff800058f6:	e9 47 05 00 00       	jmp    ffffffff80005e42 <unicode_to_cp437+0x175e>
ffffffff800058fb:	b8 14 00 00 00       	mov    $0x14,%eax
ffffffff80005900:	e9 3d 05 00 00       	jmp    ffffffff80005e42 <unicode_to_cp437+0x175e>
ffffffff80005905:	b8 15 00 00 00       	mov    $0x15,%eax
ffffffff8000590a:	e9 33 05 00 00       	jmp    ffffffff80005e42 <unicode_to_cp437+0x175e>
ffffffff8000590f:	b8 16 00 00 00       	mov    $0x16,%eax
ffffffff80005914:	e9 29 05 00 00       	jmp    ffffffff80005e42 <unicode_to_cp437+0x175e>
ffffffff80005919:	b8 17 00 00 00       	mov    $0x17,%eax
ffffffff8000591e:	e9 1f 05 00 00       	jmp    ffffffff80005e42 <unicode_to_cp437+0x175e>
ffffffff80005923:	b8 18 00 00 00       	mov    $0x18,%eax
ffffffff80005928:	e9 15 05 00 00       	jmp    ffffffff80005e42 <unicode_to_cp437+0x175e>
ffffffff8000592d:	b8 19 00 00 00       	mov    $0x19,%eax
ffffffff80005932:	e9 0b 05 00 00       	jmp    ffffffff80005e42 <unicode_to_cp437+0x175e>
ffffffff80005937:	b8 1a 00 00 00       	mov    $0x1a,%eax
ffffffff8000593c:	e9 01 05 00 00       	jmp    ffffffff80005e42 <unicode_to_cp437+0x175e>
ffffffff80005941:	b8 1b 00 00 00       	mov    $0x1b,%eax
ffffffff80005946:	e9 f7 04 00 00       	jmp    ffffffff80005e42 <unicode_to_cp437+0x175e>
ffffffff8000594b:	b8 1c 00 00 00       	mov    $0x1c,%eax
ffffffff80005950:	e9 ed 04 00 00       	jmp    ffffffff80005e42 <unicode_to_cp437+0x175e>
ffffffff80005955:	b8 1d 00 00 00       	mov    $0x1d,%eax
ffffffff8000595a:	e9 e3 04 00 00       	jmp    ffffffff80005e42 <unicode_to_cp437+0x175e>
ffffffff8000595f:	b8 1e 00 00 00       	mov    $0x1e,%eax
ffffffff80005964:	e9 d9 04 00 00       	jmp    ffffffff80005e42 <unicode_to_cp437+0x175e>
ffffffff80005969:	b8 1f 00 00 00       	mov    $0x1f,%eax
ffffffff8000596e:	e9 cf 04 00 00       	jmp    ffffffff80005e42 <unicode_to_cp437+0x175e>
ffffffff80005973:	b8 7f 00 00 00       	mov    $0x7f,%eax
ffffffff80005978:	e9 c5 04 00 00       	jmp    ffffffff80005e42 <unicode_to_cp437+0x175e>
ffffffff8000597d:	b8 80 00 00 00       	mov    $0x80,%eax
ffffffff80005982:	e9 bb 04 00 00       	jmp    ffffffff80005e42 <unicode_to_cp437+0x175e>
ffffffff80005987:	b8 81 00 00 00       	mov    $0x81,%eax
ffffffff8000598c:	e9 b1 04 00 00       	jmp    ffffffff80005e42 <unicode_to_cp437+0x175e>
ffffffff80005991:	b8 82 00 00 00       	mov    $0x82,%eax
ffffffff80005996:	e9 a7 04 00 00       	jmp    ffffffff80005e42 <unicode_to_cp437+0x175e>
ffffffff8000599b:	b8 83 00 00 00       	mov    $0x83,%eax
ffffffff800059a0:	e9 9d 04 00 00       	jmp    ffffffff80005e42 <unicode_to_cp437+0x175e>
ffffffff800059a5:	b8 84 00 00 00       	mov    $0x84,%eax
ffffffff800059aa:	e9 93 04 00 00       	jmp    ffffffff80005e42 <unicode_to_cp437+0x175e>
ffffffff800059af:	b8 85 00 00 00       	mov    $0x85,%eax
ffffffff800059b4:	e9 89 04 00 00       	jmp    ffffffff80005e42 <unicode_to_cp437+0x175e>
ffffffff800059b9:	b8 86 00 00 00       	mov    $0x86,%eax
ffffffff800059be:	e9 7f 04 00 00       	jmp    ffffffff80005e42 <unicode_to_cp437+0x175e>
ffffffff800059c3:	b8 87 00 00 00       	mov    $0x87,%eax
ffffffff800059c8:	e9 75 04 00 00       	jmp    ffffffff80005e42 <unicode_to_cp437+0x175e>
ffffffff800059cd:	b8 88 00 00 00       	mov    $0x88,%eax
ffffffff800059d2:	e9 6b 04 00 00       	jmp    ffffffff80005e42 <unicode_to_cp437+0x175e>
ffffffff800059d7:	b8 89 00 00 00       	mov    $0x89,%eax
ffffffff800059dc:	e9 61 04 00 00       	jmp    ffffffff80005e42 <unicode_to_cp437+0x175e>
ffffffff800059e1:	b8 8a 00 00 00       	mov    $0x8a,%eax
ffffffff800059e6:	e9 57 04 00 00       	jmp    ffffffff80005e42 <unicode_to_cp437+0x175e>
ffffffff800059eb:	b8 8b 00 00 00       	mov    $0x8b,%eax
ffffffff800059f0:	e9 4d 04 00 00       	jmp    ffffffff80005e42 <unicode_to_cp437+0x175e>
ffffffff800059f5:	b8 8c 00 00 00       	mov    $0x8c,%eax
ffffffff800059fa:	e9 43 04 00 00       	jmp    ffffffff80005e42 <unicode_to_cp437+0x175e>
ffffffff800059ff:	b8 8d 00 00 00       	mov    $0x8d,%eax
ffffffff80005a04:	e9 39 04 00 00       	jmp    ffffffff80005e42 <unicode_to_cp437+0x175e>
ffffffff80005a09:	b8 8e 00 00 00       	mov    $0x8e,%eax
ffffffff80005a0e:	e9 2f 04 00 00       	jmp    ffffffff80005e42 <unicode_to_cp437+0x175e>
ffffffff80005a13:	b8 8f 00 00 00       	mov    $0x8f,%eax
ffffffff80005a18:	e9 25 04 00 00       	jmp    ffffffff80005e42 <unicode_to_cp437+0x175e>
ffffffff80005a1d:	b8 90 00 00 00       	mov    $0x90,%eax
ffffffff80005a22:	e9 1b 04 00 00       	jmp    ffffffff80005e42 <unicode_to_cp437+0x175e>
ffffffff80005a27:	b8 91 00 00 00       	mov    $0x91,%eax
ffffffff80005a2c:	e9 11 04 00 00       	jmp    ffffffff80005e42 <unicode_to_cp437+0x175e>
ffffffff80005a31:	b8 92 00 00 00       	mov    $0x92,%eax
ffffffff80005a36:	e9 07 04 00 00       	jmp    ffffffff80005e42 <unicode_to_cp437+0x175e>
ffffffff80005a3b:	b8 93 00 00 00       	mov    $0x93,%eax
ffffffff80005a40:	e9 fd 03 00 00       	jmp    ffffffff80005e42 <unicode_to_cp437+0x175e>
ffffffff80005a45:	b8 94 00 00 00       	mov    $0x94,%eax
ffffffff80005a4a:	e9 f3 03 00 00       	jmp    ffffffff80005e42 <unicode_to_cp437+0x175e>
ffffffff80005a4f:	b8 95 00 00 00       	mov    $0x95,%eax
ffffffff80005a54:	e9 e9 03 00 00       	jmp    ffffffff80005e42 <unicode_to_cp437+0x175e>
ffffffff80005a59:	b8 96 00 00 00       	mov    $0x96,%eax
ffffffff80005a5e:	e9 df 03 00 00       	jmp    ffffffff80005e42 <unicode_to_cp437+0x175e>
ffffffff80005a63:	b8 97 00 00 00       	mov    $0x97,%eax
ffffffff80005a68:	e9 d5 03 00 00       	jmp    ffffffff80005e42 <unicode_to_cp437+0x175e>
ffffffff80005a6d:	b8 98 00 00 00       	mov    $0x98,%eax
ffffffff80005a72:	e9 cb 03 00 00       	jmp    ffffffff80005e42 <unicode_to_cp437+0x175e>
ffffffff80005a77:	b8 99 00 00 00       	mov    $0x99,%eax
ffffffff80005a7c:	e9 c1 03 00 00       	jmp    ffffffff80005e42 <unicode_to_cp437+0x175e>
ffffffff80005a81:	b8 9a 00 00 00       	mov    $0x9a,%eax
ffffffff80005a86:	e9 b7 03 00 00       	jmp    ffffffff80005e42 <unicode_to_cp437+0x175e>
ffffffff80005a8b:	b8 9b 00 00 00       	mov    $0x9b,%eax
ffffffff80005a90:	e9 ad 03 00 00       	jmp    ffffffff80005e42 <unicode_to_cp437+0x175e>
ffffffff80005a95:	b8 9c 00 00 00       	mov    $0x9c,%eax
ffffffff80005a9a:	e9 a3 03 00 00       	jmp    ffffffff80005e42 <unicode_to_cp437+0x175e>
ffffffff80005a9f:	b8 9d 00 00 00       	mov    $0x9d,%eax
ffffffff80005aa4:	e9 99 03 00 00       	jmp    ffffffff80005e42 <unicode_to_cp437+0x175e>
ffffffff80005aa9:	b8 9e 00 00 00       	mov    $0x9e,%eax
ffffffff80005aae:	e9 8f 03 00 00       	jmp    ffffffff80005e42 <unicode_to_cp437+0x175e>
ffffffff80005ab3:	b8 9f 00 00 00       	mov    $0x9f,%eax
ffffffff80005ab8:	e9 85 03 00 00       	jmp    ffffffff80005e42 <unicode_to_cp437+0x175e>
ffffffff80005abd:	b8 a0 00 00 00       	mov    $0xa0,%eax
ffffffff80005ac2:	e9 7b 03 00 00       	jmp    ffffffff80005e42 <unicode_to_cp437+0x175e>
ffffffff80005ac7:	b8 a1 00 00 00       	mov    $0xa1,%eax
ffffffff80005acc:	e9 71 03 00 00       	jmp    ffffffff80005e42 <unicode_to_cp437+0x175e>
ffffffff80005ad1:	b8 a2 00 00 00       	mov    $0xa2,%eax
ffffffff80005ad6:	e9 67 03 00 00       	jmp    ffffffff80005e42 <unicode_to_cp437+0x175e>
ffffffff80005adb:	b8 a3 00 00 00       	mov    $0xa3,%eax
ffffffff80005ae0:	e9 5d 03 00 00       	jmp    ffffffff80005e42 <unicode_to_cp437+0x175e>
ffffffff80005ae5:	b8 a4 00 00 00       	mov    $0xa4,%eax
ffffffff80005aea:	e9 53 03 00 00       	jmp    ffffffff80005e42 <unicode_to_cp437+0x175e>
ffffffff80005aef:	b8 a5 00 00 00       	mov    $0xa5,%eax
ffffffff80005af4:	e9 49 03 00 00       	jmp    ffffffff80005e42 <unicode_to_cp437+0x175e>
ffffffff80005af9:	b8 a6 00 00 00       	mov    $0xa6,%eax
ffffffff80005afe:	e9 3f 03 00 00       	jmp    ffffffff80005e42 <unicode_to_cp437+0x175e>
ffffffff80005b03:	b8 a7 00 00 00       	mov    $0xa7,%eax
ffffffff80005b08:	e9 35 03 00 00       	jmp    ffffffff80005e42 <unicode_to_cp437+0x175e>
ffffffff80005b0d:	b8 a8 00 00 00       	mov    $0xa8,%eax
ffffffff80005b12:	e9 2b 03 00 00       	jmp    ffffffff80005e42 <unicode_to_cp437+0x175e>
ffffffff80005b17:	b8 a9 00 00 00       	mov    $0xa9,%eax
ffffffff80005b1c:	e9 21 03 00 00       	jmp    ffffffff80005e42 <unicode_to_cp437+0x175e>
ffffffff80005b21:	b8 aa 00 00 00       	mov    $0xaa,%eax
ffffffff80005b26:	e9 17 03 00 00       	jmp    ffffffff80005e42 <unicode_to_cp437+0x175e>
ffffffff80005b2b:	b8 ab 00 00 00       	mov    $0xab,%eax
ffffffff80005b30:	e9 0d 03 00 00       	jmp    ffffffff80005e42 <unicode_to_cp437+0x175e>
ffffffff80005b35:	b8 ac 00 00 00       	mov    $0xac,%eax
ffffffff80005b3a:	e9 03 03 00 00       	jmp    ffffffff80005e42 <unicode_to_cp437+0x175e>
ffffffff80005b3f:	b8 ad 00 00 00       	mov    $0xad,%eax
ffffffff80005b44:	e9 f9 02 00 00       	jmp    ffffffff80005e42 <unicode_to_cp437+0x175e>
ffffffff80005b49:	b8 ae 00 00 00       	mov    $0xae,%eax
ffffffff80005b4e:	e9 ef 02 00 00       	jmp    ffffffff80005e42 <unicode_to_cp437+0x175e>
ffffffff80005b53:	b8 af 00 00 00       	mov    $0xaf,%eax
ffffffff80005b58:	e9 e5 02 00 00       	jmp    ffffffff80005e42 <unicode_to_cp437+0x175e>
ffffffff80005b5d:	b8 b0 00 00 00       	mov    $0xb0,%eax
ffffffff80005b62:	e9 db 02 00 00       	jmp    ffffffff80005e42 <unicode_to_cp437+0x175e>
ffffffff80005b67:	b8 b1 00 00 00       	mov    $0xb1,%eax
ffffffff80005b6c:	e9 d1 02 00 00       	jmp    ffffffff80005e42 <unicode_to_cp437+0x175e>
ffffffff80005b71:	b8 b2 00 00 00       	mov    $0xb2,%eax
ffffffff80005b76:	e9 c7 02 00 00       	jmp    ffffffff80005e42 <unicode_to_cp437+0x175e>
ffffffff80005b7b:	b8 b3 00 00 00       	mov    $0xb3,%eax
ffffffff80005b80:	e9 bd 02 00 00       	jmp    ffffffff80005e42 <unicode_to_cp437+0x175e>
ffffffff80005b85:	b8 b4 00 00 00       	mov    $0xb4,%eax
ffffffff80005b8a:	e9 b3 02 00 00       	jmp    ffffffff80005e42 <unicode_to_cp437+0x175e>
ffffffff80005b8f:	b8 b5 00 00 00       	mov    $0xb5,%eax
ffffffff80005b94:	e9 a9 02 00 00       	jmp    ffffffff80005e42 <unicode_to_cp437+0x175e>
ffffffff80005b99:	b8 b6 00 00 00       	mov    $0xb6,%eax
ffffffff80005b9e:	e9 9f 02 00 00       	jmp    ffffffff80005e42 <unicode_to_cp437+0x175e>
ffffffff80005ba3:	b8 b7 00 00 00       	mov    $0xb7,%eax
ffffffff80005ba8:	e9 95 02 00 00       	jmp    ffffffff80005e42 <unicode_to_cp437+0x175e>
ffffffff80005bad:	b8 b8 00 00 00       	mov    $0xb8,%eax
ffffffff80005bb2:	e9 8b 02 00 00       	jmp    ffffffff80005e42 <unicode_to_cp437+0x175e>
ffffffff80005bb7:	b8 b9 00 00 00       	mov    $0xb9,%eax
ffffffff80005bbc:	e9 81 02 00 00       	jmp    ffffffff80005e42 <unicode_to_cp437+0x175e>
ffffffff80005bc1:	b8 ba 00 00 00       	mov    $0xba,%eax
ffffffff80005bc6:	e9 77 02 00 00       	jmp    ffffffff80005e42 <unicode_to_cp437+0x175e>
ffffffff80005bcb:	b8 bb 00 00 00       	mov    $0xbb,%eax
ffffffff80005bd0:	e9 6d 02 00 00       	jmp    ffffffff80005e42 <unicode_to_cp437+0x175e>
ffffffff80005bd5:	b8 bc 00 00 00       	mov    $0xbc,%eax
ffffffff80005bda:	e9 63 02 00 00       	jmp    ffffffff80005e42 <unicode_to_cp437+0x175e>
ffffffff80005bdf:	b8 bd 00 00 00       	mov    $0xbd,%eax
ffffffff80005be4:	e9 59 02 00 00       	jmp    ffffffff80005e42 <unicode_to_cp437+0x175e>
ffffffff80005be9:	b8 be 00 00 00       	mov    $0xbe,%eax
ffffffff80005bee:	e9 4f 02 00 00       	jmp    ffffffff80005e42 <unicode_to_cp437+0x175e>
ffffffff80005bf3:	b8 bf 00 00 00       	mov    $0xbf,%eax
ffffffff80005bf8:	e9 45 02 00 00       	jmp    ffffffff80005e42 <unicode_to_cp437+0x175e>
ffffffff80005bfd:	b8 c0 00 00 00       	mov    $0xc0,%eax
ffffffff80005c02:	e9 3b 02 00 00       	jmp    ffffffff80005e42 <unicode_to_cp437+0x175e>
ffffffff80005c07:	b8 c1 00 00 00       	mov    $0xc1,%eax
ffffffff80005c0c:	e9 31 02 00 00       	jmp    ffffffff80005e42 <unicode_to_cp437+0x175e>
ffffffff80005c11:	b8 c2 00 00 00       	mov    $0xc2,%eax
ffffffff80005c16:	e9 27 02 00 00       	jmp    ffffffff80005e42 <unicode_to_cp437+0x175e>
ffffffff80005c1b:	b8 c3 00 00 00       	mov    $0xc3,%eax
ffffffff80005c20:	e9 1d 02 00 00       	jmp    ffffffff80005e42 <unicode_to_cp437+0x175e>
ffffffff80005c25:	b8 c4 00 00 00       	mov    $0xc4,%eax
ffffffff80005c2a:	e9 13 02 00 00       	jmp    ffffffff80005e42 <unicode_to_cp437+0x175e>
ffffffff80005c2f:	b8 c5 00 00 00       	mov    $0xc5,%eax
ffffffff80005c34:	e9 09 02 00 00       	jmp    ffffffff80005e42 <unicode_to_cp437+0x175e>
ffffffff80005c39:	b8 c6 00 00 00       	mov    $0xc6,%eax
ffffffff80005c3e:	e9 ff 01 00 00       	jmp    ffffffff80005e42 <unicode_to_cp437+0x175e>
ffffffff80005c43:	b8 c7 00 00 00       	mov    $0xc7,%eax
ffffffff80005c48:	e9 f5 01 00 00       	jmp    ffffffff80005e42 <unicode_to_cp437+0x175e>
ffffffff80005c4d:	b8 c8 00 00 00       	mov    $0xc8,%eax
ffffffff80005c52:	e9 eb 01 00 00       	jmp    ffffffff80005e42 <unicode_to_cp437+0x175e>
ffffffff80005c57:	b8 c9 00 00 00       	mov    $0xc9,%eax
ffffffff80005c5c:	e9 e1 01 00 00       	jmp    ffffffff80005e42 <unicode_to_cp437+0x175e>
ffffffff80005c61:	b8 ca 00 00 00       	mov    $0xca,%eax
ffffffff80005c66:	e9 d7 01 00 00       	jmp    ffffffff80005e42 <unicode_to_cp437+0x175e>
ffffffff80005c6b:	b8 cb 00 00 00       	mov    $0xcb,%eax
ffffffff80005c70:	e9 cd 01 00 00       	jmp    ffffffff80005e42 <unicode_to_cp437+0x175e>
ffffffff80005c75:	b8 cc 00 00 00       	mov    $0xcc,%eax
ffffffff80005c7a:	e9 c3 01 00 00       	jmp    ffffffff80005e42 <unicode_to_cp437+0x175e>
ffffffff80005c7f:	b8 cd 00 00 00       	mov    $0xcd,%eax
ffffffff80005c84:	e9 b9 01 00 00       	jmp    ffffffff80005e42 <unicode_to_cp437+0x175e>
ffffffff80005c89:	b8 ce 00 00 00       	mov    $0xce,%eax
ffffffff80005c8e:	e9 af 01 00 00       	jmp    ffffffff80005e42 <unicode_to_cp437+0x175e>
ffffffff80005c93:	b8 cf 00 00 00       	mov    $0xcf,%eax
ffffffff80005c98:	e9 a5 01 00 00       	jmp    ffffffff80005e42 <unicode_to_cp437+0x175e>
ffffffff80005c9d:	b8 d0 00 00 00       	mov    $0xd0,%eax
ffffffff80005ca2:	e9 9b 01 00 00       	jmp    ffffffff80005e42 <unicode_to_cp437+0x175e>
ffffffff80005ca7:	b8 d1 00 00 00       	mov    $0xd1,%eax
ffffffff80005cac:	e9 91 01 00 00       	jmp    ffffffff80005e42 <unicode_to_cp437+0x175e>
ffffffff80005cb1:	b8 d2 00 00 00       	mov    $0xd2,%eax
ffffffff80005cb6:	e9 87 01 00 00       	jmp    ffffffff80005e42 <unicode_to_cp437+0x175e>
ffffffff80005cbb:	b8 d3 00 00 00       	mov    $0xd3,%eax
ffffffff80005cc0:	e9 7d 01 00 00       	jmp    ffffffff80005e42 <unicode_to_cp437+0x175e>
ffffffff80005cc5:	b8 d4 00 00 00       	mov    $0xd4,%eax
ffffffff80005cca:	e9 73 01 00 00       	jmp    ffffffff80005e42 <unicode_to_cp437+0x175e>
ffffffff80005ccf:	b8 d5 00 00 00       	mov    $0xd5,%eax
ffffffff80005cd4:	e9 69 01 00 00       	jmp    ffffffff80005e42 <unicode_to_cp437+0x175e>
ffffffff80005cd9:	b8 d6 00 00 00       	mov    $0xd6,%eax
ffffffff80005cde:	e9 5f 01 00 00       	jmp    ffffffff80005e42 <unicode_to_cp437+0x175e>
ffffffff80005ce3:	b8 d7 00 00 00       	mov    $0xd7,%eax
ffffffff80005ce8:	e9 55 01 00 00       	jmp    ffffffff80005e42 <unicode_to_cp437+0x175e>
ffffffff80005ced:	b8 d8 00 00 00       	mov    $0xd8,%eax
ffffffff80005cf2:	e9 4b 01 00 00       	jmp    ffffffff80005e42 <unicode_to_cp437+0x175e>
ffffffff80005cf7:	b8 d9 00 00 00       	mov    $0xd9,%eax
ffffffff80005cfc:	e9 41 01 00 00       	jmp    ffffffff80005e42 <unicode_to_cp437+0x175e>
ffffffff80005d01:	b8 da 00 00 00       	mov    $0xda,%eax
ffffffff80005d06:	e9 37 01 00 00       	jmp    ffffffff80005e42 <unicode_to_cp437+0x175e>
ffffffff80005d0b:	b8 db 00 00 00       	mov    $0xdb,%eax
ffffffff80005d10:	e9 2d 01 00 00       	jmp    ffffffff80005e42 <unicode_to_cp437+0x175e>
ffffffff80005d15:	b8 dc 00 00 00       	mov    $0xdc,%eax
ffffffff80005d1a:	e9 23 01 00 00       	jmp    ffffffff80005e42 <unicode_to_cp437+0x175e>
ffffffff80005d1f:	b8 dd 00 00 00       	mov    $0xdd,%eax
ffffffff80005d24:	e9 19 01 00 00       	jmp    ffffffff80005e42 <unicode_to_cp437+0x175e>
ffffffff80005d29:	b8 de 00 00 00       	mov    $0xde,%eax
ffffffff80005d2e:	e9 0f 01 00 00       	jmp    ffffffff80005e42 <unicode_to_cp437+0x175e>
ffffffff80005d33:	b8 df 00 00 00       	mov    $0xdf,%eax
ffffffff80005d38:	e9 05 01 00 00       	jmp    ffffffff80005e42 <unicode_to_cp437+0x175e>
ffffffff80005d3d:	b8 e0 00 00 00       	mov    $0xe0,%eax
ffffffff80005d42:	e9 fb 00 00 00       	jmp    ffffffff80005e42 <unicode_to_cp437+0x175e>
ffffffff80005d47:	b8 e1 00 00 00       	mov    $0xe1,%eax
ffffffff80005d4c:	e9 f1 00 00 00       	jmp    ffffffff80005e42 <unicode_to_cp437+0x175e>
ffffffff80005d51:	b8 e2 00 00 00       	mov    $0xe2,%eax
ffffffff80005d56:	e9 e7 00 00 00       	jmp    ffffffff80005e42 <unicode_to_cp437+0x175e>
ffffffff80005d5b:	b8 e3 00 00 00       	mov    $0xe3,%eax
ffffffff80005d60:	e9 dd 00 00 00       	jmp    ffffffff80005e42 <unicode_to_cp437+0x175e>
ffffffff80005d65:	b8 e4 00 00 00       	mov    $0xe4,%eax
ffffffff80005d6a:	e9 d3 00 00 00       	jmp    ffffffff80005e42 <unicode_to_cp437+0x175e>
ffffffff80005d6f:	b8 e5 00 00 00       	mov    $0xe5,%eax
ffffffff80005d74:	e9 c9 00 00 00       	jmp    ffffffff80005e42 <unicode_to_cp437+0x175e>
ffffffff80005d79:	b8 e6 00 00 00       	mov    $0xe6,%eax
ffffffff80005d7e:	e9 bf 00 00 00       	jmp    ffffffff80005e42 <unicode_to_cp437+0x175e>
ffffffff80005d83:	b8 e7 00 00 00       	mov    $0xe7,%eax
ffffffff80005d88:	e9 b5 00 00 00       	jmp    ffffffff80005e42 <unicode_to_cp437+0x175e>
ffffffff80005d8d:	b8 e8 00 00 00       	mov    $0xe8,%eax
ffffffff80005d92:	e9 ab 00 00 00       	jmp    ffffffff80005e42 <unicode_to_cp437+0x175e>
ffffffff80005d97:	b8 e9 00 00 00       	mov    $0xe9,%eax
ffffffff80005d9c:	e9 a1 00 00 00       	jmp    ffffffff80005e42 <unicode_to_cp437+0x175e>
ffffffff80005da1:	b8 ea 00 00 00       	mov    $0xea,%eax
ffffffff80005da6:	e9 97 00 00 00       	jmp    ffffffff80005e42 <unicode_to_cp437+0x175e>
ffffffff80005dab:	b8 eb 00 00 00       	mov    $0xeb,%eax
ffffffff80005db0:	e9 8d 00 00 00       	jmp    ffffffff80005e42 <unicode_to_cp437+0x175e>
ffffffff80005db5:	b8 ec 00 00 00       	mov    $0xec,%eax
ffffffff80005dba:	e9 83 00 00 00       	jmp    ffffffff80005e42 <unicode_to_cp437+0x175e>
ffffffff80005dbf:	b8 ed 00 00 00       	mov    $0xed,%eax
ffffffff80005dc4:	eb 7c                	jmp    ffffffff80005e42 <unicode_to_cp437+0x175e>
ffffffff80005dc6:	b8 ee 00 00 00       	mov    $0xee,%eax
ffffffff80005dcb:	eb 75                	jmp    ffffffff80005e42 <unicode_to_cp437+0x175e>
ffffffff80005dcd:	b8 ef 00 00 00       	mov    $0xef,%eax
ffffffff80005dd2:	eb 6e                	jmp    ffffffff80005e42 <unicode_to_cp437+0x175e>
ffffffff80005dd4:	b8 f0 00 00 00       	mov    $0xf0,%eax
ffffffff80005dd9:	eb 67                	jmp    ffffffff80005e42 <unicode_to_cp437+0x175e>
ffffffff80005ddb:	b8 f1 00 00 00       	mov    $0xf1,%eax
ffffffff80005de0:	eb 60                	jmp    ffffffff80005e42 <unicode_to_cp437+0x175e>
ffffffff80005de2:	b8 f2 00 00 00       	mov    $0xf2,%eax
ffffffff80005de7:	eb 59                	jmp    ffffffff80005e42 <unicode_to_cp437+0x175e>
ffffffff80005de9:	b8 f3 00 00 00       	mov    $0xf3,%eax
ffffffff80005dee:	eb 52                	jmp    ffffffff80005e42 <unicode_to_cp437+0x175e>
ffffffff80005df0:	b8 f4 00 00 00       	mov    $0xf4,%eax
ffffffff80005df5:	eb 4b                	jmp    ffffffff80005e42 <unicode_to_cp437+0x175e>
ffffffff80005df7:	b8 f5 00 00 00       	mov    $0xf5,%eax
ffffffff80005dfc:	eb 44                	jmp    ffffffff80005e42 <unicode_to_cp437+0x175e>
ffffffff80005dfe:	b8 f6 00 00 00       	mov    $0xf6,%eax
ffffffff80005e03:	eb 3d                	jmp    ffffffff80005e42 <unicode_to_cp437+0x175e>
ffffffff80005e05:	b8 f7 00 00 00       	mov    $0xf7,%eax
ffffffff80005e0a:	eb 36                	jmp    ffffffff80005e42 <unicode_to_cp437+0x175e>
ffffffff80005e0c:	b8 f8 00 00 00       	mov    $0xf8,%eax
ffffffff80005e11:	eb 2f                	jmp    ffffffff80005e42 <unicode_to_cp437+0x175e>
ffffffff80005e13:	b8 f9 00 00 00       	mov    $0xf9,%eax
ffffffff80005e18:	eb 28                	jmp    ffffffff80005e42 <unicode_to_cp437+0x175e>
ffffffff80005e1a:	b8 fa 00 00 00       	mov    $0xfa,%eax
ffffffff80005e1f:	eb 21                	jmp    ffffffff80005e42 <unicode_to_cp437+0x175e>
ffffffff80005e21:	b8 fb 00 00 00       	mov    $0xfb,%eax
ffffffff80005e26:	eb 1a                	jmp    ffffffff80005e42 <unicode_to_cp437+0x175e>
ffffffff80005e28:	b8 fc 00 00 00       	mov    $0xfc,%eax
ffffffff80005e2d:	eb 13                	jmp    ffffffff80005e42 <unicode_to_cp437+0x175e>
ffffffff80005e2f:	b8 fd 00 00 00       	mov    $0xfd,%eax
ffffffff80005e34:	eb 0c                	jmp    ffffffff80005e42 <unicode_to_cp437+0x175e>
ffffffff80005e36:	b8 fe 00 00 00       	mov    $0xfe,%eax
ffffffff80005e3b:	eb 05                	jmp    ffffffff80005e42 <unicode_to_cp437+0x175e>
ffffffff80005e3d:	b8 ff ff ff ff       	mov    $0xffffffff,%eax
ffffffff80005e42:	c9                   	leave
ffffffff80005e43:	c3                   	ret

ffffffff80005e44 <flanterm_putchar>:
ffffffff80005e44:	55                   	push   %rbp
ffffffff80005e45:	48 89 e5             	mov    %rsp,%rbp
ffffffff80005e48:	48 83 ec 40          	sub    $0x40,%rsp
ffffffff80005e4c:	48 89 7d c8          	mov    %rdi,-0x38(%rbp)
ffffffff80005e50:	89 f0                	mov    %esi,%eax
ffffffff80005e52:	88 45 c4             	mov    %al,-0x3c(%rbp)
ffffffff80005e55:	48 8b 45 c8          	mov    -0x38(%rbp),%rax
ffffffff80005e59:	0f b6 40 10          	movzbl 0x10(%rax),%eax
ffffffff80005e5d:	84 c0                	test   %al,%al
ffffffff80005e5f:	75 0c                	jne    ffffffff80005e6d <flanterm_putchar+0x29>
ffffffff80005e61:	80 7d c4 18          	cmpb   $0x18,-0x3c(%rbp)
ffffffff80005e65:	74 06                	je     ffffffff80005e6d <flanterm_putchar+0x29>
ffffffff80005e67:	80 7d c4 1a          	cmpb   $0x1a,-0x3c(%rbp)
ffffffff80005e6b:	75 41                	jne    ffffffff80005eae <flanterm_putchar+0x6a>
ffffffff80005e6d:	48 8b 45 c8          	mov    -0x38(%rbp),%rax
ffffffff80005e71:	c6 40 10 00          	movb   $0x0,0x10(%rax)
ffffffff80005e75:	48 8b 45 c8          	mov    -0x38(%rbp),%rax
ffffffff80005e79:	c6 40 0c 00          	movb   $0x0,0xc(%rax)
ffffffff80005e7d:	48 8b 45 c8          	mov    -0x38(%rbp),%rax
ffffffff80005e81:	c6 40 0b 00          	movb   $0x0,0xb(%rax)
ffffffff80005e85:	48 8b 45 c8          	mov    -0x38(%rbp),%rax
ffffffff80005e89:	48 c7 40 20 00 00 00 	movq   $0x0,0x20(%rax)
ffffffff80005e90:	00 
ffffffff80005e91:	48 8b 45 c8          	mov    -0x38(%rbp),%rax
ffffffff80005e95:	c6 40 0d 00          	movb   $0x0,0xd(%rax)
ffffffff80005e99:	48 8b 45 c8          	mov    -0x38(%rbp),%rax
ffffffff80005e9d:	c6 40 0e 00          	movb   $0x0,0xe(%rax)
ffffffff80005ea1:	48 8b 45 c8          	mov    -0x38(%rbp),%rax
ffffffff80005ea5:	c6 40 28 00          	movb   $0x0,0x28(%rax)
ffffffff80005ea9:	e9 2a 06 00 00       	jmp    ffffffff800064d8 <flanterm_putchar+0x694>
ffffffff80005eae:	48 8b 45 c8          	mov    -0x38(%rbp),%rax
ffffffff80005eb2:	48 8b 40 20          	mov    0x20(%rax),%rax
ffffffff80005eb6:	48 85 c0             	test   %rax,%rax
ffffffff80005eb9:	0f 84 23 01 00 00    	je     ffffffff80005fe2 <flanterm_putchar+0x19e>
ffffffff80005ebf:	0f b6 45 c4          	movzbl -0x3c(%rbp),%eax
ffffffff80005ec3:	25 c0 00 00 00       	and    $0xc0,%eax
ffffffff80005ec8:	3d 80 00 00 00       	cmp    $0x80,%eax
ffffffff80005ecd:	74 11                	je     ffffffff80005ee0 <flanterm_putchar+0x9c>
ffffffff80005ecf:	48 8b 45 c8          	mov    -0x38(%rbp),%rax
ffffffff80005ed3:	48 c7 40 20 00 00 00 	movq   $0x0,0x20(%rax)
ffffffff80005eda:	00 
ffffffff80005edb:	e9 03 01 00 00       	jmp    ffffffff80005fe3 <flanterm_putchar+0x19f>
ffffffff80005ee0:	48 8b 45 c8          	mov    -0x38(%rbp),%rax
ffffffff80005ee4:	48 8b 40 20          	mov    0x20(%rax),%rax
ffffffff80005ee8:	48 8d 50 ff          	lea    -0x1(%rax),%rdx
ffffffff80005eec:	48 8b 45 c8          	mov    -0x38(%rbp),%rax
ffffffff80005ef0:	48 89 50 20          	mov    %rdx,0x20(%rax)
ffffffff80005ef4:	48 8b 45 c8          	mov    -0x38(%rbp),%rax
ffffffff80005ef8:	48 8b 50 18          	mov    0x18(%rax),%rdx
ffffffff80005efc:	0f b6 45 c4          	movzbl -0x3c(%rbp),%eax
ffffffff80005f00:	83 e0 3f             	and    $0x3f,%eax
ffffffff80005f03:	48 89 c6             	mov    %rax,%rsi
ffffffff80005f06:	48 8b 45 c8          	mov    -0x38(%rbp),%rax
ffffffff80005f0a:	48 8b 40 20          	mov    0x20(%rax),%rax
ffffffff80005f0e:	89 c1                	mov    %eax,%ecx
ffffffff80005f10:	89 c8                	mov    %ecx,%eax
ffffffff80005f12:	01 c0                	add    %eax,%eax
ffffffff80005f14:	01 c8                	add    %ecx,%eax
ffffffff80005f16:	01 c0                	add    %eax,%eax
ffffffff80005f18:	89 c1                	mov    %eax,%ecx
ffffffff80005f1a:	48 d3 e6             	shl    %cl,%rsi
ffffffff80005f1d:	48 89 f0             	mov    %rsi,%rax
ffffffff80005f20:	48 09 c2             	or     %rax,%rdx
ffffffff80005f23:	48 8b 45 c8          	mov    -0x38(%rbp),%rax
ffffffff80005f27:	48 89 50 18          	mov    %rdx,0x18(%rax)
ffffffff80005f2b:	48 8b 45 c8          	mov    -0x38(%rbp),%rax
ffffffff80005f2f:	48 8b 40 20          	mov    0x20(%rax),%rax
ffffffff80005f33:	48 85 c0             	test   %rax,%rax
ffffffff80005f36:	0f 85 8f 05 00 00    	jne    ffffffff800064cb <flanterm_putchar+0x687>
ffffffff80005f3c:	48 8b 45 c8          	mov    -0x38(%rbp),%rax
ffffffff80005f40:	48 8b 40 18          	mov    0x18(%rax),%rax
ffffffff80005f44:	48 89 c7             	mov    %rax,%rdi
ffffffff80005f47:	e8 98 e7 ff ff       	call   ffffffff800046e4 <unicode_to_cp437>
ffffffff80005f4c:	89 45 ec             	mov    %eax,-0x14(%rbp)
ffffffff80005f4f:	83 7d ec ff          	cmpl   $0xffffffff,-0x14(%rbp)
ffffffff80005f53:	75 6c                	jne    ffffffff80005fc1 <flanterm_putchar+0x17d>
ffffffff80005f55:	48 8b 45 c8          	mov    -0x38(%rbp),%rax
ffffffff80005f59:	48 8b 40 18          	mov    0x18(%rax),%rax
ffffffff80005f5d:	89 c7                	mov    %eax,%edi
ffffffff80005f5f:	e8 2b e6 ff ff       	call   ffffffff8000458f <mk_wcwidth>
ffffffff80005f64:	48 98                	cltq
ffffffff80005f66:	48 89 45 e0          	mov    %rax,-0x20(%rbp)
ffffffff80005f6a:	48 83 7d e0 00       	cmpq   $0x0,-0x20(%rbp)
ffffffff80005f6f:	74 19                	je     ffffffff80005f8a <flanterm_putchar+0x146>
ffffffff80005f71:	48 8b 45 c8          	mov    -0x38(%rbp),%rax
ffffffff80005f75:	48 8b 90 f0 00 00 00 	mov    0xf0(%rax),%rdx
ffffffff80005f7c:	48 8b 45 c8          	mov    -0x38(%rbp),%rax
ffffffff80005f80:	be fe 00 00 00       	mov    $0xfe,%esi
ffffffff80005f85:	48 89 c7             	mov    %rax,%rdi
ffffffff80005f88:	ff d2                	call   *%rdx
ffffffff80005f8a:	48 c7 45 f8 01 00 00 	movq   $0x1,-0x8(%rbp)
ffffffff80005f91:	00 
ffffffff80005f92:	eb 1e                	jmp    ffffffff80005fb2 <flanterm_putchar+0x16e>
ffffffff80005f94:	48 8b 45 c8          	mov    -0x38(%rbp),%rax
ffffffff80005f98:	48 8b 90 f0 00 00 00 	mov    0xf0(%rax),%rdx
ffffffff80005f9f:	48 8b 45 c8          	mov    -0x38(%rbp),%rax
ffffffff80005fa3:	be 20 00 00 00       	mov    $0x20,%esi
ffffffff80005fa8:	48 89 c7             	mov    %rax,%rdi
ffffffff80005fab:	ff d2                	call   *%rdx
ffffffff80005fad:	48 83 45 f8 01       	addq   $0x1,-0x8(%rbp)
ffffffff80005fb2:	48 8b 45 f8          	mov    -0x8(%rbp),%rax
ffffffff80005fb6:	48 3b 45 e0          	cmp    -0x20(%rbp),%rax
ffffffff80005fba:	72 d8                	jb     ffffffff80005f94 <flanterm_putchar+0x150>
ffffffff80005fbc:	e9 17 05 00 00       	jmp    ffffffff800064d8 <flanterm_putchar+0x694>
ffffffff80005fc1:	48 8b 45 c8          	mov    -0x38(%rbp),%rax
ffffffff80005fc5:	48 8b 88 f0 00 00 00 	mov    0xf0(%rax),%rcx
ffffffff80005fcc:	8b 45 ec             	mov    -0x14(%rbp),%eax
ffffffff80005fcf:	0f b6 d0             	movzbl %al,%edx
ffffffff80005fd2:	48 8b 45 c8          	mov    -0x38(%rbp),%rax
ffffffff80005fd6:	89 d6                	mov    %edx,%esi
ffffffff80005fd8:	48 89 c7             	mov    %rax,%rdi
ffffffff80005fdb:	ff d1                	call   *%rcx
ffffffff80005fdd:	e9 f6 04 00 00       	jmp    ffffffff800064d8 <flanterm_putchar+0x694>
ffffffff80005fe2:	90                   	nop
ffffffff80005fe3:	80 7d c4 bf          	cmpb   $0xbf,-0x3c(%rbp)
ffffffff80005fe7:	0f 86 ab 00 00 00    	jbe    ffffffff80006098 <flanterm_putchar+0x254>
ffffffff80005fed:	80 7d c4 f7          	cmpb   $0xf7,-0x3c(%rbp)
ffffffff80005ff1:	0f 87 a1 00 00 00    	ja     ffffffff80006098 <flanterm_putchar+0x254>
ffffffff80005ff7:	80 7d c4 bf          	cmpb   $0xbf,-0x3c(%rbp)
ffffffff80005ffb:	76 2c                	jbe    ffffffff80006029 <flanterm_putchar+0x1e5>
ffffffff80005ffd:	80 7d c4 df          	cmpb   $0xdf,-0x3c(%rbp)
ffffffff80006001:	77 26                	ja     ffffffff80006029 <flanterm_putchar+0x1e5>
ffffffff80006003:	48 8b 45 c8          	mov    -0x38(%rbp),%rax
ffffffff80006007:	48 c7 40 20 01 00 00 	movq   $0x1,0x20(%rax)
ffffffff8000600e:	00 
ffffffff8000600f:	0f b6 45 c4          	movzbl -0x3c(%rbp),%eax
ffffffff80006013:	48 c1 e0 06          	shl    $0x6,%rax
ffffffff80006017:	25 c0 07 00 00       	and    $0x7c0,%eax
ffffffff8000601c:	48 89 c2             	mov    %rax,%rdx
ffffffff8000601f:	48 8b 45 c8          	mov    -0x38(%rbp),%rax
ffffffff80006023:	48 89 50 18          	mov    %rdx,0x18(%rax)
ffffffff80006027:	eb 6a                	jmp    ffffffff80006093 <flanterm_putchar+0x24f>
ffffffff80006029:	80 7d c4 df          	cmpb   $0xdf,-0x3c(%rbp)
ffffffff8000602d:	76 27                	jbe    ffffffff80006056 <flanterm_putchar+0x212>
ffffffff8000602f:	80 7d c4 ef          	cmpb   $0xef,-0x3c(%rbp)
ffffffff80006033:	77 21                	ja     ffffffff80006056 <flanterm_putchar+0x212>
ffffffff80006035:	48 8b 45 c8          	mov    -0x38(%rbp),%rax
ffffffff80006039:	48 c7 40 20 02 00 00 	movq   $0x2,0x20(%rax)
ffffffff80006040:	00 
ffffffff80006041:	0f b6 45 c4          	movzbl -0x3c(%rbp),%eax
ffffffff80006045:	48 c1 e0 0c          	shl    $0xc,%rax
ffffffff80006049:	0f b7 d0             	movzwl %ax,%edx
ffffffff8000604c:	48 8b 45 c8          	mov    -0x38(%rbp),%rax
ffffffff80006050:	48 89 50 18          	mov    %rdx,0x18(%rax)
ffffffff80006054:	eb 3d                	jmp    ffffffff80006093 <flanterm_putchar+0x24f>
ffffffff80006056:	80 7d c4 ef          	cmpb   $0xef,-0x3c(%rbp)
ffffffff8000605a:	0f 86 6e 04 00 00    	jbe    ffffffff800064ce <flanterm_putchar+0x68a>
ffffffff80006060:	80 7d c4 f7          	cmpb   $0xf7,-0x3c(%rbp)
ffffffff80006064:	0f 87 64 04 00 00    	ja     ffffffff800064ce <flanterm_putchar+0x68a>
ffffffff8000606a:	48 8b 45 c8          	mov    -0x38(%rbp),%rax
ffffffff8000606e:	48 c7 40 20 03 00 00 	movq   $0x3,0x20(%rax)
ffffffff80006075:	00 
ffffffff80006076:	0f b6 45 c4          	movzbl -0x3c(%rbp),%eax
ffffffff8000607a:	48 c1 e0 12          	shl    $0x12,%rax
ffffffff8000607e:	25 00 00 1c 00       	and    $0x1c0000,%eax
ffffffff80006083:	48 89 c2             	mov    %rax,%rdx
ffffffff80006086:	48 8b 45 c8          	mov    -0x38(%rbp),%rax
ffffffff8000608a:	48 89 50 18          	mov    %rdx,0x18(%rax)
ffffffff8000608e:	e9 3b 04 00 00       	jmp    ffffffff800064ce <flanterm_putchar+0x68a>
ffffffff80006093:	e9 36 04 00 00       	jmp    ffffffff800064ce <flanterm_putchar+0x68a>
ffffffff80006098:	48 8b 45 c8          	mov    -0x38(%rbp),%rax
ffffffff8000609c:	0f b6 40 0c          	movzbl 0xc(%rax),%eax
ffffffff800060a0:	84 c0                	test   %al,%al
ffffffff800060a2:	74 17                	je     ffffffff800060bb <flanterm_putchar+0x277>
ffffffff800060a4:	0f b6 55 c4          	movzbl -0x3c(%rbp),%edx
ffffffff800060a8:	48 8b 45 c8          	mov    -0x38(%rbp),%rax
ffffffff800060ac:	89 d6                	mov    %edx,%esi
ffffffff800060ae:	48 89 c7             	mov    %rax,%rdi
ffffffff800060b1:	e8 c0 da ff ff       	call   ffffffff80003b76 <escape_parse>
ffffffff800060b6:	e9 1d 04 00 00       	jmp    ffffffff800064d8 <flanterm_putchar+0x694>
ffffffff800060bb:	48 8b 45 c8          	mov    -0x38(%rbp),%rax
ffffffff800060bf:	0f b6 40 28          	movzbl 0x28(%rax),%eax
ffffffff800060c3:	84 c0                	test   %al,%al
ffffffff800060c5:	74 5c                	je     ffffffff80006123 <flanterm_putchar+0x2df>
ffffffff800060c7:	48 8b 45 c8          	mov    -0x38(%rbp),%rax
ffffffff800060cb:	0f b6 40 28          	movzbl 0x28(%rax),%eax
ffffffff800060cf:	8d 50 ff             	lea    -0x1(%rax),%edx
ffffffff800060d2:	48 8b 45 c8          	mov    -0x38(%rbp),%rax
ffffffff800060d6:	88 50 28             	mov    %dl,0x28(%rax)
ffffffff800060d9:	0f b6 45 c4          	movzbl -0x3c(%rbp),%eax
ffffffff800060dd:	83 f8 30             	cmp    $0x30,%eax
ffffffff800060e0:	74 1d                	je     ffffffff800060ff <flanterm_putchar+0x2bb>
ffffffff800060e2:	83 f8 42             	cmp    $0x42,%eax
ffffffff800060e5:	75 2f                	jne    ffffffff80006116 <flanterm_putchar+0x2d2>
ffffffff800060e7:	48 8b 45 c8          	mov    -0x38(%rbp),%rax
ffffffff800060eb:	0f b6 40 28          	movzbl 0x28(%rax),%eax
ffffffff800060ef:	0f b6 c0             	movzbl %al,%eax
ffffffff800060f2:	48 8b 55 c8          	mov    -0x38(%rbp),%rdx
ffffffff800060f6:	48 98                	cltq
ffffffff800060f8:	c6 44 02 29 00       	movb   $0x0,0x29(%rdx,%rax,1)
ffffffff800060fd:	eb 17                	jmp    ffffffff80006116 <flanterm_putchar+0x2d2>
ffffffff800060ff:	48 8b 45 c8          	mov    -0x38(%rbp),%rax
ffffffff80006103:	0f b6 40 28          	movzbl 0x28(%rax),%eax
ffffffff80006107:	0f b6 c0             	movzbl %al,%eax
ffffffff8000610a:	48 8b 55 c8          	mov    -0x38(%rbp),%rdx
ffffffff8000610e:	48 98                	cltq
ffffffff80006110:	c6 44 02 29 01       	movb   $0x1,0x29(%rdx,%rax,1)
ffffffff80006115:	90                   	nop
ffffffff80006116:	48 8b 45 c8          	mov    -0x38(%rbp),%rax
ffffffff8000611a:	c6 40 28 00          	movb   $0x0,0x28(%rax)
ffffffff8000611e:	e9 b5 03 00 00       	jmp    ffffffff800064d8 <flanterm_putchar+0x694>
ffffffff80006123:	48 8b 45 c8          	mov    -0x38(%rbp),%rax
ffffffff80006127:	4c 8b 80 08 01 00 00 	mov    0x108(%rax),%r8
ffffffff8000612e:	48 8d 55 d0          	lea    -0x30(%rbp),%rdx
ffffffff80006132:	48 8d 4d d8          	lea    -0x28(%rbp),%rcx
ffffffff80006136:	48 8b 45 c8          	mov    -0x38(%rbp),%rax
ffffffff8000613a:	48 89 ce             	mov    %rcx,%rsi
ffffffff8000613d:	48 89 c7             	mov    %rax,%rdi
ffffffff80006140:	41 ff d0             	call   *%r8
ffffffff80006143:	0f b6 45 c4          	movzbl -0x3c(%rbp),%eax
ffffffff80006147:	83 f8 7f             	cmp    $0x7f,%eax
ffffffff8000614a:	0f 84 81 03 00 00    	je     ffffffff800064d1 <flanterm_putchar+0x68d>
ffffffff80006150:	83 f8 7f             	cmp    $0x7f,%eax
ffffffff80006153:	0f 8f 9c 02 00 00    	jg     ffffffff800063f5 <flanterm_putchar+0x5b1>
ffffffff80006159:	83 f8 1b             	cmp    $0x1b,%eax
ffffffff8000615c:	0f 84 87 00 00 00    	je     ffffffff800061e9 <flanterm_putchar+0x3a5>
ffffffff80006162:	83 f8 1b             	cmp    $0x1b,%eax
ffffffff80006165:	0f 8f 8a 02 00 00    	jg     ffffffff800063f5 <flanterm_putchar+0x5b1>
ffffffff8000616b:	83 f8 0f             	cmp    $0xf,%eax
ffffffff8000616e:	0f 84 70 02 00 00    	je     ffffffff800063e4 <flanterm_putchar+0x5a0>
ffffffff80006174:	83 f8 0f             	cmp    $0xf,%eax
ffffffff80006177:	0f 8f 78 02 00 00    	jg     ffffffff800063f5 <flanterm_putchar+0x5b1>
ffffffff8000617d:	83 f8 0e             	cmp    $0xe,%eax
ffffffff80006180:	0f 84 4d 02 00 00    	je     ffffffff800063d3 <flanterm_putchar+0x58f>
ffffffff80006186:	83 f8 0e             	cmp    $0xe,%eax
ffffffff80006189:	0f 8f 66 02 00 00    	jg     ffffffff800063f5 <flanterm_putchar+0x5b1>
ffffffff8000618f:	83 f8 0d             	cmp    $0xd,%eax
ffffffff80006192:	0f 84 d6 01 00 00    	je     ffffffff8000636e <flanterm_putchar+0x52a>
ffffffff80006198:	83 f8 0d             	cmp    $0xd,%eax
ffffffff8000619b:	0f 8f 54 02 00 00    	jg     ffffffff800063f5 <flanterm_putchar+0x5b1>
ffffffff800061a1:	83 f8 0c             	cmp    $0xc,%eax
ffffffff800061a4:	0f 8f 4b 02 00 00    	jg     ffffffff800063f5 <flanterm_putchar+0x5b1>
ffffffff800061aa:	83 f8 0a             	cmp    $0xa,%eax
ffffffff800061ad:	0f 8d eb 00 00 00    	jge    ffffffff8000629e <flanterm_putchar+0x45a>
ffffffff800061b3:	83 f8 09             	cmp    $0x9,%eax
ffffffff800061b6:	74 4a                	je     ffffffff80006202 <flanterm_putchar+0x3be>
ffffffff800061b8:	83 f8 09             	cmp    $0x9,%eax
ffffffff800061bb:	0f 8f 34 02 00 00    	jg     ffffffff800063f5 <flanterm_putchar+0x5b1>
ffffffff800061c1:	83 f8 08             	cmp    $0x8,%eax
ffffffff800061c4:	0f 84 7f 01 00 00    	je     ffffffff80006349 <flanterm_putchar+0x505>
ffffffff800061ca:	83 f8 08             	cmp    $0x8,%eax
ffffffff800061cd:	0f 8f 22 02 00 00    	jg     ffffffff800063f5 <flanterm_putchar+0x5b1>
ffffffff800061d3:	85 c0                	test   %eax,%eax
ffffffff800061d5:	0f 84 f6 02 00 00    	je     ffffffff800064d1 <flanterm_putchar+0x68d>
ffffffff800061db:	83 f8 07             	cmp    $0x7,%eax
ffffffff800061de:	0f 84 ac 01 00 00    	je     ffffffff80006390 <flanterm_putchar+0x54c>
ffffffff800061e4:	e9 0c 02 00 00       	jmp    ffffffff800063f5 <flanterm_putchar+0x5b1>
ffffffff800061e9:	48 8b 45 c8          	mov    -0x38(%rbp),%rax
ffffffff800061ed:	48 c7 40 38 00 00 00 	movq   $0x0,0x38(%rax)
ffffffff800061f4:	00 
ffffffff800061f5:	48 8b 45 c8          	mov    -0x38(%rbp),%rax
ffffffff800061f9:	c6 40 0c 01          	movb   $0x1,0xc(%rax)
ffffffff800061fd:	e9 d6 02 00 00       	jmp    ffffffff800064d8 <flanterm_putchar+0x694>
ffffffff80006202:	48 8b 45 d8          	mov    -0x28(%rbp),%rax
ffffffff80006206:	48 8b 55 c8          	mov    -0x38(%rbp),%rdx
ffffffff8000620a:	48 8b 3a             	mov    (%rdx),%rdi
ffffffff8000620d:	ba 00 00 00 00       	mov    $0x0,%edx
ffffffff80006212:	48 f7 f7             	div    %rdi
ffffffff80006215:	48 8d 50 01          	lea    0x1(%rax),%rdx
ffffffff80006219:	48 8b 45 c8          	mov    -0x38(%rbp),%rax
ffffffff8000621d:	48 8b 80 e8 00 00 00 	mov    0xe8(%rax),%rax
ffffffff80006224:	48 39 c2             	cmp    %rax,%rdx
ffffffff80006227:	72 2c                	jb     ffffffff80006255 <flanterm_putchar+0x411>
ffffffff80006229:	48 8b 45 c8          	mov    -0x38(%rbp),%rax
ffffffff8000622d:	48 8b 88 00 01 00 00 	mov    0x100(%rax),%rcx
ffffffff80006234:	48 8b 55 d0          	mov    -0x30(%rbp),%rdx
ffffffff80006238:	48 8b 45 c8          	mov    -0x38(%rbp),%rax
ffffffff8000623c:	48 8b 80 e8 00 00 00 	mov    0xe8(%rax),%rax
ffffffff80006243:	48 8d 70 ff          	lea    -0x1(%rax),%rsi
ffffffff80006247:	48 8b 45 c8          	mov    -0x38(%rbp),%rax
ffffffff8000624b:	48 89 c7             	mov    %rax,%rdi
ffffffff8000624e:	ff d1                	call   *%rcx
ffffffff80006250:	e9 83 02 00 00       	jmp    ffffffff800064d8 <flanterm_putchar+0x694>
ffffffff80006255:	48 8b 45 c8          	mov    -0x38(%rbp),%rax
ffffffff80006259:	4c 8b 80 00 01 00 00 	mov    0x100(%rax),%r8
ffffffff80006260:	48 8b 75 d0          	mov    -0x30(%rbp),%rsi
ffffffff80006264:	48 8b 45 d8          	mov    -0x28(%rbp),%rax
ffffffff80006268:	48 8b 55 c8          	mov    -0x38(%rbp),%rdx
ffffffff8000626c:	48 8b 3a             	mov    (%rdx),%rdi
ffffffff8000626f:	ba 00 00 00 00       	mov    $0x0,%edx
ffffffff80006274:	48 f7 f7             	div    %rdi
ffffffff80006277:	48 8d 50 01          	lea    0x1(%rax),%rdx
ffffffff8000627b:	48 8b 45 c8          	mov    -0x38(%rbp),%rax
ffffffff8000627f:	48 8b 00             	mov    (%rax),%rax
ffffffff80006282:	48 89 d1             	mov    %rdx,%rcx
ffffffff80006285:	48 0f af c8          	imul   %rax,%rcx
ffffffff80006289:	48 8b 45 c8          	mov    -0x38(%rbp),%rax
ffffffff8000628d:	48 89 f2             	mov    %rsi,%rdx
ffffffff80006290:	48 89 ce             	mov    %rcx,%rsi
ffffffff80006293:	48 89 c7             	mov    %rax,%rdi
ffffffff80006296:	41 ff d0             	call   *%r8
ffffffff80006299:	e9 3a 02 00 00       	jmp    ffffffff800064d8 <flanterm_putchar+0x694>
ffffffff8000629e:	48 8b 45 c8          	mov    -0x38(%rbp),%rax
ffffffff800062a2:	48 8b 40 70          	mov    0x70(%rax),%rax
ffffffff800062a6:	48 8d 50 ff          	lea    -0x1(%rax),%rdx
ffffffff800062aa:	48 8b 45 d0          	mov    -0x30(%rbp),%rax
ffffffff800062ae:	48 39 c2             	cmp    %rax,%rdx
ffffffff800062b1:	75 53                	jne    ffffffff80006306 <flanterm_putchar+0x4c2>
ffffffff800062b3:	48 8b 45 c8          	mov    -0x38(%rbp),%rax
ffffffff800062b7:	48 8b 90 68 01 00 00 	mov    0x168(%rax),%rdx
ffffffff800062be:	48 8b 45 c8          	mov    -0x38(%rbp),%rax
ffffffff800062c2:	48 89 c7             	mov    %rax,%rdi
ffffffff800062c5:	ff d2                	call   *%rdx
ffffffff800062c7:	48 8b 45 c8          	mov    -0x38(%rbp),%rax
ffffffff800062cb:	4c 8b 80 00 01 00 00 	mov    0x100(%rax),%r8
ffffffff800062d2:	48 8b 55 d0          	mov    -0x30(%rbp),%rdx
ffffffff800062d6:	48 8b 45 c8          	mov    -0x38(%rbp),%rax
ffffffff800062da:	48 8b 80 b8 00 00 00 	mov    0xb8(%rax),%rax
ffffffff800062e1:	83 e0 10             	and    $0x10,%eax
ffffffff800062e4:	48 85 c0             	test   %rax,%rax
ffffffff800062e7:	75 06                	jne    ffffffff800062ef <flanterm_putchar+0x4ab>
ffffffff800062e9:	48 8b 45 d8          	mov    -0x28(%rbp),%rax
ffffffff800062ed:	eb 05                	jmp    ffffffff800062f4 <flanterm_putchar+0x4b0>
ffffffff800062ef:	b8 00 00 00 00       	mov    $0x0,%eax
ffffffff800062f4:	48 8b 4d c8          	mov    -0x38(%rbp),%rcx
ffffffff800062f8:	48 89 c6             	mov    %rax,%rsi
ffffffff800062fb:	48 89 cf             	mov    %rcx,%rdi
ffffffff800062fe:	41 ff d0             	call   *%r8
ffffffff80006301:	e9 d2 01 00 00       	jmp    ffffffff800064d8 <flanterm_putchar+0x694>
ffffffff80006306:	48 8b 45 c8          	mov    -0x38(%rbp),%rax
ffffffff8000630a:	4c 8b 80 00 01 00 00 	mov    0x100(%rax),%r8
ffffffff80006311:	48 8b 45 d0          	mov    -0x30(%rbp),%rax
ffffffff80006315:	48 8d 50 01          	lea    0x1(%rax),%rdx
ffffffff80006319:	48 8b 45 c8          	mov    -0x38(%rbp),%rax
ffffffff8000631d:	48 8b 80 b8 00 00 00 	mov    0xb8(%rax),%rax
ffffffff80006324:	83 e0 10             	and    $0x10,%eax
ffffffff80006327:	48 85 c0             	test   %rax,%rax
ffffffff8000632a:	75 06                	jne    ffffffff80006332 <flanterm_putchar+0x4ee>
ffffffff8000632c:	48 8b 45 d8          	mov    -0x28(%rbp),%rax
ffffffff80006330:	eb 05                	jmp    ffffffff80006337 <flanterm_putchar+0x4f3>
ffffffff80006332:	b8 00 00 00 00       	mov    $0x0,%eax
ffffffff80006337:	48 8b 4d c8          	mov    -0x38(%rbp),%rcx
ffffffff8000633b:	48 89 c6             	mov    %rax,%rsi
ffffffff8000633e:	48 89 cf             	mov    %rcx,%rdi
ffffffff80006341:	41 ff d0             	call   *%r8
ffffffff80006344:	e9 8f 01 00 00       	jmp    ffffffff800064d8 <flanterm_putchar+0x694>
ffffffff80006349:	48 8b 45 c8          	mov    -0x38(%rbp),%rax
ffffffff8000634d:	48 8b 88 00 01 00 00 	mov    0x100(%rax),%rcx
ffffffff80006354:	48 8b 55 d0          	mov    -0x30(%rbp),%rdx
ffffffff80006358:	48 8b 45 d8          	mov    -0x28(%rbp),%rax
ffffffff8000635c:	48 8d 70 ff          	lea    -0x1(%rax),%rsi
ffffffff80006360:	48 8b 45 c8          	mov    -0x38(%rbp),%rax
ffffffff80006364:	48 89 c7             	mov    %rax,%rdi
ffffffff80006367:	ff d1                	call   *%rcx
ffffffff80006369:	e9 6a 01 00 00       	jmp    ffffffff800064d8 <flanterm_putchar+0x694>
ffffffff8000636e:	48 8b 45 c8          	mov    -0x38(%rbp),%rax
ffffffff80006372:	48 8b 88 00 01 00 00 	mov    0x100(%rax),%rcx
ffffffff80006379:	48 8b 55 d0          	mov    -0x30(%rbp),%rdx
ffffffff8000637d:	48 8b 45 c8          	mov    -0x38(%rbp),%rax
ffffffff80006381:	be 00 00 00 00       	mov    $0x0,%esi
ffffffff80006386:	48 89 c7             	mov    %rax,%rdi
ffffffff80006389:	ff d1                	call   *%rcx
ffffffff8000638b:	e9 48 01 00 00       	jmp    ffffffff800064d8 <flanterm_putchar+0x694>
ffffffff80006390:	48 8b 45 c8          	mov    -0x38(%rbp),%rax
ffffffff80006394:	48 8b 80 a8 01 00 00 	mov    0x1a8(%rax),%rax
ffffffff8000639b:	48 85 c0             	test   %rax,%rax
ffffffff8000639e:	0f 84 30 01 00 00    	je     ffffffff800064d4 <flanterm_putchar+0x690>
ffffffff800063a4:	48 8b 45 c8          	mov    -0x38(%rbp),%rax
ffffffff800063a8:	4c 8b 88 a8 01 00 00 	mov    0x1a8(%rax),%r9
ffffffff800063af:	48 8b 45 c8          	mov    -0x38(%rbp),%rax
ffffffff800063b3:	41 b8 00 00 00 00    	mov    $0x0,%r8d
ffffffff800063b9:	b9 00 00 00 00       	mov    $0x0,%ecx
ffffffff800063be:	ba 00 00 00 00       	mov    $0x0,%edx
ffffffff800063c3:	be 14 00 00 00       	mov    $0x14,%esi
ffffffff800063c8:	48 89 c7             	mov    %rax,%rdi
ffffffff800063cb:	41 ff d1             	call   *%r9
ffffffff800063ce:	e9 01 01 00 00       	jmp    ffffffff800064d4 <flanterm_putchar+0x690>
ffffffff800063d3:	48 8b 45 c8          	mov    -0x38(%rbp),%rax
ffffffff800063d7:	48 c7 40 30 01 00 00 	movq   $0x1,0x30(%rax)
ffffffff800063de:	00 
ffffffff800063df:	e9 f4 00 00 00       	jmp    ffffffff800064d8 <flanterm_putchar+0x694>
ffffffff800063e4:	48 8b 45 c8          	mov    -0x38(%rbp),%rax
ffffffff800063e8:	48 c7 40 30 00 00 00 	movq   $0x0,0x30(%rax)
ffffffff800063ef:	00 
ffffffff800063f0:	e9 e3 00 00 00       	jmp    ffffffff800064d8 <flanterm_putchar+0x694>
ffffffff800063f5:	48 8b 45 c8          	mov    -0x38(%rbp),%rax
ffffffff800063f9:	0f b6 40 15          	movzbl 0x15(%rax),%eax
ffffffff800063fd:	84 c0                	test   %al,%al
ffffffff800063ff:	74 51                	je     ffffffff80006452 <flanterm_putchar+0x60e>
ffffffff80006401:	48 8b 45 c8          	mov    -0x38(%rbp),%rax
ffffffff80006405:	48 8b 80 e8 00 00 00 	mov    0xe8(%rax),%rax
ffffffff8000640c:	48 83 e8 01          	sub    $0x1,%rax
ffffffff80006410:	48 89 45 f0          	mov    %rax,-0x10(%rbp)
ffffffff80006414:	48 8b 45 c8          	mov    -0x38(%rbp),%rax
ffffffff80006418:	4c 8b 88 60 01 00 00 	mov    0x160(%rax),%r9
ffffffff8000641f:	48 8b 7d d0          	mov    -0x30(%rbp),%rdi
ffffffff80006423:	48 8b 55 d0          	mov    -0x30(%rbp),%rdx
ffffffff80006427:	48 8b 45 f0          	mov    -0x10(%rbp),%rax
ffffffff8000642b:	48 8d 70 01          	lea    0x1(%rax),%rsi
ffffffff8000642f:	48 8b 4d f0          	mov    -0x10(%rbp),%rcx
ffffffff80006433:	48 8b 45 c8          	mov    -0x38(%rbp),%rax
ffffffff80006437:	49 89 f8             	mov    %rdi,%r8
ffffffff8000643a:	48 89 c7             	mov    %rax,%rdi
ffffffff8000643d:	41 ff d1             	call   *%r9
ffffffff80006440:	48 8b 45 d8          	mov    -0x28(%rbp),%rax
ffffffff80006444:	48 39 45 f0          	cmp    %rax,-0x10(%rbp)
ffffffff80006448:	74 07                	je     ffffffff80006451 <flanterm_putchar+0x60d>
ffffffff8000644a:	48 83 6d f0 01       	subq   $0x1,-0x10(%rbp)
ffffffff8000644f:	eb c3                	jmp    ffffffff80006414 <flanterm_putchar+0x5d0>
ffffffff80006451:	90                   	nop
ffffffff80006452:	48 8b 45 c8          	mov    -0x38(%rbp),%rax
ffffffff80006456:	48 8b 40 30          	mov    0x30(%rax),%rax
ffffffff8000645a:	48 8b 55 c8          	mov    -0x38(%rbp),%rdx
ffffffff8000645e:	0f b6 44 02 29       	movzbl 0x29(%rdx,%rax,1),%eax
ffffffff80006463:	0f b6 c0             	movzbl %al,%eax
ffffffff80006466:	85 c0                	test   %eax,%eax
ffffffff80006468:	74 1d                	je     ffffffff80006487 <flanterm_putchar+0x643>
ffffffff8000646a:	83 f8 01             	cmp    $0x1,%eax
ffffffff8000646d:	75 19                	jne    ffffffff80006488 <flanterm_putchar+0x644>
ffffffff8000646f:	0f b6 55 c4          	movzbl -0x3c(%rbp),%edx
ffffffff80006473:	48 8b 45 c8          	mov    -0x38(%rbp),%rax
ffffffff80006477:	89 d6                	mov    %edx,%esi
ffffffff80006479:	48 89 c7             	mov    %rax,%rdi
ffffffff8000647c:	e8 91 da ff ff       	call   ffffffff80003f12 <dec_special_print>
ffffffff80006481:	84 c0                	test   %al,%al
ffffffff80006483:	75 52                	jne    ffffffff800064d7 <flanterm_putchar+0x693>
ffffffff80006485:	eb 01                	jmp    ffffffff80006488 <flanterm_putchar+0x644>
ffffffff80006487:	90                   	nop
ffffffff80006488:	80 7d c4 1f          	cmpb   $0x1f,-0x3c(%rbp)
ffffffff8000648c:	76 22                	jbe    ffffffff800064b0 <flanterm_putchar+0x66c>
ffffffff8000648e:	80 7d c4 7e          	cmpb   $0x7e,-0x3c(%rbp)
ffffffff80006492:	77 1c                	ja     ffffffff800064b0 <flanterm_putchar+0x66c>
ffffffff80006494:	48 8b 45 c8          	mov    -0x38(%rbp),%rax
ffffffff80006498:	48 8b 88 f0 00 00 00 	mov    0xf0(%rax),%rcx
ffffffff8000649f:	0f b6 55 c4          	movzbl -0x3c(%rbp),%edx
ffffffff800064a3:	48 8b 45 c8          	mov    -0x38(%rbp),%rax
ffffffff800064a7:	89 d6                	mov    %edx,%esi
ffffffff800064a9:	48 89 c7             	mov    %rax,%rdi
ffffffff800064ac:	ff d1                	call   *%rcx
ffffffff800064ae:	eb 28                	jmp    ffffffff800064d8 <flanterm_putchar+0x694>
ffffffff800064b0:	48 8b 45 c8          	mov    -0x38(%rbp),%rax
ffffffff800064b4:	48 8b 90 f0 00 00 00 	mov    0xf0(%rax),%rdx
ffffffff800064bb:	48 8b 45 c8          	mov    -0x38(%rbp),%rax
ffffffff800064bf:	be fe 00 00 00       	mov    $0xfe,%esi
ffffffff800064c4:	48 89 c7             	mov    %rax,%rdi
ffffffff800064c7:	ff d2                	call   *%rdx
ffffffff800064c9:	eb 0d                	jmp    ffffffff800064d8 <flanterm_putchar+0x694>
ffffffff800064cb:	90                   	nop
ffffffff800064cc:	eb 0a                	jmp    ffffffff800064d8 <flanterm_putchar+0x694>
ffffffff800064ce:	90                   	nop
ffffffff800064cf:	eb 07                	jmp    ffffffff800064d8 <flanterm_putchar+0x694>
ffffffff800064d1:	90                   	nop
ffffffff800064d2:	eb 04                	jmp    ffffffff800064d8 <flanterm_putchar+0x694>
ffffffff800064d4:	90                   	nop
ffffffff800064d5:	eb 01                	jmp    ffffffff800064d8 <flanterm_putchar+0x694>
ffffffff800064d7:	90                   	nop
ffffffff800064d8:	c9                   	leave
ffffffff800064d9:	c3                   	ret

ffffffff800064da <bump_alloc>:
ffffffff800064da:	55                   	push   %rbp
ffffffff800064db:	48 89 e5             	mov    %rsp,%rbp
ffffffff800064de:	48 83 ec 18          	sub    $0x18,%rsp
ffffffff800064e2:	48 89 7d e8          	mov    %rdi,-0x18(%rbp)
ffffffff800064e6:	0f b6 05 04 de 0d 00 	movzbl 0xdde04(%rip),%eax        # ffffffff800e42f1 <base_offset_added.0>
ffffffff800064ed:	83 f0 01             	xor    $0x1,%eax
ffffffff800064f0:	84 c0                	test   %al,%al
ffffffff800064f2:	74 39                	je     ffffffff8000652d <bump_alloc+0x53>
ffffffff800064f4:	48 8d 05 c5 8b 00 00 	lea    0x8bc5(%rip),%rax        # ffffffff8000f0c0 <bump_alloc_pool>
ffffffff800064fb:	83 e0 0f             	and    $0xf,%eax
ffffffff800064fe:	48 85 c0             	test   %rax,%rax
ffffffff80006501:	74 23                	je     ffffffff80006526 <bump_alloc+0x4c>
ffffffff80006503:	48 8b 05 de dd 0d 00 	mov    0xdddde(%rip),%rax        # ffffffff800e42e8 <bump_alloc_ptr>
ffffffff8000650a:	48 8d 15 af 8b 00 00 	lea    0x8baf(%rip),%rdx        # ffffffff8000f0c0 <bump_alloc_pool>
ffffffff80006511:	83 e2 0f             	and    $0xf,%edx
ffffffff80006514:	b9 10 00 00 00       	mov    $0x10,%ecx
ffffffff80006519:	48 29 d1             	sub    %rdx,%rcx
ffffffff8000651c:	48 01 c8             	add    %rcx,%rax
ffffffff8000651f:	48 89 05 c2 dd 0d 00 	mov    %rax,0xdddc2(%rip)        # ffffffff800e42e8 <bump_alloc_ptr>
ffffffff80006526:	c6 05 c4 dd 0d 00 01 	movb   $0x1,0xdddc4(%rip)        # ffffffff800e42f1 <base_offset_added.0>
ffffffff8000652d:	48 8b 45 e8          	mov    -0x18(%rbp),%rax
ffffffff80006531:	83 e0 0f             	and    $0xf,%eax
ffffffff80006534:	48 85 c0             	test   %rax,%rax
ffffffff80006537:	74 0a                	je     ffffffff80006543 <bump_alloc+0x69>
ffffffff80006539:	48 83 45 e8 10       	addq   $0x10,-0x18(%rbp)
ffffffff8000653e:	48 83 65 e8 f0       	andq   $0xfffffffffffffff0,-0x18(%rbp)
ffffffff80006543:	48 8b 15 9e dd 0d 00 	mov    0xddd9e(%rip),%rdx        # ffffffff800e42e8 <bump_alloc_ptr>
ffffffff8000654a:	48 8b 45 e8          	mov    -0x18(%rbp),%rax
ffffffff8000654e:	48 01 d0             	add    %rdx,%rax
ffffffff80006551:	48 89 45 f8          	mov    %rax,-0x8(%rbp)
ffffffff80006555:	48 81 7d f8 28 52 0d 	cmpq   $0xd5228,-0x8(%rbp)
ffffffff8000655c:	00 
ffffffff8000655d:	76 07                	jbe    ffffffff80006566 <bump_alloc+0x8c>
ffffffff8000655f:	b8 00 00 00 00       	mov    $0x0,%eax
ffffffff80006564:	eb 24                	jmp    ffffffff8000658a <bump_alloc+0xb0>
ffffffff80006566:	48 8b 05 7b dd 0d 00 	mov    0xddd7b(%rip),%rax        # ffffffff800e42e8 <bump_alloc_ptr>
ffffffff8000656d:	48 8d 15 4c 8b 00 00 	lea    0x8b4c(%rip),%rdx        # ffffffff8000f0c0 <bump_alloc_pool>
ffffffff80006574:	48 01 d0             	add    %rdx,%rax
ffffffff80006577:	48 89 45 f0          	mov    %rax,-0x10(%rbp)
ffffffff8000657b:	48 8b 45 f8          	mov    -0x8(%rbp),%rax
ffffffff8000657f:	48 89 05 62 dd 0d 00 	mov    %rax,0xddd62(%rip)        # ffffffff800e42e8 <bump_alloc_ptr>
ffffffff80006586:	48 8b 45 f0          	mov    -0x10(%rbp),%rax
ffffffff8000658a:	c9                   	leave
ffffffff8000658b:	c3                   	ret

ffffffff8000658c <flanterm_fb_save_state>:
ffffffff8000658c:	55                   	push   %rbp
ffffffff8000658d:	48 89 e5             	mov    %rsp,%rbp
ffffffff80006590:	48 83 ec 18          	sub    $0x18,%rsp
ffffffff80006594:	48 89 7d e8          	mov    %rdi,-0x18(%rbp)
ffffffff80006598:	48 8b 45 e8          	mov    -0x18(%rbp),%rax
ffffffff8000659c:	48 89 45 f8          	mov    %rax,-0x8(%rbp)
ffffffff800065a0:	48 8b 45 f8          	mov    -0x8(%rbp),%rax
ffffffff800065a4:	8b 90 e0 02 00 00    	mov    0x2e0(%rax),%edx
ffffffff800065aa:	48 8b 45 f8          	mov    -0x8(%rbp),%rax
ffffffff800065ae:	89 90 f8 02 00 00    	mov    %edx,0x2f8(%rax)
ffffffff800065b4:	48 8b 45 f8          	mov    -0x8(%rbp),%rax
ffffffff800065b8:	8b 90 e4 02 00 00    	mov    0x2e4(%rax),%edx
ffffffff800065be:	48 8b 45 f8          	mov    -0x8(%rbp),%rax
ffffffff800065c2:	89 90 fc 02 00 00    	mov    %edx,0x2fc(%rax)
ffffffff800065c8:	48 8b 45 f8          	mov    -0x8(%rbp),%rax
ffffffff800065cc:	48 8b 90 e8 02 00 00 	mov    0x2e8(%rax),%rdx
ffffffff800065d3:	48 8b 45 f8          	mov    -0x8(%rbp),%rax
ffffffff800065d7:	48 89 90 00 03 00 00 	mov    %rdx,0x300(%rax)
ffffffff800065de:	48 8b 45 f8          	mov    -0x8(%rbp),%rax
ffffffff800065e2:	48 8b 90 f0 02 00 00 	mov    0x2f0(%rax),%rdx
ffffffff800065e9:	48 8b 45 f8          	mov    -0x8(%rbp),%rax
ffffffff800065ed:	48 89 90 08 03 00 00 	mov    %rdx,0x308(%rax)
ffffffff800065f4:	90                   	nop
ffffffff800065f5:	c9                   	leave
ffffffff800065f6:	c3                   	ret

ffffffff800065f7 <flanterm_fb_restore_state>:
ffffffff800065f7:	55                   	push   %rbp
ffffffff800065f8:	48 89 e5             	mov    %rsp,%rbp
ffffffff800065fb:	48 83 ec 18          	sub    $0x18,%rsp
ffffffff800065ff:	48 89 7d e8          	mov    %rdi,-0x18(%rbp)
ffffffff80006603:	48 8b 45 e8          	mov    -0x18(%rbp),%rax
ffffffff80006607:	48 89 45 f8          	mov    %rax,-0x8(%rbp)
ffffffff8000660b:	48 8b 45 f8          	mov    -0x8(%rbp),%rax
ffffffff8000660f:	8b 90 f8 02 00 00    	mov    0x2f8(%rax),%edx
ffffffff80006615:	48 8b 45 f8          	mov    -0x8(%rbp),%rax
ffffffff80006619:	89 90 e0 02 00 00    	mov    %edx,0x2e0(%rax)
ffffffff8000661f:	48 8b 45 f8          	mov    -0x8(%rbp),%rax
ffffffff80006623:	8b 90 fc 02 00 00    	mov    0x2fc(%rax),%edx
ffffffff80006629:	48 8b 45 f8          	mov    -0x8(%rbp),%rax
ffffffff8000662d:	89 90 e4 02 00 00    	mov    %edx,0x2e4(%rax)
ffffffff80006633:	48 8b 45 f8          	mov    -0x8(%rbp),%rax
ffffffff80006637:	48 8b 90 00 03 00 00 	mov    0x300(%rax),%rdx
ffffffff8000663e:	48 8b 45 f8          	mov    -0x8(%rbp),%rax
ffffffff80006642:	48 89 90 e8 02 00 00 	mov    %rdx,0x2e8(%rax)
ffffffff80006649:	48 8b 45 f8          	mov    -0x8(%rbp),%rax
ffffffff8000664d:	48 8b 90 08 03 00 00 	mov    0x308(%rax),%rdx
ffffffff80006654:	48 8b 45 f8          	mov    -0x8(%rbp),%rax
ffffffff80006658:	48 89 90 f0 02 00 00 	mov    %rdx,0x2f0(%rax)
ffffffff8000665f:	90                   	nop
ffffffff80006660:	c9                   	leave
ffffffff80006661:	c3                   	ret

ffffffff80006662 <flanterm_fb_swap_palette>:
ffffffff80006662:	55                   	push   %rbp
ffffffff80006663:	48 89 e5             	mov    %rsp,%rbp
ffffffff80006666:	48 83 ec 18          	sub    $0x18,%rsp
ffffffff8000666a:	48 89 7d e8          	mov    %rdi,-0x18(%rbp)
ffffffff8000666e:	48 8b 45 e8          	mov    -0x18(%rbp),%rax
ffffffff80006672:	48 89 45 f8          	mov    %rax,-0x8(%rbp)
ffffffff80006676:	48 8b 45 f8          	mov    -0x8(%rbp),%rax
ffffffff8000667a:	8b 80 e4 02 00 00    	mov    0x2e4(%rax),%eax
ffffffff80006680:	89 45 f4             	mov    %eax,-0xc(%rbp)
ffffffff80006683:	48 8b 45 f8          	mov    -0x8(%rbp),%rax
ffffffff80006687:	8b 90 e0 02 00 00    	mov    0x2e0(%rax),%edx
ffffffff8000668d:	48 8b 45 f8          	mov    -0x8(%rbp),%rax
ffffffff80006691:	89 90 e4 02 00 00    	mov    %edx,0x2e4(%rax)
ffffffff80006697:	48 8b 45 f8          	mov    -0x8(%rbp),%rax
ffffffff8000669b:	8b 55 f4             	mov    -0xc(%rbp),%edx
ffffffff8000669e:	89 90 e0 02 00 00    	mov    %edx,0x2e0(%rax)
ffffffff800066a4:	90                   	nop
ffffffff800066a5:	c9                   	leave
ffffffff800066a6:	c3                   	ret

ffffffff800066a7 <plot_char_scaled_canvas>:
ffffffff800066a7:	55                   	push   %rbp
ffffffff800066a8:	48 89 e5             	mov    %rsp,%rbp
ffffffff800066ab:	48 83 c4 80          	add    $0xffffffffffffff80,%rsp
ffffffff800066af:	48 89 7d 98          	mov    %rdi,-0x68(%rbp)
ffffffff800066b3:	48 89 75 90          	mov    %rsi,-0x70(%rbp)
ffffffff800066b7:	48 89 55 88          	mov    %rdx,-0x78(%rbp)
ffffffff800066bb:	48 89 4d 80          	mov    %rcx,-0x80(%rbp)
ffffffff800066bf:	48 8b 45 98          	mov    -0x68(%rbp),%rax
ffffffff800066c3:	48 89 45 d0          	mov    %rax,-0x30(%rbp)
ffffffff800066c7:	48 8b 45 98          	mov    -0x68(%rbp),%rax
ffffffff800066cb:	48 8b 80 e8 00 00 00 	mov    0xe8(%rax),%rax
ffffffff800066d2:	48 39 45 88          	cmp    %rax,-0x78(%rbp)
ffffffff800066d6:	0f 83 5d 02 00 00    	jae    ffffffff80006939 <plot_char_scaled_canvas+0x292>
ffffffff800066dc:	48 8b 45 98          	mov    -0x68(%rbp),%rax
ffffffff800066e0:	48 8b 80 e0 00 00 00 	mov    0xe0(%rax),%rax
ffffffff800066e7:	48 39 45 80          	cmp    %rax,-0x80(%rbp)
ffffffff800066eb:	0f 83 48 02 00 00    	jae    ffffffff80006939 <plot_char_scaled_canvas+0x292>
ffffffff800066f1:	48 8b 45 d0          	mov    -0x30(%rbp),%rax
ffffffff800066f5:	48 8b 90 e8 01 00 00 	mov    0x1e8(%rax),%rdx
ffffffff800066fc:	48 8b 45 d0          	mov    -0x30(%rbp),%rax
ffffffff80006700:	48 8b 80 c8 01 00 00 	mov    0x1c8(%rax),%rax
ffffffff80006707:	48 0f af 45 88       	imul   -0x78(%rbp),%rax
ffffffff8000670c:	48 01 d0             	add    %rdx,%rax
ffffffff8000670f:	48 89 45 88          	mov    %rax,-0x78(%rbp)
ffffffff80006713:	48 8b 45 d0          	mov    -0x30(%rbp),%rax
ffffffff80006717:	48 8b 90 f0 01 00 00 	mov    0x1f0(%rax),%rdx
ffffffff8000671e:	48 8b 45 d0          	mov    -0x30(%rbp),%rax
ffffffff80006722:	48 8b 80 d0 01 00 00 	mov    0x1d0(%rax),%rax
ffffffff80006729:	48 0f af 45 80       	imul   -0x80(%rbp),%rax
ffffffff8000672e:	48 01 d0             	add    %rdx,%rax
ffffffff80006731:	48 89 45 80          	mov    %rax,-0x80(%rbp)
ffffffff80006735:	48 8b 45 d0          	mov    -0x30(%rbp),%rax
ffffffff80006739:	48 8b 88 40 02 00 00 	mov    0x240(%rax),%rcx
ffffffff80006740:	48 8b 45 90          	mov    -0x70(%rbp),%rax
ffffffff80006744:	8b 00                	mov    (%rax),%eax
ffffffff80006746:	89 c2                	mov    %eax,%edx
ffffffff80006748:	48 8b 45 d0          	mov    -0x30(%rbp),%rax
ffffffff8000674c:	48 8b 80 c0 01 00 00 	mov    0x1c0(%rax),%rax
ffffffff80006753:	48 0f af d0          	imul   %rax,%rdx
ffffffff80006757:	48 8b 45 d0          	mov    -0x30(%rbp),%rax
ffffffff8000675b:	48 8b 80 b8 01 00 00 	mov    0x1b8(%rax),%rax
ffffffff80006762:	48 0f af c2          	imul   %rdx,%rax
ffffffff80006766:	48 01 c8             	add    %rcx,%rax
ffffffff80006769:	48 89 45 c8          	mov    %rax,-0x38(%rbp)
ffffffff8000676d:	48 c7 45 f8 00 00 00 	movq   $0x0,-0x8(%rbp)
ffffffff80006774:	00 
ffffffff80006775:	e9 a8 01 00 00       	jmp    ffffffff80006922 <plot_char_scaled_canvas+0x27b>
ffffffff8000677a:	48 8b 45 d0          	mov    -0x30(%rbp),%rax
ffffffff8000677e:	48 8b b0 e0 01 00 00 	mov    0x1e0(%rax),%rsi
ffffffff80006785:	48 8b 45 f8          	mov    -0x8(%rbp),%rax
ffffffff80006789:	ba 00 00 00 00       	mov    $0x0,%edx
ffffffff8000678e:	48 f7 f6             	div    %rsi
ffffffff80006791:	88 45 c7             	mov    %al,-0x39(%rbp)
ffffffff80006794:	48 8b 45 d0          	mov    -0x30(%rbp),%rax
ffffffff80006798:	48 8b 90 f8 01 00 00 	mov    0x1f8(%rax),%rdx
ffffffff8000679f:	48 8b 4d 80          	mov    -0x80(%rbp),%rcx
ffffffff800067a3:	48 8b 45 f8          	mov    -0x8(%rbp),%rax
ffffffff800067a7:	48 01 c1             	add    %rax,%rcx
ffffffff800067aa:	48 8b 45 d0          	mov    -0x30(%rbp),%rax
ffffffff800067ae:	48 8b 80 00 02 00 00 	mov    0x200(%rax),%rax
ffffffff800067b5:	48 c1 e8 02          	shr    $0x2,%rax
ffffffff800067b9:	48 0f af c8          	imul   %rax,%rcx
ffffffff800067bd:	48 8b 45 88          	mov    -0x78(%rbp),%rax
ffffffff800067c1:	48 01 c8             	add    %rcx,%rax
ffffffff800067c4:	48 c1 e0 02          	shl    $0x2,%rax
ffffffff800067c8:	48 01 d0             	add    %rdx,%rax
ffffffff800067cb:	48 89 45 b8          	mov    %rax,-0x48(%rbp)
ffffffff800067cf:	48 8b 45 d0          	mov    -0x30(%rbp),%rax
ffffffff800067d3:	48 8b 90 a0 02 00 00 	mov    0x2a0(%rax),%rdx
ffffffff800067da:	48 8b 4d 80          	mov    -0x80(%rbp),%rcx
ffffffff800067de:	48 8b 45 f8          	mov    -0x8(%rbp),%rax
ffffffff800067e2:	48 01 c1             	add    %rax,%rcx
ffffffff800067e5:	48 8b 45 d0          	mov    -0x30(%rbp),%rax
ffffffff800067e9:	48 8b 80 08 02 00 00 	mov    0x208(%rax),%rax
ffffffff800067f0:	48 0f af c8          	imul   %rax,%rcx
ffffffff800067f4:	48 8b 45 88          	mov    -0x78(%rbp),%rax
ffffffff800067f8:	48 01 c8             	add    %rcx,%rax
ffffffff800067fb:	48 c1 e0 02          	shl    $0x2,%rax
ffffffff800067ff:	48 01 d0             	add    %rdx,%rax
ffffffff80006802:	48 89 45 b0          	mov    %rax,-0x50(%rbp)
ffffffff80006806:	0f b6 55 c7          	movzbl -0x39(%rbp),%edx
ffffffff8000680a:	48 8b 45 d0          	mov    -0x30(%rbp),%rax
ffffffff8000680e:	48 8b 80 b8 01 00 00 	mov    0x1b8(%rax),%rax
ffffffff80006815:	48 0f af d0          	imul   %rax,%rdx
ffffffff80006819:	48 8b 45 c8          	mov    -0x38(%rbp),%rax
ffffffff8000681d:	48 01 d0             	add    %rdx,%rax
ffffffff80006820:	48 89 45 f0          	mov    %rax,-0x10(%rbp)
ffffffff80006824:	48 c7 45 e8 00 00 00 	movq   $0x0,-0x18(%rbp)
ffffffff8000682b:	00 
ffffffff8000682c:	e9 d7 00 00 00       	jmp    ffffffff80006908 <plot_char_scaled_canvas+0x261>
ffffffff80006831:	48 c7 45 e0 00 00 00 	movq   $0x0,-0x20(%rbp)
ffffffff80006838:	00 
ffffffff80006839:	e9 ab 00 00 00       	jmp    ffffffff800068e9 <plot_char_scaled_canvas+0x242>
ffffffff8000683e:	48 8b 45 d0          	mov    -0x30(%rbp),%rax
ffffffff80006842:	48 8b 80 d8 01 00 00 	mov    0x1d8(%rax),%rax
ffffffff80006849:	48 0f af 45 e8       	imul   -0x18(%rbp),%rax
ffffffff8000684e:	48 89 c2             	mov    %rax,%rdx
ffffffff80006851:	48 8b 45 e0          	mov    -0x20(%rbp),%rax
ffffffff80006855:	48 01 d0             	add    %rdx,%rax
ffffffff80006858:	48 89 45 a8          	mov    %rax,-0x58(%rbp)
ffffffff8000685c:	48 8b 45 90          	mov    -0x70(%rbp),%rax
ffffffff80006860:	8b 40 08             	mov    0x8(%rax),%eax
ffffffff80006863:	83 f8 ff             	cmp    $0xffffffff,%eax
ffffffff80006866:	75 1a                	jne    ffffffff80006882 <plot_char_scaled_canvas+0x1db>
ffffffff80006868:	48 8b 45 a8          	mov    -0x58(%rbp),%rax
ffffffff8000686c:	48 8d 14 85 00 00 00 	lea    0x0(,%rax,4),%rdx
ffffffff80006873:	00 
ffffffff80006874:	48 8b 45 b0          	mov    -0x50(%rbp),%rax
ffffffff80006878:	48 01 d0             	add    %rdx,%rax
ffffffff8000687b:	8b 00                	mov    (%rax),%eax
ffffffff8000687d:	89 45 dc             	mov    %eax,-0x24(%rbp)
ffffffff80006880:	eb 0a                	jmp    ffffffff8000688c <plot_char_scaled_canvas+0x1e5>
ffffffff80006882:	48 8b 45 90          	mov    -0x70(%rbp),%rax
ffffffff80006886:	8b 40 08             	mov    0x8(%rax),%eax
ffffffff80006889:	89 45 dc             	mov    %eax,-0x24(%rbp)
ffffffff8000688c:	48 8b 45 90          	mov    -0x70(%rbp),%rax
ffffffff80006890:	8b 40 04             	mov    0x4(%rax),%eax
ffffffff80006893:	83 f8 ff             	cmp    $0xffffffff,%eax
ffffffff80006896:	75 1a                	jne    ffffffff800068b2 <plot_char_scaled_canvas+0x20b>
ffffffff80006898:	48 8b 45 a8          	mov    -0x58(%rbp),%rax
ffffffff8000689c:	48 8d 14 85 00 00 00 	lea    0x0(,%rax,4),%rdx
ffffffff800068a3:	00 
ffffffff800068a4:	48 8b 45 b0          	mov    -0x50(%rbp),%rax
ffffffff800068a8:	48 01 d0             	add    %rdx,%rax
ffffffff800068ab:	8b 00                	mov    (%rax),%eax
ffffffff800068ad:	89 45 d8             	mov    %eax,-0x28(%rbp)
ffffffff800068b0:	eb 0a                	jmp    ffffffff800068bc <plot_char_scaled_canvas+0x215>
ffffffff800068b2:	48 8b 45 90          	mov    -0x70(%rbp),%rax
ffffffff800068b6:	8b 40 04             	mov    0x4(%rax),%eax
ffffffff800068b9:	89 45 d8             	mov    %eax,-0x28(%rbp)
ffffffff800068bc:	48 8b 45 f0          	mov    -0x10(%rbp),%rax
ffffffff800068c0:	0f b6 00             	movzbl (%rax),%eax
ffffffff800068c3:	84 c0                	test   %al,%al
ffffffff800068c5:	74 05                	je     ffffffff800068cc <plot_char_scaled_canvas+0x225>
ffffffff800068c7:	8b 45 d8             	mov    -0x28(%rbp),%eax
ffffffff800068ca:	eb 03                	jmp    ffffffff800068cf <plot_char_scaled_canvas+0x228>
ffffffff800068cc:	8b 45 dc             	mov    -0x24(%rbp),%eax
ffffffff800068cf:	48 8b 55 a8          	mov    -0x58(%rbp),%rdx
ffffffff800068d3:	48 8d 0c 95 00 00 00 	lea    0x0(,%rdx,4),%rcx
ffffffff800068da:	00 
ffffffff800068db:	48 8b 55 b8          	mov    -0x48(%rbp),%rdx
ffffffff800068df:	48 01 ca             	add    %rcx,%rdx
ffffffff800068e2:	89 02                	mov    %eax,(%rdx)
ffffffff800068e4:	48 83 45 e0 01       	addq   $0x1,-0x20(%rbp)
ffffffff800068e9:	48 8b 45 d0          	mov    -0x30(%rbp),%rax
ffffffff800068ed:	48 8b 80 d8 01 00 00 	mov    0x1d8(%rax),%rax
ffffffff800068f4:	48 39 45 e0          	cmp    %rax,-0x20(%rbp)
ffffffff800068f8:	0f 82 40 ff ff ff    	jb     ffffffff8000683e <plot_char_scaled_canvas+0x197>
ffffffff800068fe:	48 83 45 f0 01       	addq   $0x1,-0x10(%rbp)
ffffffff80006903:	48 83 45 e8 01       	addq   $0x1,-0x18(%rbp)
ffffffff80006908:	48 8b 45 d0          	mov    -0x30(%rbp),%rax
ffffffff8000690c:	48 8b 80 b8 01 00 00 	mov    0x1b8(%rax),%rax
ffffffff80006913:	48 39 45 e8          	cmp    %rax,-0x18(%rbp)
ffffffff80006917:	0f 82 14 ff ff ff    	jb     ffffffff80006831 <plot_char_scaled_canvas+0x18a>
ffffffff8000691d:	48 83 45 f8 01       	addq   $0x1,-0x8(%rbp)
ffffffff80006922:	48 8b 45 d0          	mov    -0x30(%rbp),%rax
ffffffff80006926:	48 8b 80 d0 01 00 00 	mov    0x1d0(%rax),%rax
ffffffff8000692d:	48 39 45 f8          	cmp    %rax,-0x8(%rbp)
ffffffff80006931:	0f 82 43 fe ff ff    	jb     ffffffff8000677a <plot_char_scaled_canvas+0xd3>
ffffffff80006937:	eb 01                	jmp    ffffffff8000693a <plot_char_scaled_canvas+0x293>
ffffffff80006939:	90                   	nop
ffffffff8000693a:	c9                   	leave
ffffffff8000693b:	c3                   	ret

ffffffff8000693c <plot_char_scaled_uncanvas>:
ffffffff8000693c:	55                   	push   %rbp
ffffffff8000693d:	48 89 e5             	mov    %rsp,%rbp
ffffffff80006940:	48 83 c4 80          	add    $0xffffffffffffff80,%rsp
ffffffff80006944:	48 89 7d 98          	mov    %rdi,-0x68(%rbp)
ffffffff80006948:	48 89 75 90          	mov    %rsi,-0x70(%rbp)
ffffffff8000694c:	48 89 55 88          	mov    %rdx,-0x78(%rbp)
ffffffff80006950:	48 89 4d 80          	mov    %rcx,-0x80(%rbp)
ffffffff80006954:	48 8b 45 98          	mov    -0x68(%rbp),%rax
ffffffff80006958:	48 89 45 d0          	mov    %rax,-0x30(%rbp)
ffffffff8000695c:	48 8b 45 98          	mov    -0x68(%rbp),%rax
ffffffff80006960:	48 8b 80 e8 00 00 00 	mov    0xe8(%rax),%rax
ffffffff80006967:	48 39 45 88          	cmp    %rax,-0x78(%rbp)
ffffffff8000696b:	0f 83 05 02 00 00    	jae    ffffffff80006b76 <plot_char_scaled_uncanvas+0x23a>
ffffffff80006971:	48 8b 45 98          	mov    -0x68(%rbp),%rax
ffffffff80006975:	48 8b 80 e0 00 00 00 	mov    0xe0(%rax),%rax
ffffffff8000697c:	48 39 45 80          	cmp    %rax,-0x80(%rbp)
ffffffff80006980:	0f 83 f0 01 00 00    	jae    ffffffff80006b76 <plot_char_scaled_uncanvas+0x23a>
ffffffff80006986:	48 8b 45 d0          	mov    -0x30(%rbp),%rax
ffffffff8000698a:	8b 80 8c 02 00 00    	mov    0x28c(%rax),%eax
ffffffff80006990:	89 45 cc             	mov    %eax,-0x34(%rbp)
ffffffff80006993:	48 8b 45 90          	mov    -0x70(%rbp),%rax
ffffffff80006997:	8b 40 08             	mov    0x8(%rax),%eax
ffffffff8000699a:	83 f8 ff             	cmp    $0xffffffff,%eax
ffffffff8000699d:	74 0c                	je     ffffffff800069ab <plot_char_scaled_uncanvas+0x6f>
ffffffff8000699f:	48 8b 45 90          	mov    -0x70(%rbp),%rax
ffffffff800069a3:	8b 40 08             	mov    0x8(%rax),%eax
ffffffff800069a6:	89 45 fc             	mov    %eax,-0x4(%rbp)
ffffffff800069a9:	eb 06                	jmp    ffffffff800069b1 <plot_char_scaled_uncanvas+0x75>
ffffffff800069ab:	8b 45 cc             	mov    -0x34(%rbp),%eax
ffffffff800069ae:	89 45 fc             	mov    %eax,-0x4(%rbp)
ffffffff800069b1:	48 8b 45 90          	mov    -0x70(%rbp),%rax
ffffffff800069b5:	8b 40 04             	mov    0x4(%rax),%eax
ffffffff800069b8:	83 f8 ff             	cmp    $0xffffffff,%eax
ffffffff800069bb:	74 0c                	je     ffffffff800069c9 <plot_char_scaled_uncanvas+0x8d>
ffffffff800069bd:	48 8b 45 90          	mov    -0x70(%rbp),%rax
ffffffff800069c1:	8b 40 04             	mov    0x4(%rax),%eax
ffffffff800069c4:	89 45 f8             	mov    %eax,-0x8(%rbp)
ffffffff800069c7:	eb 06                	jmp    ffffffff800069cf <plot_char_scaled_uncanvas+0x93>
ffffffff800069c9:	8b 45 cc             	mov    -0x34(%rbp),%eax
ffffffff800069cc:	89 45 f8             	mov    %eax,-0x8(%rbp)
ffffffff800069cf:	48 8b 45 d0          	mov    -0x30(%rbp),%rax
ffffffff800069d3:	48 8b 90 e8 01 00 00 	mov    0x1e8(%rax),%rdx
ffffffff800069da:	48 8b 45 d0          	mov    -0x30(%rbp),%rax
ffffffff800069de:	48 8b 80 c8 01 00 00 	mov    0x1c8(%rax),%rax
ffffffff800069e5:	48 0f af 45 88       	imul   -0x78(%rbp),%rax
ffffffff800069ea:	48 01 d0             	add    %rdx,%rax
ffffffff800069ed:	48 89 45 88          	mov    %rax,-0x78(%rbp)
ffffffff800069f1:	48 8b 45 d0          	mov    -0x30(%rbp),%rax
ffffffff800069f5:	48 8b 90 f0 01 00 00 	mov    0x1f0(%rax),%rdx
ffffffff800069fc:	48 8b 45 d0          	mov    -0x30(%rbp),%rax
ffffffff80006a00:	48 8b 80 d0 01 00 00 	mov    0x1d0(%rax),%rax
ffffffff80006a07:	48 0f af 45 80       	imul   -0x80(%rbp),%rax
ffffffff80006a0c:	48 01 d0             	add    %rdx,%rax
ffffffff80006a0f:	48 89 45 80          	mov    %rax,-0x80(%rbp)
ffffffff80006a13:	48 8b 45 d0          	mov    -0x30(%rbp),%rax
ffffffff80006a17:	48 8b 88 40 02 00 00 	mov    0x240(%rax),%rcx
ffffffff80006a1e:	48 8b 45 90          	mov    -0x70(%rbp),%rax
ffffffff80006a22:	8b 00                	mov    (%rax),%eax
ffffffff80006a24:	89 c2                	mov    %eax,%edx
ffffffff80006a26:	48 8b 45 d0          	mov    -0x30(%rbp),%rax
ffffffff80006a2a:	48 8b 80 c0 01 00 00 	mov    0x1c0(%rax),%rax
ffffffff80006a31:	48 0f af d0          	imul   %rax,%rdx
ffffffff80006a35:	48 8b 45 d0          	mov    -0x30(%rbp),%rax
ffffffff80006a39:	48 8b 80 b8 01 00 00 	mov    0x1b8(%rax),%rax
ffffffff80006a40:	48 0f af c2          	imul   %rdx,%rax
ffffffff80006a44:	48 01 c8             	add    %rcx,%rax
ffffffff80006a47:	48 89 45 c0          	mov    %rax,-0x40(%rbp)
ffffffff80006a4b:	48 c7 45 f0 00 00 00 	movq   $0x0,-0x10(%rbp)
ffffffff80006a52:	00 
ffffffff80006a53:	e9 07 01 00 00       	jmp    ffffffff80006b5f <plot_char_scaled_uncanvas+0x223>
ffffffff80006a58:	48 8b 45 d0          	mov    -0x30(%rbp),%rax
ffffffff80006a5c:	48 8b b0 e0 01 00 00 	mov    0x1e0(%rax),%rsi
ffffffff80006a63:	48 8b 45 f0          	mov    -0x10(%rbp),%rax
ffffffff80006a67:	ba 00 00 00 00       	mov    $0x0,%edx
ffffffff80006a6c:	48 f7 f6             	div    %rsi
ffffffff80006a6f:	88 45 bf             	mov    %al,-0x41(%rbp)
ffffffff80006a72:	48 8b 45 d0          	mov    -0x30(%rbp),%rax
ffffffff80006a76:	48 8b 90 f8 01 00 00 	mov    0x1f8(%rax),%rdx
ffffffff80006a7d:	48 8b 4d 80          	mov    -0x80(%rbp),%rcx
ffffffff80006a81:	48 8b 45 f0          	mov    -0x10(%rbp),%rax
ffffffff80006a85:	48 01 c1             	add    %rax,%rcx
ffffffff80006a88:	48 8b 45 d0          	mov    -0x30(%rbp),%rax
ffffffff80006a8c:	48 8b 80 00 02 00 00 	mov    0x200(%rax),%rax
ffffffff80006a93:	48 c1 e8 02          	shr    $0x2,%rax
ffffffff80006a97:	48 0f af c8          	imul   %rax,%rcx
ffffffff80006a9b:	48 8b 45 88          	mov    -0x78(%rbp),%rax
ffffffff80006a9f:	48 01 c8             	add    %rcx,%rax
ffffffff80006aa2:	48 c1 e0 02          	shl    $0x2,%rax
ffffffff80006aa6:	48 01 d0             	add    %rdx,%rax
ffffffff80006aa9:	48 89 45 b0          	mov    %rax,-0x50(%rbp)
ffffffff80006aad:	0f b6 55 bf          	movzbl -0x41(%rbp),%edx
ffffffff80006ab1:	48 8b 45 d0          	mov    -0x30(%rbp),%rax
ffffffff80006ab5:	48 8b 80 b8 01 00 00 	mov    0x1b8(%rax),%rax
ffffffff80006abc:	48 0f af d0          	imul   %rax,%rdx
ffffffff80006ac0:	48 8b 45 c0          	mov    -0x40(%rbp),%rax
ffffffff80006ac4:	48 01 d0             	add    %rdx,%rax
ffffffff80006ac7:	48 89 45 e8          	mov    %rax,-0x18(%rbp)
ffffffff80006acb:	48 c7 45 e0 00 00 00 	movq   $0x0,-0x20(%rbp)
ffffffff80006ad2:	00 
ffffffff80006ad3:	eb 70                	jmp    ffffffff80006b45 <plot_char_scaled_uncanvas+0x209>
ffffffff80006ad5:	48 c7 45 d8 00 00 00 	movq   $0x0,-0x28(%rbp)
ffffffff80006adc:	00 
ffffffff80006add:	eb 4b                	jmp    ffffffff80006b2a <plot_char_scaled_uncanvas+0x1ee>
ffffffff80006adf:	48 8b 45 d0          	mov    -0x30(%rbp),%rax
ffffffff80006ae3:	48 8b 80 d8 01 00 00 	mov    0x1d8(%rax),%rax
ffffffff80006aea:	48 0f af 45 e0       	imul   -0x20(%rbp),%rax
ffffffff80006aef:	48 89 c2             	mov    %rax,%rdx
ffffffff80006af2:	48 8b 45 d8          	mov    -0x28(%rbp),%rax
ffffffff80006af6:	48 01 d0             	add    %rdx,%rax
ffffffff80006af9:	48 89 45 a8          	mov    %rax,-0x58(%rbp)
ffffffff80006afd:	48 8b 45 e8          	mov    -0x18(%rbp),%rax
ffffffff80006b01:	0f b6 00             	movzbl (%rax),%eax
ffffffff80006b04:	84 c0                	test   %al,%al
ffffffff80006b06:	74 05                	je     ffffffff80006b0d <plot_char_scaled_uncanvas+0x1d1>
ffffffff80006b08:	8b 45 f8             	mov    -0x8(%rbp),%eax
ffffffff80006b0b:	eb 03                	jmp    ffffffff80006b10 <plot_char_scaled_uncanvas+0x1d4>
ffffffff80006b0d:	8b 45 fc             	mov    -0x4(%rbp),%eax
ffffffff80006b10:	48 8b 55 a8          	mov    -0x58(%rbp),%rdx
ffffffff80006b14:	48 8d 0c 95 00 00 00 	lea    0x0(,%rdx,4),%rcx
ffffffff80006b1b:	00 
ffffffff80006b1c:	48 8b 55 b0          	mov    -0x50(%rbp),%rdx
ffffffff80006b20:	48 01 ca             	add    %rcx,%rdx
ffffffff80006b23:	89 02                	mov    %eax,(%rdx)
ffffffff80006b25:	48 83 45 d8 01       	addq   $0x1,-0x28(%rbp)
ffffffff80006b2a:	48 8b 45 d0          	mov    -0x30(%rbp),%rax
ffffffff80006b2e:	48 8b 80 d8 01 00 00 	mov    0x1d8(%rax),%rax
ffffffff80006b35:	48 39 45 d8          	cmp    %rax,-0x28(%rbp)
ffffffff80006b39:	72 a4                	jb     ffffffff80006adf <plot_char_scaled_uncanvas+0x1a3>
ffffffff80006b3b:	48 83 45 e8 01       	addq   $0x1,-0x18(%rbp)
ffffffff80006b40:	48 83 45 e0 01       	addq   $0x1,-0x20(%rbp)
ffffffff80006b45:	48 8b 45 d0          	mov    -0x30(%rbp),%rax
ffffffff80006b49:	48 8b 80 b8 01 00 00 	mov    0x1b8(%rax),%rax
ffffffff80006b50:	48 39 45 e0          	cmp    %rax,-0x20(%rbp)
ffffffff80006b54:	0f 82 7b ff ff ff    	jb     ffffffff80006ad5 <plot_char_scaled_uncanvas+0x199>
ffffffff80006b5a:	48 83 45 f0 01       	addq   $0x1,-0x10(%rbp)
ffffffff80006b5f:	48 8b 45 d0          	mov    -0x30(%rbp),%rax
ffffffff80006b63:	48 8b 80 d0 01 00 00 	mov    0x1d0(%rax),%rax
ffffffff80006b6a:	48 39 45 f0          	cmp    %rax,-0x10(%rbp)
ffffffff80006b6e:	0f 82 e4 fe ff ff    	jb     ffffffff80006a58 <plot_char_scaled_uncanvas+0x11c>
ffffffff80006b74:	eb 01                	jmp    ffffffff80006b77 <plot_char_scaled_uncanvas+0x23b>
ffffffff80006b76:	90                   	nop
ffffffff80006b77:	c9                   	leave
ffffffff80006b78:	c3                   	ret

ffffffff80006b79 <plot_char_unscaled_canvas>:
ffffffff80006b79:	55                   	push   %rbp
ffffffff80006b7a:	48 89 e5             	mov    %rsp,%rbp
ffffffff80006b7d:	48 83 ec 60          	sub    $0x60,%rsp
ffffffff80006b81:	48 89 7d b8          	mov    %rdi,-0x48(%rbp)
ffffffff80006b85:	48 89 75 b0          	mov    %rsi,-0x50(%rbp)
ffffffff80006b89:	48 89 55 a8          	mov    %rdx,-0x58(%rbp)
ffffffff80006b8d:	48 89 4d a0          	mov    %rcx,-0x60(%rbp)
ffffffff80006b91:	48 8b 45 b8          	mov    -0x48(%rbp),%rax
ffffffff80006b95:	48 89 45 d8          	mov    %rax,-0x28(%rbp)
ffffffff80006b99:	48 8b 45 b8          	mov    -0x48(%rbp),%rax
ffffffff80006b9d:	48 8b 80 e8 00 00 00 	mov    0xe8(%rax),%rax
ffffffff80006ba4:	48 39 45 a8          	cmp    %rax,-0x58(%rbp)
ffffffff80006ba8:	0f 83 01 02 00 00    	jae    ffffffff80006daf <plot_char_unscaled_canvas+0x236>
ffffffff80006bae:	48 8b 45 b8          	mov    -0x48(%rbp),%rax
ffffffff80006bb2:	48 8b 80 e0 00 00 00 	mov    0xe0(%rax),%rax
ffffffff80006bb9:	48 39 45 a0          	cmp    %rax,-0x60(%rbp)
ffffffff80006bbd:	0f 83 ec 01 00 00    	jae    ffffffff80006daf <plot_char_unscaled_canvas+0x236>
ffffffff80006bc3:	48 8b 45 d8          	mov    -0x28(%rbp),%rax
ffffffff80006bc7:	48 8b 90 e8 01 00 00 	mov    0x1e8(%rax),%rdx
ffffffff80006bce:	48 8b 45 d8          	mov    -0x28(%rbp),%rax
ffffffff80006bd2:	48 8b 80 c8 01 00 00 	mov    0x1c8(%rax),%rax
ffffffff80006bd9:	48 0f af 45 a8       	imul   -0x58(%rbp),%rax
ffffffff80006bde:	48 01 d0             	add    %rdx,%rax
ffffffff80006be1:	48 89 45 a8          	mov    %rax,-0x58(%rbp)
ffffffff80006be5:	48 8b 45 d8          	mov    -0x28(%rbp),%rax
ffffffff80006be9:	48 8b 90 f0 01 00 00 	mov    0x1f0(%rax),%rdx
ffffffff80006bf0:	48 8b 45 d8          	mov    -0x28(%rbp),%rax
ffffffff80006bf4:	48 8b 80 d0 01 00 00 	mov    0x1d0(%rax),%rax
ffffffff80006bfb:	48 0f af 45 a0       	imul   -0x60(%rbp),%rax
ffffffff80006c00:	48 01 d0             	add    %rdx,%rax
ffffffff80006c03:	48 89 45 a0          	mov    %rax,-0x60(%rbp)
ffffffff80006c07:	48 8b 45 d8          	mov    -0x28(%rbp),%rax
ffffffff80006c0b:	48 8b 88 40 02 00 00 	mov    0x240(%rax),%rcx
ffffffff80006c12:	48 8b 45 b0          	mov    -0x50(%rbp),%rax
ffffffff80006c16:	8b 00                	mov    (%rax),%eax
ffffffff80006c18:	89 c2                	mov    %eax,%edx
ffffffff80006c1a:	48 8b 45 d8          	mov    -0x28(%rbp),%rax
ffffffff80006c1e:	48 8b 80 c0 01 00 00 	mov    0x1c0(%rax),%rax
ffffffff80006c25:	48 0f af d0          	imul   %rax,%rdx
ffffffff80006c29:	48 8b 45 d8          	mov    -0x28(%rbp),%rax
ffffffff80006c2d:	48 8b 80 b8 01 00 00 	mov    0x1b8(%rax),%rax
ffffffff80006c34:	48 0f af c2          	imul   %rdx,%rax
ffffffff80006c38:	48 01 c8             	add    %rcx,%rax
ffffffff80006c3b:	48 89 45 d0          	mov    %rax,-0x30(%rbp)
ffffffff80006c3f:	48 c7 45 f8 00 00 00 	movq   $0x0,-0x8(%rbp)
ffffffff80006c46:	00 
ffffffff80006c47:	e9 4c 01 00 00       	jmp    ffffffff80006d98 <plot_char_unscaled_canvas+0x21f>
ffffffff80006c4c:	48 8b 45 d8          	mov    -0x28(%rbp),%rax
ffffffff80006c50:	48 8b 90 f8 01 00 00 	mov    0x1f8(%rax),%rdx
ffffffff80006c57:	48 8b 4d a0          	mov    -0x60(%rbp),%rcx
ffffffff80006c5b:	48 8b 45 f8          	mov    -0x8(%rbp),%rax
ffffffff80006c5f:	48 01 c1             	add    %rax,%rcx
ffffffff80006c62:	48 8b 45 d8          	mov    -0x28(%rbp),%rax
ffffffff80006c66:	48 8b 80 00 02 00 00 	mov    0x200(%rax),%rax
ffffffff80006c6d:	48 c1 e8 02          	shr    $0x2,%rax
ffffffff80006c71:	48 0f af c8          	imul   %rax,%rcx
ffffffff80006c75:	48 8b 45 a8          	mov    -0x58(%rbp),%rax
ffffffff80006c79:	48 01 c8             	add    %rcx,%rax
ffffffff80006c7c:	48 c1 e0 02          	shl    $0x2,%rax
ffffffff80006c80:	48 01 d0             	add    %rdx,%rax
ffffffff80006c83:	48 89 45 c8          	mov    %rax,-0x38(%rbp)
ffffffff80006c87:	48 8b 45 d8          	mov    -0x28(%rbp),%rax
ffffffff80006c8b:	48 8b 90 a0 02 00 00 	mov    0x2a0(%rax),%rdx
ffffffff80006c92:	48 8b 4d a0          	mov    -0x60(%rbp),%rcx
ffffffff80006c96:	48 8b 45 f8          	mov    -0x8(%rbp),%rax
ffffffff80006c9a:	48 01 c1             	add    %rax,%rcx
ffffffff80006c9d:	48 8b 45 d8          	mov    -0x28(%rbp),%rax
ffffffff80006ca1:	48 8b 80 08 02 00 00 	mov    0x208(%rax),%rax
ffffffff80006ca8:	48 0f af c8          	imul   %rax,%rcx
ffffffff80006cac:	48 8b 45 a8          	mov    -0x58(%rbp),%rax
ffffffff80006cb0:	48 01 c8             	add    %rcx,%rax
ffffffff80006cb3:	48 c1 e0 02          	shl    $0x2,%rax
ffffffff80006cb7:	48 01 d0             	add    %rdx,%rax
ffffffff80006cba:	48 89 45 c0          	mov    %rax,-0x40(%rbp)
ffffffff80006cbe:	48 8b 45 d8          	mov    -0x28(%rbp),%rax
ffffffff80006cc2:	48 8b 80 b8 01 00 00 	mov    0x1b8(%rax),%rax
ffffffff80006cc9:	48 0f af 45 f8       	imul   -0x8(%rbp),%rax
ffffffff80006cce:	48 89 c2             	mov    %rax,%rdx
ffffffff80006cd1:	48 8b 45 d0          	mov    -0x30(%rbp),%rax
ffffffff80006cd5:	48 01 d0             	add    %rdx,%rax
ffffffff80006cd8:	48 89 45 f0          	mov    %rax,-0x10(%rbp)
ffffffff80006cdc:	48 c7 45 e8 00 00 00 	movq   $0x0,-0x18(%rbp)
ffffffff80006ce3:	00 
ffffffff80006ce4:	e9 95 00 00 00       	jmp    ffffffff80006d7e <plot_char_unscaled_canvas+0x205>
ffffffff80006ce9:	48 8b 45 b0          	mov    -0x50(%rbp),%rax
ffffffff80006ced:	8b 40 08             	mov    0x8(%rax),%eax
ffffffff80006cf0:	83 f8 ff             	cmp    $0xffffffff,%eax
ffffffff80006cf3:	75 1a                	jne    ffffffff80006d0f <plot_char_unscaled_canvas+0x196>
ffffffff80006cf5:	48 8b 45 e8          	mov    -0x18(%rbp),%rax
ffffffff80006cf9:	48 8d 14 85 00 00 00 	lea    0x0(,%rax,4),%rdx
ffffffff80006d00:	00 
ffffffff80006d01:	48 8b 45 c0          	mov    -0x40(%rbp),%rax
ffffffff80006d05:	48 01 d0             	add    %rdx,%rax
ffffffff80006d08:	8b 00                	mov    (%rax),%eax
ffffffff80006d0a:	89 45 e4             	mov    %eax,-0x1c(%rbp)
ffffffff80006d0d:	eb 0a                	jmp    ffffffff80006d19 <plot_char_unscaled_canvas+0x1a0>
ffffffff80006d0f:	48 8b 45 b0          	mov    -0x50(%rbp),%rax
ffffffff80006d13:	8b 40 08             	mov    0x8(%rax),%eax
ffffffff80006d16:	89 45 e4             	mov    %eax,-0x1c(%rbp)
ffffffff80006d19:	48 8b 45 b0          	mov    -0x50(%rbp),%rax
ffffffff80006d1d:	8b 40 04             	mov    0x4(%rax),%eax
ffffffff80006d20:	83 f8 ff             	cmp    $0xffffffff,%eax
ffffffff80006d23:	75 1a                	jne    ffffffff80006d3f <plot_char_unscaled_canvas+0x1c6>
ffffffff80006d25:	48 8b 45 e8          	mov    -0x18(%rbp),%rax
ffffffff80006d29:	48 8d 14 85 00 00 00 	lea    0x0(,%rax,4),%rdx
ffffffff80006d30:	00 
ffffffff80006d31:	48 8b 45 c0          	mov    -0x40(%rbp),%rax
ffffffff80006d35:	48 01 d0             	add    %rdx,%rax
ffffffff80006d38:	8b 00                	mov    (%rax),%eax
ffffffff80006d3a:	89 45 e0             	mov    %eax,-0x20(%rbp)
ffffffff80006d3d:	eb 0a                	jmp    ffffffff80006d49 <plot_char_unscaled_canvas+0x1d0>
ffffffff80006d3f:	48 8b 45 b0          	mov    -0x50(%rbp),%rax
ffffffff80006d43:	8b 40 04             	mov    0x4(%rax),%eax
ffffffff80006d46:	89 45 e0             	mov    %eax,-0x20(%rbp)
ffffffff80006d49:	48 8b 45 f0          	mov    -0x10(%rbp),%rax
ffffffff80006d4d:	48 8d 50 01          	lea    0x1(%rax),%rdx
ffffffff80006d51:	48 89 55 f0          	mov    %rdx,-0x10(%rbp)
ffffffff80006d55:	0f b6 00             	movzbl (%rax),%eax
ffffffff80006d58:	84 c0                	test   %al,%al
ffffffff80006d5a:	74 05                	je     ffffffff80006d61 <plot_char_unscaled_canvas+0x1e8>
ffffffff80006d5c:	8b 45 e0             	mov    -0x20(%rbp),%eax
ffffffff80006d5f:	eb 03                	jmp    ffffffff80006d64 <plot_char_unscaled_canvas+0x1eb>
ffffffff80006d61:	8b 45 e4             	mov    -0x1c(%rbp),%eax
ffffffff80006d64:	48 8b 55 e8          	mov    -0x18(%rbp),%rdx
ffffffff80006d68:	48 8d 0c 95 00 00 00 	lea    0x0(,%rdx,4),%rcx
ffffffff80006d6f:	00 
ffffffff80006d70:	48 8b 55 c8          	mov    -0x38(%rbp),%rdx
ffffffff80006d74:	48 01 ca             	add    %rcx,%rdx
ffffffff80006d77:	89 02                	mov    %eax,(%rdx)
ffffffff80006d79:	48 83 45 e8 01       	addq   $0x1,-0x18(%rbp)
ffffffff80006d7e:	48 8b 45 d8          	mov    -0x28(%rbp),%rax
ffffffff80006d82:	48 8b 80 b8 01 00 00 	mov    0x1b8(%rax),%rax
ffffffff80006d89:	48 39 45 e8          	cmp    %rax,-0x18(%rbp)
ffffffff80006d8d:	0f 82 56 ff ff ff    	jb     ffffffff80006ce9 <plot_char_unscaled_canvas+0x170>
ffffffff80006d93:	48 83 45 f8 01       	addq   $0x1,-0x8(%rbp)
ffffffff80006d98:	48 8b 45 d8          	mov    -0x28(%rbp),%rax
ffffffff80006d9c:	48 8b 80 d0 01 00 00 	mov    0x1d0(%rax),%rax
ffffffff80006da3:	48 39 45 f8          	cmp    %rax,-0x8(%rbp)
ffffffff80006da7:	0f 82 9f fe ff ff    	jb     ffffffff80006c4c <plot_char_unscaled_canvas+0xd3>
ffffffff80006dad:	eb 01                	jmp    ffffffff80006db0 <plot_char_unscaled_canvas+0x237>
ffffffff80006daf:	90                   	nop
ffffffff80006db0:	c9                   	leave
ffffffff80006db1:	c3                   	ret

ffffffff80006db2 <plot_char_unscaled_uncanvas>:
ffffffff80006db2:	55                   	push   %rbp
ffffffff80006db3:	48 89 e5             	mov    %rsp,%rbp
ffffffff80006db6:	48 83 ec 60          	sub    $0x60,%rsp
ffffffff80006dba:	48 89 7d b8          	mov    %rdi,-0x48(%rbp)
ffffffff80006dbe:	48 89 75 b0          	mov    %rsi,-0x50(%rbp)
ffffffff80006dc2:	48 89 55 a8          	mov    %rdx,-0x58(%rbp)
ffffffff80006dc6:	48 89 4d a0          	mov    %rcx,-0x60(%rbp)
ffffffff80006dca:	48 8b 45 b8          	mov    -0x48(%rbp),%rax
ffffffff80006dce:	48 89 45 d8          	mov    %rax,-0x28(%rbp)
ffffffff80006dd2:	48 8b 45 b8          	mov    -0x48(%rbp),%rax
ffffffff80006dd6:	48 8b 80 e8 00 00 00 	mov    0xe8(%rax),%rax
ffffffff80006ddd:	48 39 45 a8          	cmp    %rax,-0x58(%rbp)
ffffffff80006de1:	0f 83 ac 01 00 00    	jae    ffffffff80006f93 <plot_char_unscaled_uncanvas+0x1e1>
ffffffff80006de7:	48 8b 45 b8          	mov    -0x48(%rbp),%rax
ffffffff80006deb:	48 8b 80 e0 00 00 00 	mov    0xe0(%rax),%rax
ffffffff80006df2:	48 39 45 a0          	cmp    %rax,-0x60(%rbp)
ffffffff80006df6:	0f 83 97 01 00 00    	jae    ffffffff80006f93 <plot_char_unscaled_uncanvas+0x1e1>
ffffffff80006dfc:	48 8b 45 d8          	mov    -0x28(%rbp),%rax
ffffffff80006e00:	8b 80 8c 02 00 00    	mov    0x28c(%rax),%eax
ffffffff80006e06:	89 45 d4             	mov    %eax,-0x2c(%rbp)
ffffffff80006e09:	48 8b 45 b0          	mov    -0x50(%rbp),%rax
ffffffff80006e0d:	8b 40 08             	mov    0x8(%rax),%eax
ffffffff80006e10:	83 f8 ff             	cmp    $0xffffffff,%eax
ffffffff80006e13:	74 0c                	je     ffffffff80006e21 <plot_char_unscaled_uncanvas+0x6f>
ffffffff80006e15:	48 8b 45 b0          	mov    -0x50(%rbp),%rax
ffffffff80006e19:	8b 40 08             	mov    0x8(%rax),%eax
ffffffff80006e1c:	89 45 fc             	mov    %eax,-0x4(%rbp)
ffffffff80006e1f:	eb 06                	jmp    ffffffff80006e27 <plot_char_unscaled_uncanvas+0x75>
ffffffff80006e21:	8b 45 d4             	mov    -0x2c(%rbp),%eax
ffffffff80006e24:	89 45 fc             	mov    %eax,-0x4(%rbp)
ffffffff80006e27:	48 8b 45 b0          	mov    -0x50(%rbp),%rax
ffffffff80006e2b:	8b 40 04             	mov    0x4(%rax),%eax
ffffffff80006e2e:	83 f8 ff             	cmp    $0xffffffff,%eax
ffffffff80006e31:	74 0c                	je     ffffffff80006e3f <plot_char_unscaled_uncanvas+0x8d>
ffffffff80006e33:	48 8b 45 b0          	mov    -0x50(%rbp),%rax
ffffffff80006e37:	8b 40 04             	mov    0x4(%rax),%eax
ffffffff80006e3a:	89 45 f8             	mov    %eax,-0x8(%rbp)
ffffffff80006e3d:	eb 06                	jmp    ffffffff80006e45 <plot_char_unscaled_uncanvas+0x93>
ffffffff80006e3f:	8b 45 d4             	mov    -0x2c(%rbp),%eax
ffffffff80006e42:	89 45 f8             	mov    %eax,-0x8(%rbp)
ffffffff80006e45:	48 8b 45 d8          	mov    -0x28(%rbp),%rax
ffffffff80006e49:	48 8b 90 e8 01 00 00 	mov    0x1e8(%rax),%rdx
ffffffff80006e50:	48 8b 45 d8          	mov    -0x28(%rbp),%rax
ffffffff80006e54:	48 8b 80 c8 01 00 00 	mov    0x1c8(%rax),%rax
ffffffff80006e5b:	48 0f af 45 a8       	imul   -0x58(%rbp),%rax
ffffffff80006e60:	48 01 d0             	add    %rdx,%rax
ffffffff80006e63:	48 89 45 a8          	mov    %rax,-0x58(%rbp)
ffffffff80006e67:	48 8b 45 d8          	mov    -0x28(%rbp),%rax
ffffffff80006e6b:	48 8b 90 f0 01 00 00 	mov    0x1f0(%rax),%rdx
ffffffff80006e72:	48 8b 45 d8          	mov    -0x28(%rbp),%rax
ffffffff80006e76:	48 8b 80 d0 01 00 00 	mov    0x1d0(%rax),%rax
ffffffff80006e7d:	48 0f af 45 a0       	imul   -0x60(%rbp),%rax
ffffffff80006e82:	48 01 d0             	add    %rdx,%rax
ffffffff80006e85:	48 89 45 a0          	mov    %rax,-0x60(%rbp)
ffffffff80006e89:	48 8b 45 d8          	mov    -0x28(%rbp),%rax
ffffffff80006e8d:	48 8b 88 40 02 00 00 	mov    0x240(%rax),%rcx
ffffffff80006e94:	48 8b 45 b0          	mov    -0x50(%rbp),%rax
ffffffff80006e98:	8b 00                	mov    (%rax),%eax
ffffffff80006e9a:	89 c2                	mov    %eax,%edx
ffffffff80006e9c:	48 8b 45 d8          	mov    -0x28(%rbp),%rax
ffffffff80006ea0:	48 8b 80 c0 01 00 00 	mov    0x1c0(%rax),%rax
ffffffff80006ea7:	48 0f af d0          	imul   %rax,%rdx
ffffffff80006eab:	48 8b 45 d8          	mov    -0x28(%rbp),%rax
ffffffff80006eaf:	48 8b 80 b8 01 00 00 	mov    0x1b8(%rax),%rax
ffffffff80006eb6:	48 0f af c2          	imul   %rdx,%rax
ffffffff80006eba:	48 01 c8             	add    %rcx,%rax
ffffffff80006ebd:	48 89 45 c8          	mov    %rax,-0x38(%rbp)
ffffffff80006ec1:	48 c7 45 f0 00 00 00 	movq   $0x0,-0x10(%rbp)
ffffffff80006ec8:	00 
ffffffff80006ec9:	e9 ae 00 00 00       	jmp    ffffffff80006f7c <plot_char_unscaled_uncanvas+0x1ca>
ffffffff80006ece:	48 8b 45 d8          	mov    -0x28(%rbp),%rax
ffffffff80006ed2:	48 8b 90 f8 01 00 00 	mov    0x1f8(%rax),%rdx
ffffffff80006ed9:	48 8b 4d a0          	mov    -0x60(%rbp),%rcx
ffffffff80006edd:	48 8b 45 f0          	mov    -0x10(%rbp),%rax
ffffffff80006ee1:	48 01 c1             	add    %rax,%rcx
ffffffff80006ee4:	48 8b 45 d8          	mov    -0x28(%rbp),%rax
ffffffff80006ee8:	48 8b 80 00 02 00 00 	mov    0x200(%rax),%rax
ffffffff80006eef:	48 c1 e8 02          	shr    $0x2,%rax
ffffffff80006ef3:	48 0f af c8          	imul   %rax,%rcx
ffffffff80006ef7:	48 8b 45 a8          	mov    -0x58(%rbp),%rax
ffffffff80006efb:	48 01 c8             	add    %rcx,%rax
ffffffff80006efe:	48 c1 e0 02          	shl    $0x2,%rax
ffffffff80006f02:	48 01 d0             	add    %rdx,%rax
ffffffff80006f05:	48 89 45 c0          	mov    %rax,-0x40(%rbp)
ffffffff80006f09:	48 8b 45 d8          	mov    -0x28(%rbp),%rax
ffffffff80006f0d:	48 8b 80 b8 01 00 00 	mov    0x1b8(%rax),%rax
ffffffff80006f14:	48 0f af 45 f0       	imul   -0x10(%rbp),%rax
ffffffff80006f19:	48 89 c2             	mov    %rax,%rdx
ffffffff80006f1c:	48 8b 45 c8          	mov    -0x38(%rbp),%rax
ffffffff80006f20:	48 01 d0             	add    %rdx,%rax
ffffffff80006f23:	48 89 45 e8          	mov    %rax,-0x18(%rbp)
ffffffff80006f27:	48 c7 45 e0 00 00 00 	movq   $0x0,-0x20(%rbp)
ffffffff80006f2e:	00 
ffffffff80006f2f:	eb 35                	jmp    ffffffff80006f66 <plot_char_unscaled_uncanvas+0x1b4>
ffffffff80006f31:	48 8b 45 e8          	mov    -0x18(%rbp),%rax
ffffffff80006f35:	48 8d 50 01          	lea    0x1(%rax),%rdx
ffffffff80006f39:	48 89 55 e8          	mov    %rdx,-0x18(%rbp)
ffffffff80006f3d:	0f b6 00             	movzbl (%rax),%eax
ffffffff80006f40:	84 c0                	test   %al,%al
ffffffff80006f42:	74 05                	je     ffffffff80006f49 <plot_char_unscaled_uncanvas+0x197>
ffffffff80006f44:	8b 45 f8             	mov    -0x8(%rbp),%eax
ffffffff80006f47:	eb 03                	jmp    ffffffff80006f4c <plot_char_unscaled_uncanvas+0x19a>
ffffffff80006f49:	8b 45 fc             	mov    -0x4(%rbp),%eax
ffffffff80006f4c:	48 8b 55 e0          	mov    -0x20(%rbp),%rdx
ffffffff80006f50:	48 8d 0c 95 00 00 00 	lea    0x0(,%rdx,4),%rcx
ffffffff80006f57:	00 
ffffffff80006f58:	48 8b 55 c0          	mov    -0x40(%rbp),%rdx
ffffffff80006f5c:	48 01 ca             	add    %rcx,%rdx
ffffffff80006f5f:	89 02                	mov    %eax,(%rdx)
ffffffff80006f61:	48 83 45 e0 01       	addq   $0x1,-0x20(%rbp)
ffffffff80006f66:	48 8b 45 d8          	mov    -0x28(%rbp),%rax
ffffffff80006f6a:	48 8b 80 b8 01 00 00 	mov    0x1b8(%rax),%rax
ffffffff80006f71:	48 39 45 e0          	cmp    %rax,-0x20(%rbp)
ffffffff80006f75:	72 ba                	jb     ffffffff80006f31 <plot_char_unscaled_uncanvas+0x17f>
ffffffff80006f77:	48 83 45 f0 01       	addq   $0x1,-0x10(%rbp)
ffffffff80006f7c:	48 8b 45 d8          	mov    -0x28(%rbp),%rax
ffffffff80006f80:	48 8b 80 d0 01 00 00 	mov    0x1d0(%rax),%rax
ffffffff80006f87:	48 39 45 f0          	cmp    %rax,-0x10(%rbp)
ffffffff80006f8b:	0f 82 3d ff ff ff    	jb     ffffffff80006ece <plot_char_unscaled_uncanvas+0x11c>
ffffffff80006f91:	eb 01                	jmp    ffffffff80006f94 <plot_char_unscaled_uncanvas+0x1e2>
ffffffff80006f93:	90                   	nop
ffffffff80006f94:	c9                   	leave
ffffffff80006f95:	c3                   	ret

ffffffff80006f96 <compare_char>:
ffffffff80006f96:	55                   	push   %rbp
ffffffff80006f97:	48 89 e5             	mov    %rsp,%rbp
ffffffff80006f9a:	48 83 ec 10          	sub    $0x10,%rsp
ffffffff80006f9e:	48 89 7d f8          	mov    %rdi,-0x8(%rbp)
ffffffff80006fa2:	48 89 75 f0          	mov    %rsi,-0x10(%rbp)
ffffffff80006fa6:	48 8b 45 f8          	mov    -0x8(%rbp),%rax
ffffffff80006faa:	8b 10                	mov    (%rax),%edx
ffffffff80006fac:	48 8b 45 f0          	mov    -0x10(%rbp),%rax
ffffffff80006fb0:	8b 00                	mov    (%rax),%eax
ffffffff80006fb2:	39 c2                	cmp    %eax,%edx
ffffffff80006fb4:	75 2b                	jne    ffffffff80006fe1 <compare_char+0x4b>
ffffffff80006fb6:	48 8b 45 f8          	mov    -0x8(%rbp),%rax
ffffffff80006fba:	8b 50 08             	mov    0x8(%rax),%edx
ffffffff80006fbd:	48 8b 45 f0          	mov    -0x10(%rbp),%rax
ffffffff80006fc1:	8b 40 08             	mov    0x8(%rax),%eax
ffffffff80006fc4:	39 c2                	cmp    %eax,%edx
ffffffff80006fc6:	75 19                	jne    ffffffff80006fe1 <compare_char+0x4b>
ffffffff80006fc8:	48 8b 45 f8          	mov    -0x8(%rbp),%rax
ffffffff80006fcc:	8b 50 04             	mov    0x4(%rax),%edx
ffffffff80006fcf:	48 8b 45 f0          	mov    -0x10(%rbp),%rax
ffffffff80006fd3:	8b 40 04             	mov    0x4(%rax),%eax
ffffffff80006fd6:	39 c2                	cmp    %eax,%edx
ffffffff80006fd8:	75 07                	jne    ffffffff80006fe1 <compare_char+0x4b>
ffffffff80006fda:	b8 01 00 00 00       	mov    $0x1,%eax
ffffffff80006fdf:	eb 05                	jmp    ffffffff80006fe6 <compare_char+0x50>
ffffffff80006fe1:	b8 00 00 00 00       	mov    $0x0,%eax
ffffffff80006fe6:	83 e0 01             	and    $0x1,%eax
ffffffff80006fe9:	c9                   	leave
ffffffff80006fea:	c3                   	ret

ffffffff80006feb <push_to_queue>:
ffffffff80006feb:	55                   	push   %rbp
ffffffff80006fec:	48 89 e5             	mov    %rsp,%rbp
ffffffff80006fef:	48 83 ec 40          	sub    $0x40,%rsp
ffffffff80006ff3:	48 89 7d d8          	mov    %rdi,-0x28(%rbp)
ffffffff80006ff7:	48 89 75 d0          	mov    %rsi,-0x30(%rbp)
ffffffff80006ffb:	48 89 55 c8          	mov    %rdx,-0x38(%rbp)
ffffffff80006fff:	48 89 4d c0          	mov    %rcx,-0x40(%rbp)
ffffffff80007003:	48 8b 45 d8          	mov    -0x28(%rbp),%rax
ffffffff80007007:	48 89 45 f0          	mov    %rax,-0x10(%rbp)
ffffffff8000700b:	48 8b 45 d8          	mov    -0x28(%rbp),%rax
ffffffff8000700f:	48 8b 80 e8 00 00 00 	mov    0xe8(%rax),%rax
ffffffff80007016:	48 39 45 c8          	cmp    %rax,-0x38(%rbp)
ffffffff8000701a:	0f 83 09 01 00 00    	jae    ffffffff80007129 <push_to_queue+0x13e>
ffffffff80007020:	48 8b 45 d8          	mov    -0x28(%rbp),%rax
ffffffff80007024:	48 8b 80 e0 00 00 00 	mov    0xe0(%rax),%rax
ffffffff8000702b:	48 39 45 c0          	cmp    %rax,-0x40(%rbp)
ffffffff8000702f:	0f 83 f4 00 00 00    	jae    ffffffff80007129 <push_to_queue+0x13e>
ffffffff80007035:	48 8b 45 d8          	mov    -0x28(%rbp),%rax
ffffffff80007039:	48 8b 80 e8 00 00 00 	mov    0xe8(%rax),%rax
ffffffff80007040:	48 0f af 45 c0       	imul   -0x40(%rbp),%rax
ffffffff80007045:	48 89 c2             	mov    %rax,%rdx
ffffffff80007048:	48 8b 45 c8          	mov    -0x38(%rbp),%rax
ffffffff8000704c:	48 01 d0             	add    %rdx,%rax
ffffffff8000704f:	48 89 45 e8          	mov    %rax,-0x18(%rbp)
ffffffff80007053:	48 8b 45 f0          	mov    -0x10(%rbp),%rax
ffffffff80007057:	48 8b 80 d8 02 00 00 	mov    0x2d8(%rax),%rax
ffffffff8000705e:	48 8b 55 e8          	mov    -0x18(%rbp),%rdx
ffffffff80007062:	48 c1 e2 03          	shl    $0x3,%rdx
ffffffff80007066:	48 01 d0             	add    %rdx,%rax
ffffffff80007069:	48 8b 00             	mov    (%rax),%rax
ffffffff8000706c:	48 89 45 f8          	mov    %rax,-0x8(%rbp)
ffffffff80007070:	48 83 7d f8 00       	cmpq   $0x0,-0x8(%rbp)
ffffffff80007075:	0f 85 97 00 00 00    	jne    ffffffff80007112 <push_to_queue+0x127>
ffffffff8000707b:	48 8b 45 f0          	mov    -0x10(%rbp),%rax
ffffffff8000707f:	48 8b 88 c0 02 00 00 	mov    0x2c0(%rax),%rcx
ffffffff80007086:	48 8b 55 e8          	mov    -0x18(%rbp),%rdx
ffffffff8000708a:	48 89 d0             	mov    %rdx,%rax
ffffffff8000708d:	48 01 c0             	add    %rax,%rax
ffffffff80007090:	48 01 d0             	add    %rdx,%rax
ffffffff80007093:	48 c1 e0 02          	shl    $0x2,%rax
ffffffff80007097:	48 8d 14 01          	lea    (%rcx,%rax,1),%rdx
ffffffff8000709b:	48 8b 45 d0          	mov    -0x30(%rbp),%rax
ffffffff8000709f:	48 89 c6             	mov    %rax,%rsi
ffffffff800070a2:	48 89 d7             	mov    %rdx,%rdi
ffffffff800070a5:	e8 ec fe ff ff       	call   ffffffff80006f96 <compare_char>
ffffffff800070aa:	84 c0                	test   %al,%al
ffffffff800070ac:	75 7e                	jne    ffffffff8000712c <push_to_queue+0x141>
ffffffff800070ae:	48 8b 45 f0          	mov    -0x10(%rbp),%rax
ffffffff800070b2:	48 8b b0 c8 02 00 00 	mov    0x2c8(%rax),%rsi
ffffffff800070b9:	48 8b 45 f0          	mov    -0x10(%rbp),%rax
ffffffff800070bd:	48 8b 80 d0 02 00 00 	mov    0x2d0(%rax),%rax
ffffffff800070c4:	48 8d 48 01          	lea    0x1(%rax),%rcx
ffffffff800070c8:	48 8b 55 f0          	mov    -0x10(%rbp),%rdx
ffffffff800070cc:	48 89 8a d0 02 00 00 	mov    %rcx,0x2d0(%rdx)
ffffffff800070d3:	48 c1 e0 05          	shl    $0x5,%rax
ffffffff800070d7:	48 01 f0             	add    %rsi,%rax
ffffffff800070da:	48 89 45 f8          	mov    %rax,-0x8(%rbp)
ffffffff800070de:	48 8b 45 f8          	mov    -0x8(%rbp),%rax
ffffffff800070e2:	48 8b 55 c8          	mov    -0x38(%rbp),%rdx
ffffffff800070e6:	48 89 10             	mov    %rdx,(%rax)
ffffffff800070e9:	48 8b 45 f8          	mov    -0x8(%rbp),%rax
ffffffff800070ed:	48 8b 55 c0          	mov    -0x40(%rbp),%rdx
ffffffff800070f1:	48 89 50 08          	mov    %rdx,0x8(%rax)
ffffffff800070f5:	48 8b 45 f0          	mov    -0x10(%rbp),%rax
ffffffff800070f9:	48 8b 80 d8 02 00 00 	mov    0x2d8(%rax),%rax
ffffffff80007100:	48 8b 55 e8          	mov    -0x18(%rbp),%rdx
ffffffff80007104:	48 c1 e2 03          	shl    $0x3,%rdx
ffffffff80007108:	48 01 c2             	add    %rax,%rdx
ffffffff8000710b:	48 8b 45 f8          	mov    -0x8(%rbp),%rax
ffffffff8000710f:	48 89 02             	mov    %rax,(%rdx)
ffffffff80007112:	48 8b 45 f8          	mov    -0x8(%rbp),%rax
ffffffff80007116:	48 8b 55 d0          	mov    -0x30(%rbp),%rdx
ffffffff8000711a:	48 8b 0a             	mov    (%rdx),%rcx
ffffffff8000711d:	48 89 48 10          	mov    %rcx,0x10(%rax)
ffffffff80007121:	8b 52 08             	mov    0x8(%rdx),%edx
ffffffff80007124:	89 50 18             	mov    %edx,0x18(%rax)
ffffffff80007127:	eb 04                	jmp    ffffffff8000712d <push_to_queue+0x142>
ffffffff80007129:	90                   	nop
ffffffff8000712a:	eb 01                	jmp    ffffffff8000712d <push_to_queue+0x142>
ffffffff8000712c:	90                   	nop
ffffffff8000712d:	c9                   	leave
ffffffff8000712e:	c3                   	ret

ffffffff8000712f <flanterm_fb_revscroll>:
ffffffff8000712f:	55                   	push   %rbp
ffffffff80007130:	48 89 e5             	mov    %rsp,%rbp
ffffffff80007133:	48 83 ec 48          	sub    $0x48,%rsp
ffffffff80007137:	48 89 7d b8          	mov    %rdi,-0x48(%rbp)
ffffffff8000713b:	48 8b 45 b8          	mov    -0x48(%rbp),%rax
ffffffff8000713f:	48 89 45 e0          	mov    %rax,-0x20(%rbp)
ffffffff80007143:	48 8b 45 b8          	mov    -0x48(%rbp),%rax
ffffffff80007147:	48 8b 40 70          	mov    0x70(%rax),%rax
ffffffff8000714b:	48 8d 50 ff          	lea    -0x1(%rax),%rdx
ffffffff8000714f:	48 8b 45 b8          	mov    -0x48(%rbp),%rax
ffffffff80007153:	48 8b 80 e8 00 00 00 	mov    0xe8(%rax),%rax
ffffffff8000715a:	48 0f af c2          	imul   %rdx,%rax
ffffffff8000715e:	48 83 e8 01          	sub    $0x1,%rax
ffffffff80007162:	48 89 45 f8          	mov    %rax,-0x8(%rbp)
ffffffff80007166:	e9 cc 00 00 00       	jmp    ffffffff80007237 <flanterm_fb_revscroll+0x108>
ffffffff8000716b:	48 83 7d f8 ff       	cmpq   $0xffffffffffffffff,-0x8(%rbp)
ffffffff80007170:	0f 84 e4 00 00 00    	je     ffffffff8000725a <flanterm_fb_revscroll+0x12b>
ffffffff80007176:	48 8b 45 e0          	mov    -0x20(%rbp),%rax
ffffffff8000717a:	48 8b 80 d8 02 00 00 	mov    0x2d8(%rax),%rax
ffffffff80007181:	48 8b 55 f8          	mov    -0x8(%rbp),%rdx
ffffffff80007185:	48 c1 e2 03          	shl    $0x3,%rdx
ffffffff80007189:	48 01 d0             	add    %rdx,%rax
ffffffff8000718c:	48 8b 00             	mov    (%rax),%rax
ffffffff8000718f:	48 89 45 d8          	mov    %rax,-0x28(%rbp)
ffffffff80007193:	48 83 7d d8 00       	cmpq   $0x0,-0x28(%rbp)
ffffffff80007198:	74 0e                	je     ffffffff800071a8 <flanterm_fb_revscroll+0x79>
ffffffff8000719a:	48 8b 45 d8          	mov    -0x28(%rbp),%rax
ffffffff8000719e:	48 83 c0 10          	add    $0x10,%rax
ffffffff800071a2:	48 89 45 f0          	mov    %rax,-0x10(%rbp)
ffffffff800071a6:	eb 23                	jmp    ffffffff800071cb <flanterm_fb_revscroll+0x9c>
ffffffff800071a8:	48 8b 45 e0          	mov    -0x20(%rbp),%rax
ffffffff800071ac:	48 8b 88 c0 02 00 00 	mov    0x2c0(%rax),%rcx
ffffffff800071b3:	48 8b 55 f8          	mov    -0x8(%rbp),%rdx
ffffffff800071b7:	48 89 d0             	mov    %rdx,%rax
ffffffff800071ba:	48 01 c0             	add    %rax,%rax
ffffffff800071bd:	48 01 d0             	add    %rdx,%rax
ffffffff800071c0:	48 c1 e0 02          	shl    $0x2,%rax
ffffffff800071c4:	48 01 c8             	add    %rcx,%rax
ffffffff800071c7:	48 89 45 f0          	mov    %rax,-0x10(%rbp)
ffffffff800071cb:	48 8b 45 b8          	mov    -0x48(%rbp),%rax
ffffffff800071cf:	48 8b 90 e8 00 00 00 	mov    0xe8(%rax),%rdx
ffffffff800071d6:	48 8b 45 f8          	mov    -0x8(%rbp),%rax
ffffffff800071da:	48 8d 0c 02          	lea    (%rdx,%rax,1),%rcx
ffffffff800071de:	48 8b 45 b8          	mov    -0x48(%rbp),%rax
ffffffff800071e2:	48 8b b8 e8 00 00 00 	mov    0xe8(%rax),%rdi
ffffffff800071e9:	48 89 c8             	mov    %rcx,%rax
ffffffff800071ec:	ba 00 00 00 00       	mov    $0x0,%edx
ffffffff800071f1:	48 f7 f7             	div    %rdi
ffffffff800071f4:	48 89 c7             	mov    %rax,%rdi
ffffffff800071f7:	48 8b 45 b8          	mov    -0x48(%rbp),%rax
ffffffff800071fb:	48 8b 90 e8 00 00 00 	mov    0xe8(%rax),%rdx
ffffffff80007202:	48 8b 45 f8          	mov    -0x8(%rbp),%rax
ffffffff80007206:	48 01 c2             	add    %rax,%rdx
ffffffff80007209:	48 8b 45 b8          	mov    -0x48(%rbp),%rax
ffffffff8000720d:	48 8b 88 e8 00 00 00 	mov    0xe8(%rax),%rcx
ffffffff80007214:	48 89 d0             	mov    %rdx,%rax
ffffffff80007217:	ba 00 00 00 00       	mov    $0x0,%edx
ffffffff8000721c:	48 f7 f1             	div    %rcx
ffffffff8000721f:	48 8b 75 f0          	mov    -0x10(%rbp),%rsi
ffffffff80007223:	48 8b 45 b8          	mov    -0x48(%rbp),%rax
ffffffff80007227:	48 89 f9             	mov    %rdi,%rcx
ffffffff8000722a:	48 89 c7             	mov    %rax,%rdi
ffffffff8000722d:	e8 b9 fd ff ff       	call   ffffffff80006feb <push_to_queue>
ffffffff80007232:	48 83 6d f8 01       	subq   $0x1,-0x8(%rbp)
ffffffff80007237:	48 8b 45 b8          	mov    -0x48(%rbp),%rax
ffffffff8000723b:	48 8b 50 68          	mov    0x68(%rax),%rdx
ffffffff8000723f:	48 8b 45 b8          	mov    -0x48(%rbp),%rax
ffffffff80007243:	48 8b 80 e8 00 00 00 	mov    0xe8(%rax),%rax
ffffffff8000724a:	48 0f af c2          	imul   %rdx,%rax
ffffffff8000724e:	48 39 45 f8          	cmp    %rax,-0x8(%rbp)
ffffffff80007252:	0f 83 13 ff ff ff    	jae    ffffffff8000716b <flanterm_fb_revscroll+0x3c>
ffffffff80007258:	eb 01                	jmp    ffffffff8000725b <flanterm_fb_revscroll+0x12c>
ffffffff8000725a:	90                   	nop
ffffffff8000725b:	c7 45 cc 20 00 00 00 	movl   $0x20,-0x34(%rbp)
ffffffff80007262:	48 8b 45 e0          	mov    -0x20(%rbp),%rax
ffffffff80007266:	8b 80 e0 02 00 00    	mov    0x2e0(%rax),%eax
ffffffff8000726c:	89 45 d0             	mov    %eax,-0x30(%rbp)
ffffffff8000726f:	48 8b 45 e0          	mov    -0x20(%rbp),%rax
ffffffff80007273:	8b 80 e4 02 00 00    	mov    0x2e4(%rax),%eax
ffffffff80007279:	89 45 d4             	mov    %eax,-0x2c(%rbp)
ffffffff8000727c:	48 c7 45 e8 00 00 00 	movq   $0x0,-0x18(%rbp)
ffffffff80007283:	00 
ffffffff80007284:	eb 21                	jmp    ffffffff800072a7 <flanterm_fb_revscroll+0x178>
ffffffff80007286:	48 8b 45 b8          	mov    -0x48(%rbp),%rax
ffffffff8000728a:	48 8b 48 68          	mov    0x68(%rax),%rcx
ffffffff8000728e:	48 8b 55 e8          	mov    -0x18(%rbp),%rdx
ffffffff80007292:	48 8d 75 cc          	lea    -0x34(%rbp),%rsi
ffffffff80007296:	48 8b 45 b8          	mov    -0x48(%rbp),%rax
ffffffff8000729a:	48 89 c7             	mov    %rax,%rdi
ffffffff8000729d:	e8 49 fd ff ff       	call   ffffffff80006feb <push_to_queue>
ffffffff800072a2:	48 83 45 e8 01       	addq   $0x1,-0x18(%rbp)
ffffffff800072a7:	48 8b 45 b8          	mov    -0x48(%rbp),%rax
ffffffff800072ab:	48 8b 80 e8 00 00 00 	mov    0xe8(%rax),%rax
ffffffff800072b2:	48 39 45 e8          	cmp    %rax,-0x18(%rbp)
ffffffff800072b6:	72 ce                	jb     ffffffff80007286 <flanterm_fb_revscroll+0x157>
ffffffff800072b8:	90                   	nop
ffffffff800072b9:	90                   	nop
ffffffff800072ba:	c9                   	leave
ffffffff800072bb:	c3                   	ret

ffffffff800072bc <flanterm_fb_scroll>:
ffffffff800072bc:	55                   	push   %rbp
ffffffff800072bd:	48 89 e5             	mov    %rsp,%rbp
ffffffff800072c0:	48 83 ec 48          	sub    $0x48,%rsp
ffffffff800072c4:	48 89 7d b8          	mov    %rdi,-0x48(%rbp)
ffffffff800072c8:	48 8b 45 b8          	mov    -0x48(%rbp),%rax
ffffffff800072cc:	48 89 45 e0          	mov    %rax,-0x20(%rbp)
ffffffff800072d0:	48 8b 45 b8          	mov    -0x48(%rbp),%rax
ffffffff800072d4:	48 8b 40 68          	mov    0x68(%rax),%rax
ffffffff800072d8:	48 8d 50 01          	lea    0x1(%rax),%rdx
ffffffff800072dc:	48 8b 45 b8          	mov    -0x48(%rbp),%rax
ffffffff800072e0:	48 8b 80 e8 00 00 00 	mov    0xe8(%rax),%rax
ffffffff800072e7:	48 0f af c2          	imul   %rdx,%rax
ffffffff800072eb:	48 89 45 f8          	mov    %rax,-0x8(%rbp)
ffffffff800072ef:	e9 c3 00 00 00       	jmp    ffffffff800073b7 <flanterm_fb_scroll+0xfb>
ffffffff800072f4:	48 8b 45 e0          	mov    -0x20(%rbp),%rax
ffffffff800072f8:	48 8b 80 d8 02 00 00 	mov    0x2d8(%rax),%rax
ffffffff800072ff:	48 8b 55 f8          	mov    -0x8(%rbp),%rdx
ffffffff80007303:	48 c1 e2 03          	shl    $0x3,%rdx
ffffffff80007307:	48 01 d0             	add    %rdx,%rax
ffffffff8000730a:	48 8b 00             	mov    (%rax),%rax
ffffffff8000730d:	48 89 45 d8          	mov    %rax,-0x28(%rbp)
ffffffff80007311:	48 83 7d d8 00       	cmpq   $0x0,-0x28(%rbp)
ffffffff80007316:	74 0e                	je     ffffffff80007326 <flanterm_fb_scroll+0x6a>
ffffffff80007318:	48 8b 45 d8          	mov    -0x28(%rbp),%rax
ffffffff8000731c:	48 83 c0 10          	add    $0x10,%rax
ffffffff80007320:	48 89 45 f0          	mov    %rax,-0x10(%rbp)
ffffffff80007324:	eb 23                	jmp    ffffffff80007349 <flanterm_fb_scroll+0x8d>
ffffffff80007326:	48 8b 45 e0          	mov    -0x20(%rbp),%rax
ffffffff8000732a:	48 8b 88 c0 02 00 00 	mov    0x2c0(%rax),%rcx
ffffffff80007331:	48 8b 55 f8          	mov    -0x8(%rbp),%rdx
ffffffff80007335:	48 89 d0             	mov    %rdx,%rax
ffffffff80007338:	48 01 c0             	add    %rax,%rax
ffffffff8000733b:	48 01 d0             	add    %rdx,%rax
ffffffff8000733e:	48 c1 e0 02          	shl    $0x2,%rax
ffffffff80007342:	48 01 c8             	add    %rcx,%rax
ffffffff80007345:	48 89 45 f0          	mov    %rax,-0x10(%rbp)
ffffffff80007349:	48 8b 45 b8          	mov    -0x48(%rbp),%rax
ffffffff8000734d:	48 8b 80 e8 00 00 00 	mov    0xe8(%rax),%rax
ffffffff80007354:	48 8b 55 f8          	mov    -0x8(%rbp),%rdx
ffffffff80007358:	48 89 d1             	mov    %rdx,%rcx
ffffffff8000735b:	48 29 c1             	sub    %rax,%rcx
ffffffff8000735e:	48 8b 45 b8          	mov    -0x48(%rbp),%rax
ffffffff80007362:	48 8b b8 e8 00 00 00 	mov    0xe8(%rax),%rdi
ffffffff80007369:	48 89 c8             	mov    %rcx,%rax
ffffffff8000736c:	ba 00 00 00 00       	mov    $0x0,%edx
ffffffff80007371:	48 f7 f7             	div    %rdi
ffffffff80007374:	48 89 c7             	mov    %rax,%rdi
ffffffff80007377:	48 8b 45 b8          	mov    -0x48(%rbp),%rax
ffffffff8000737b:	48 8b 80 e8 00 00 00 	mov    0xe8(%rax),%rax
ffffffff80007382:	48 8b 55 f8          	mov    -0x8(%rbp),%rdx
ffffffff80007386:	48 29 c2             	sub    %rax,%rdx
ffffffff80007389:	48 8b 45 b8          	mov    -0x48(%rbp),%rax
ffffffff8000738d:	48 8b 88 e8 00 00 00 	mov    0xe8(%rax),%rcx
ffffffff80007394:	48 89 d0             	mov    %rdx,%rax
ffffffff80007397:	ba 00 00 00 00       	mov    $0x0,%edx
ffffffff8000739c:	48 f7 f1             	div    %rcx
ffffffff8000739f:	48 8b 75 f0          	mov    -0x10(%rbp),%rsi
ffffffff800073a3:	48 8b 45 b8          	mov    -0x48(%rbp),%rax
ffffffff800073a7:	48 89 f9             	mov    %rdi,%rcx
ffffffff800073aa:	48 89 c7             	mov    %rax,%rdi
ffffffff800073ad:	e8 39 fc ff ff       	call   ffffffff80006feb <push_to_queue>
ffffffff800073b2:	48 83 45 f8 01       	addq   $0x1,-0x8(%rbp)
ffffffff800073b7:	48 8b 45 b8          	mov    -0x48(%rbp),%rax
ffffffff800073bb:	48 8b 50 70          	mov    0x70(%rax),%rdx
ffffffff800073bf:	48 8b 45 b8          	mov    -0x48(%rbp),%rax
ffffffff800073c3:	48 8b 80 e8 00 00 00 	mov    0xe8(%rax),%rax
ffffffff800073ca:	48 0f af c2          	imul   %rdx,%rax
ffffffff800073ce:	48 39 45 f8          	cmp    %rax,-0x8(%rbp)
ffffffff800073d2:	0f 82 1c ff ff ff    	jb     ffffffff800072f4 <flanterm_fb_scroll+0x38>
ffffffff800073d8:	c7 45 cc 20 00 00 00 	movl   $0x20,-0x34(%rbp)
ffffffff800073df:	48 8b 45 e0          	mov    -0x20(%rbp),%rax
ffffffff800073e3:	8b 80 e0 02 00 00    	mov    0x2e0(%rax),%eax
ffffffff800073e9:	89 45 d0             	mov    %eax,-0x30(%rbp)
ffffffff800073ec:	48 8b 45 e0          	mov    -0x20(%rbp),%rax
ffffffff800073f0:	8b 80 e4 02 00 00    	mov    0x2e4(%rax),%eax
ffffffff800073f6:	89 45 d4             	mov    %eax,-0x2c(%rbp)
ffffffff800073f9:	48 c7 45 e8 00 00 00 	movq   $0x0,-0x18(%rbp)
ffffffff80007400:	00 
ffffffff80007401:	eb 25                	jmp    ffffffff80007428 <flanterm_fb_scroll+0x16c>
ffffffff80007403:	48 8b 45 b8          	mov    -0x48(%rbp),%rax
ffffffff80007407:	48 8b 40 70          	mov    0x70(%rax),%rax
ffffffff8000740b:	48 8d 48 ff          	lea    -0x1(%rax),%rcx
ffffffff8000740f:	48 8b 55 e8          	mov    -0x18(%rbp),%rdx
ffffffff80007413:	48 8d 75 cc          	lea    -0x34(%rbp),%rsi
ffffffff80007417:	48 8b 45 b8          	mov    -0x48(%rbp),%rax
ffffffff8000741b:	48 89 c7             	mov    %rax,%rdi
ffffffff8000741e:	e8 c8 fb ff ff       	call   ffffffff80006feb <push_to_queue>
ffffffff80007423:	48 83 45 e8 01       	addq   $0x1,-0x18(%rbp)
ffffffff80007428:	48 8b 45 b8          	mov    -0x48(%rbp),%rax
ffffffff8000742c:	48 8b 80 e8 00 00 00 	mov    0xe8(%rax),%rax
ffffffff80007433:	48 39 45 e8          	cmp    %rax,-0x18(%rbp)
ffffffff80007437:	72 ca                	jb     ffffffff80007403 <flanterm_fb_scroll+0x147>
ffffffff80007439:	90                   	nop
ffffffff8000743a:	90                   	nop
ffffffff8000743b:	c9                   	leave
ffffffff8000743c:	c3                   	ret

ffffffff8000743d <flanterm_fb_clear>:
ffffffff8000743d:	55                   	push   %rbp
ffffffff8000743e:	48 89 e5             	mov    %rsp,%rbp
ffffffff80007441:	48 83 ec 30          	sub    $0x30,%rsp
ffffffff80007445:	48 89 7d d8          	mov    %rdi,-0x28(%rbp)
ffffffff80007449:	89 f0                	mov    %esi,%eax
ffffffff8000744b:	88 45 d4             	mov    %al,-0x2c(%rbp)
ffffffff8000744e:	48 8b 45 d8          	mov    -0x28(%rbp),%rax
ffffffff80007452:	48 89 45 f0          	mov    %rax,-0x10(%rbp)
ffffffff80007456:	c7 45 e4 20 00 00 00 	movl   $0x20,-0x1c(%rbp)
ffffffff8000745d:	48 8b 45 f0          	mov    -0x10(%rbp),%rax
ffffffff80007461:	8b 80 e0 02 00 00    	mov    0x2e0(%rax),%eax
ffffffff80007467:	89 45 e8             	mov    %eax,-0x18(%rbp)
ffffffff8000746a:	48 8b 45 f0          	mov    -0x10(%rbp),%rax
ffffffff8000746e:	8b 80 e4 02 00 00    	mov    0x2e4(%rax),%eax
ffffffff80007474:	89 45 ec             	mov    %eax,-0x14(%rbp)
ffffffff80007477:	48 c7 45 f8 00 00 00 	movq   $0x0,-0x8(%rbp)
ffffffff8000747e:	00 
ffffffff8000747f:	eb 49                	jmp    ffffffff800074ca <flanterm_fb_clear+0x8d>
ffffffff80007481:	48 8b 45 d8          	mov    -0x28(%rbp),%rax
ffffffff80007485:	48 8b 88 e8 00 00 00 	mov    0xe8(%rax),%rcx
ffffffff8000748c:	48 8b 45 f8          	mov    -0x8(%rbp),%rax
ffffffff80007490:	ba 00 00 00 00       	mov    $0x0,%edx
ffffffff80007495:	48 f7 f1             	div    %rcx
ffffffff80007498:	48 89 c7             	mov    %rax,%rdi
ffffffff8000749b:	48 8b 45 d8          	mov    -0x28(%rbp),%rax
ffffffff8000749f:	48 8b 88 e8 00 00 00 	mov    0xe8(%rax),%rcx
ffffffff800074a6:	48 8b 45 f8          	mov    -0x8(%rbp),%rax
ffffffff800074aa:	ba 00 00 00 00       	mov    $0x0,%edx
ffffffff800074af:	48 f7 f1             	div    %rcx
ffffffff800074b2:	48 8d 75 e4          	lea    -0x1c(%rbp),%rsi
ffffffff800074b6:	48 8b 45 d8          	mov    -0x28(%rbp),%rax
ffffffff800074ba:	48 89 f9             	mov    %rdi,%rcx
ffffffff800074bd:	48 89 c7             	mov    %rax,%rdi
ffffffff800074c0:	e8 26 fb ff ff       	call   ffffffff80006feb <push_to_queue>
ffffffff800074c5:	48 83 45 f8 01       	addq   $0x1,-0x8(%rbp)
ffffffff800074ca:	48 8b 45 d8          	mov    -0x28(%rbp),%rax
ffffffff800074ce:	48 8b 90 e0 00 00 00 	mov    0xe0(%rax),%rdx
ffffffff800074d5:	48 8b 45 d8          	mov    -0x28(%rbp),%rax
ffffffff800074d9:	48 8b 80 e8 00 00 00 	mov    0xe8(%rax),%rax
ffffffff800074e0:	48 0f af c2          	imul   %rdx,%rax
ffffffff800074e4:	48 39 45 f8          	cmp    %rax,-0x8(%rbp)
ffffffff800074e8:	72 97                	jb     ffffffff80007481 <flanterm_fb_clear+0x44>
ffffffff800074ea:	80 7d d4 00          	cmpb   $0x0,-0x2c(%rbp)
ffffffff800074ee:	74 1e                	je     ffffffff8000750e <flanterm_fb_clear+0xd1>
ffffffff800074f0:	48 8b 45 f0          	mov    -0x10(%rbp),%rax
ffffffff800074f4:	48 c7 80 e8 02 00 00 	movq   $0x0,0x2e8(%rax)
ffffffff800074fb:	00 00 00 00 
ffffffff800074ff:	48 8b 45 f0          	mov    -0x10(%rbp),%rax
ffffffff80007503:	48 c7 80 f0 02 00 00 	movq   $0x0,0x2f0(%rax)
ffffffff8000750a:	00 00 00 00 
ffffffff8000750e:	90                   	nop
ffffffff8000750f:	c9                   	leave
ffffffff80007510:	c3                   	ret

ffffffff80007511 <flanterm_fb_set_cursor_pos>:
ffffffff80007511:	55                   	push   %rbp
ffffffff80007512:	48 89 e5             	mov    %rsp,%rbp
ffffffff80007515:	48 83 ec 28          	sub    $0x28,%rsp
ffffffff80007519:	48 89 7d e8          	mov    %rdi,-0x18(%rbp)
ffffffff8000751d:	48 89 75 e0          	mov    %rsi,-0x20(%rbp)
ffffffff80007521:	48 89 55 d8          	mov    %rdx,-0x28(%rbp)
ffffffff80007525:	48 8b 45 e8          	mov    -0x18(%rbp),%rax
ffffffff80007529:	48 89 45 f8          	mov    %rax,-0x8(%rbp)
ffffffff8000752d:	48 8b 45 e8          	mov    -0x18(%rbp),%rax
ffffffff80007531:	48 8b 80 e8 00 00 00 	mov    0xe8(%rax),%rax
ffffffff80007538:	48 39 45 e0          	cmp    %rax,-0x20(%rbp)
ffffffff8000753c:	72 25                	jb     ffffffff80007563 <flanterm_fb_set_cursor_pos+0x52>
ffffffff8000753e:	48 8b 45 e0          	mov    -0x20(%rbp),%rax
ffffffff80007542:	85 c0                	test   %eax,%eax
ffffffff80007544:	79 0a                	jns    ffffffff80007550 <flanterm_fb_set_cursor_pos+0x3f>
ffffffff80007546:	48 c7 45 e0 00 00 00 	movq   $0x0,-0x20(%rbp)
ffffffff8000754d:	00 
ffffffff8000754e:	eb 13                	jmp    ffffffff80007563 <flanterm_fb_set_cursor_pos+0x52>
ffffffff80007550:	48 8b 45 e8          	mov    -0x18(%rbp),%rax
ffffffff80007554:	48 8b 80 e8 00 00 00 	mov    0xe8(%rax),%rax
ffffffff8000755b:	48 83 e8 01          	sub    $0x1,%rax
ffffffff8000755f:	48 89 45 e0          	mov    %rax,-0x20(%rbp)
ffffffff80007563:	48 8b 45 e8          	mov    -0x18(%rbp),%rax
ffffffff80007567:	48 8b 80 e0 00 00 00 	mov    0xe0(%rax),%rax
ffffffff8000756e:	48 39 45 d8          	cmp    %rax,-0x28(%rbp)
ffffffff80007572:	72 25                	jb     ffffffff80007599 <flanterm_fb_set_cursor_pos+0x88>
ffffffff80007574:	48 8b 45 d8          	mov    -0x28(%rbp),%rax
ffffffff80007578:	85 c0                	test   %eax,%eax
ffffffff8000757a:	79 0a                	jns    ffffffff80007586 <flanterm_fb_set_cursor_pos+0x75>
ffffffff8000757c:	48 c7 45 d8 00 00 00 	movq   $0x0,-0x28(%rbp)
ffffffff80007583:	00 
ffffffff80007584:	eb 13                	jmp    ffffffff80007599 <flanterm_fb_set_cursor_pos+0x88>
ffffffff80007586:	48 8b 45 e8          	mov    -0x18(%rbp),%rax
ffffffff8000758a:	48 8b 80 e0 00 00 00 	mov    0xe0(%rax),%rax
ffffffff80007591:	48 83 e8 01          	sub    $0x1,%rax
ffffffff80007595:	48 89 45 d8          	mov    %rax,-0x28(%rbp)
ffffffff80007599:	48 8b 45 f8          	mov    -0x8(%rbp),%rax
ffffffff8000759d:	48 8b 55 e0          	mov    -0x20(%rbp),%rdx
ffffffff800075a1:	48 89 90 e8 02 00 00 	mov    %rdx,0x2e8(%rax)
ffffffff800075a8:	48 8b 45 f8          	mov    -0x8(%rbp),%rax
ffffffff800075ac:	48 8b 55 d8          	mov    -0x28(%rbp),%rdx
ffffffff800075b0:	48 89 90 f0 02 00 00 	mov    %rdx,0x2f0(%rax)
ffffffff800075b7:	90                   	nop
ffffffff800075b8:	c9                   	leave
ffffffff800075b9:	c3                   	ret

ffffffff800075ba <flanterm_fb_get_cursor_pos>:
ffffffff800075ba:	55                   	push   %rbp
ffffffff800075bb:	48 89 e5             	mov    %rsp,%rbp
ffffffff800075be:	48 83 ec 28          	sub    $0x28,%rsp
ffffffff800075c2:	48 89 7d e8          	mov    %rdi,-0x18(%rbp)
ffffffff800075c6:	48 89 75 e0          	mov    %rsi,-0x20(%rbp)
ffffffff800075ca:	48 89 55 d8          	mov    %rdx,-0x28(%rbp)
ffffffff800075ce:	48 8b 45 e8          	mov    -0x18(%rbp),%rax
ffffffff800075d2:	48 89 45 f8          	mov    %rax,-0x8(%rbp)
ffffffff800075d6:	48 8b 45 f8          	mov    -0x8(%rbp),%rax
ffffffff800075da:	48 8b 90 e8 02 00 00 	mov    0x2e8(%rax),%rdx
ffffffff800075e1:	48 8b 45 e8          	mov    -0x18(%rbp),%rax
ffffffff800075e5:	48 8b 80 e8 00 00 00 	mov    0xe8(%rax),%rax
ffffffff800075ec:	48 39 c2             	cmp    %rax,%rdx
ffffffff800075ef:	72 11                	jb     ffffffff80007602 <flanterm_fb_get_cursor_pos+0x48>
ffffffff800075f1:	48 8b 45 e8          	mov    -0x18(%rbp),%rax
ffffffff800075f5:	48 8b 80 e8 00 00 00 	mov    0xe8(%rax),%rax
ffffffff800075fc:	48 83 e8 01          	sub    $0x1,%rax
ffffffff80007600:	eb 0b                	jmp    ffffffff8000760d <flanterm_fb_get_cursor_pos+0x53>
ffffffff80007602:	48 8b 45 f8          	mov    -0x8(%rbp),%rax
ffffffff80007606:	48 8b 80 e8 02 00 00 	mov    0x2e8(%rax),%rax
ffffffff8000760d:	48 8b 55 e0          	mov    -0x20(%rbp),%rdx
ffffffff80007611:	48 89 02             	mov    %rax,(%rdx)
ffffffff80007614:	48 8b 45 f8          	mov    -0x8(%rbp),%rax
ffffffff80007618:	48 8b 90 f0 02 00 00 	mov    0x2f0(%rax),%rdx
ffffffff8000761f:	48 8b 45 e8          	mov    -0x18(%rbp),%rax
ffffffff80007623:	48 8b 80 e0 00 00 00 	mov    0xe0(%rax),%rax
ffffffff8000762a:	48 39 c2             	cmp    %rax,%rdx
ffffffff8000762d:	72 11                	jb     ffffffff80007640 <flanterm_fb_get_cursor_pos+0x86>
ffffffff8000762f:	48 8b 45 e8          	mov    -0x18(%rbp),%rax
ffffffff80007633:	48 8b 80 e0 00 00 00 	mov    0xe0(%rax),%rax
ffffffff8000763a:	48 83 e8 01          	sub    $0x1,%rax
ffffffff8000763e:	eb 0b                	jmp    ffffffff8000764b <flanterm_fb_get_cursor_pos+0x91>
ffffffff80007640:	48 8b 45 f8          	mov    -0x8(%rbp),%rax
ffffffff80007644:	48 8b 80 f0 02 00 00 	mov    0x2f0(%rax),%rax
ffffffff8000764b:	48 8b 55 d8          	mov    -0x28(%rbp),%rdx
ffffffff8000764f:	48 89 02             	mov    %rax,(%rdx)
ffffffff80007652:	90                   	nop
ffffffff80007653:	c9                   	leave
ffffffff80007654:	c3                   	ret

ffffffff80007655 <flanterm_fb_move_character>:
ffffffff80007655:	55                   	push   %rbp
ffffffff80007656:	48 89 e5             	mov    %rsp,%rbp
ffffffff80007659:	48 83 ec 48          	sub    $0x48,%rsp
ffffffff8000765d:	48 89 7d d8          	mov    %rdi,-0x28(%rbp)
ffffffff80007661:	48 89 75 d0          	mov    %rsi,-0x30(%rbp)
ffffffff80007665:	48 89 55 c8          	mov    %rdx,-0x38(%rbp)
ffffffff80007669:	48 89 4d c0          	mov    %rcx,-0x40(%rbp)
ffffffff8000766d:	4c 89 45 b8          	mov    %r8,-0x48(%rbp)
ffffffff80007671:	48 8b 45 d8          	mov    -0x28(%rbp),%rax
ffffffff80007675:	48 89 45 f0          	mov    %rax,-0x10(%rbp)
ffffffff80007679:	48 8b 45 d8          	mov    -0x28(%rbp),%rax
ffffffff8000767d:	48 8b 80 e8 00 00 00 	mov    0xe8(%rax),%rax
ffffffff80007684:	48 39 45 c0          	cmp    %rax,-0x40(%rbp)
ffffffff80007688:	0f 83 cc 00 00 00    	jae    ffffffff8000775a <flanterm_fb_move_character+0x105>
ffffffff8000768e:	48 8b 45 d8          	mov    -0x28(%rbp),%rax
ffffffff80007692:	48 8b 80 e0 00 00 00 	mov    0xe0(%rax),%rax
ffffffff80007699:	48 39 45 b8          	cmp    %rax,-0x48(%rbp)
ffffffff8000769d:	0f 83 b7 00 00 00    	jae    ffffffff8000775a <flanterm_fb_move_character+0x105>
ffffffff800076a3:	48 8b 45 d8          	mov    -0x28(%rbp),%rax
ffffffff800076a7:	48 8b 80 e8 00 00 00 	mov    0xe8(%rax),%rax
ffffffff800076ae:	48 39 45 d0          	cmp    %rax,-0x30(%rbp)
ffffffff800076b2:	0f 83 a2 00 00 00    	jae    ffffffff8000775a <flanterm_fb_move_character+0x105>
ffffffff800076b8:	48 8b 45 d8          	mov    -0x28(%rbp),%rax
ffffffff800076bc:	48 8b 80 e0 00 00 00 	mov    0xe0(%rax),%rax
ffffffff800076c3:	48 39 45 c8          	cmp    %rax,-0x38(%rbp)
ffffffff800076c7:	0f 83 8d 00 00 00    	jae    ffffffff8000775a <flanterm_fb_move_character+0x105>
ffffffff800076cd:	48 8b 45 d8          	mov    -0x28(%rbp),%rax
ffffffff800076d1:	48 8b 80 e8 00 00 00 	mov    0xe8(%rax),%rax
ffffffff800076d8:	48 0f af 45 b8       	imul   -0x48(%rbp),%rax
ffffffff800076dd:	48 89 c2             	mov    %rax,%rdx
ffffffff800076e0:	48 8b 45 c0          	mov    -0x40(%rbp),%rax
ffffffff800076e4:	48 01 d0             	add    %rdx,%rax
ffffffff800076e7:	48 89 45 e8          	mov    %rax,-0x18(%rbp)
ffffffff800076eb:	48 8b 45 f0          	mov    -0x10(%rbp),%rax
ffffffff800076ef:	48 8b 80 d8 02 00 00 	mov    0x2d8(%rax),%rax
ffffffff800076f6:	48 8b 55 e8          	mov    -0x18(%rbp),%rdx
ffffffff800076fa:	48 c1 e2 03          	shl    $0x3,%rdx
ffffffff800076fe:	48 01 d0             	add    %rdx,%rax
ffffffff80007701:	48 8b 00             	mov    (%rax),%rax
ffffffff80007704:	48 89 45 e0          	mov    %rax,-0x20(%rbp)
ffffffff80007708:	48 83 7d e0 00       	cmpq   $0x0,-0x20(%rbp)
ffffffff8000770d:	74 0e                	je     ffffffff8000771d <flanterm_fb_move_character+0xc8>
ffffffff8000770f:	48 8b 45 e0          	mov    -0x20(%rbp),%rax
ffffffff80007713:	48 83 c0 10          	add    $0x10,%rax
ffffffff80007717:	48 89 45 f8          	mov    %rax,-0x8(%rbp)
ffffffff8000771b:	eb 23                	jmp    ffffffff80007740 <flanterm_fb_move_character+0xeb>
ffffffff8000771d:	48 8b 45 f0          	mov    -0x10(%rbp),%rax
ffffffff80007721:	48 8b 88 c0 02 00 00 	mov    0x2c0(%rax),%rcx
ffffffff80007728:	48 8b 55 e8          	mov    -0x18(%rbp),%rdx
ffffffff8000772c:	48 89 d0             	mov    %rdx,%rax
ffffffff8000772f:	48 01 c0             	add    %rax,%rax
ffffffff80007732:	48 01 d0             	add    %rdx,%rax
ffffffff80007735:	48 c1 e0 02          	shl    $0x2,%rax
ffffffff80007739:	48 01 c8             	add    %rcx,%rax
ffffffff8000773c:	48 89 45 f8          	mov    %rax,-0x8(%rbp)
ffffffff80007740:	48 8b 4d c8          	mov    -0x38(%rbp),%rcx
ffffffff80007744:	48 8b 55 d0          	mov    -0x30(%rbp),%rdx
ffffffff80007748:	48 8b 75 f8          	mov    -0x8(%rbp),%rsi
ffffffff8000774c:	48 8b 45 d8          	mov    -0x28(%rbp),%rax
ffffffff80007750:	48 89 c7             	mov    %rax,%rdi
ffffffff80007753:	e8 93 f8 ff ff       	call   ffffffff80006feb <push_to_queue>
ffffffff80007758:	eb 01                	jmp    ffffffff8000775b <flanterm_fb_move_character+0x106>
ffffffff8000775a:	90                   	nop
ffffffff8000775b:	c9                   	leave
ffffffff8000775c:	c3                   	ret

ffffffff8000775d <flanterm_fb_set_text_fg>:
ffffffff8000775d:	55                   	push   %rbp
ffffffff8000775e:	48 89 e5             	mov    %rsp,%rbp
ffffffff80007761:	48 83 ec 20          	sub    $0x20,%rsp
ffffffff80007765:	48 89 7d e8          	mov    %rdi,-0x18(%rbp)
ffffffff80007769:	48 89 75 e0          	mov    %rsi,-0x20(%rbp)
ffffffff8000776d:	48 8b 45 e8          	mov    -0x18(%rbp),%rax
ffffffff80007771:	48 89 45 f8          	mov    %rax,-0x8(%rbp)
ffffffff80007775:	48 8b 45 f8          	mov    -0x8(%rbp),%rax
ffffffff80007779:	48 8b 55 e0          	mov    -0x20(%rbp),%rdx
ffffffff8000777d:	48 81 c2 90 00 00 00 	add    $0x90,%rdx
ffffffff80007784:	8b 54 90 08          	mov    0x8(%rax,%rdx,4),%edx
ffffffff80007788:	48 8b 45 f8          	mov    -0x8(%rbp),%rax
ffffffff8000778c:	89 90 e0 02 00 00    	mov    %edx,0x2e0(%rax)
ffffffff80007792:	90                   	nop
ffffffff80007793:	c9                   	leave
ffffffff80007794:	c3                   	ret

ffffffff80007795 <flanterm_fb_set_text_bg>:
ffffffff80007795:	55                   	push   %rbp
ffffffff80007796:	48 89 e5             	mov    %rsp,%rbp
ffffffff80007799:	48 83 ec 20          	sub    $0x20,%rsp
ffffffff8000779d:	48 89 7d e8          	mov    %rdi,-0x18(%rbp)
ffffffff800077a1:	48 89 75 e0          	mov    %rsi,-0x20(%rbp)
ffffffff800077a5:	48 8b 45 e8          	mov    -0x18(%rbp),%rax
ffffffff800077a9:	48 89 45 f8          	mov    %rax,-0x8(%rbp)
ffffffff800077ad:	48 8b 45 f8          	mov    -0x8(%rbp),%rax
ffffffff800077b1:	48 8b 55 e0          	mov    -0x20(%rbp),%rdx
ffffffff800077b5:	48 81 c2 90 00 00 00 	add    $0x90,%rdx
ffffffff800077bc:	8b 54 90 08          	mov    0x8(%rax,%rdx,4),%edx
ffffffff800077c0:	48 8b 45 f8          	mov    -0x8(%rbp),%rax
ffffffff800077c4:	89 90 e4 02 00 00    	mov    %edx,0x2e4(%rax)
ffffffff800077ca:	90                   	nop
ffffffff800077cb:	c9                   	leave
ffffffff800077cc:	c3                   	ret

ffffffff800077cd <flanterm_fb_set_text_fg_bright>:
ffffffff800077cd:	55                   	push   %rbp
ffffffff800077ce:	48 89 e5             	mov    %rsp,%rbp
ffffffff800077d1:	48 83 ec 20          	sub    $0x20,%rsp
ffffffff800077d5:	48 89 7d e8          	mov    %rdi,-0x18(%rbp)
ffffffff800077d9:	48 89 75 e0          	mov    %rsi,-0x20(%rbp)
ffffffff800077dd:	48 8b 45 e8          	mov    -0x18(%rbp),%rax
ffffffff800077e1:	48 89 45 f8          	mov    %rax,-0x8(%rbp)
ffffffff800077e5:	48 8b 45 f8          	mov    -0x8(%rbp),%rax
ffffffff800077e9:	48 8b 55 e0          	mov    -0x20(%rbp),%rdx
ffffffff800077ed:	48 81 c2 98 00 00 00 	add    $0x98,%rdx
ffffffff800077f4:	8b 54 90 08          	mov    0x8(%rax,%rdx,4),%edx
ffffffff800077f8:	48 8b 45 f8          	mov    -0x8(%rbp),%rax
ffffffff800077fc:	89 90 e0 02 00 00    	mov    %edx,0x2e0(%rax)
ffffffff80007802:	90                   	nop
ffffffff80007803:	c9                   	leave
ffffffff80007804:	c3                   	ret

ffffffff80007805 <flanterm_fb_set_text_bg_bright>:
ffffffff80007805:	55                   	push   %rbp
ffffffff80007806:	48 89 e5             	mov    %rsp,%rbp
ffffffff80007809:	48 83 ec 20          	sub    $0x20,%rsp
ffffffff8000780d:	48 89 7d e8          	mov    %rdi,-0x18(%rbp)
ffffffff80007811:	48 89 75 e0          	mov    %rsi,-0x20(%rbp)
ffffffff80007815:	48 8b 45 e8          	mov    -0x18(%rbp),%rax
ffffffff80007819:	48 89 45 f8          	mov    %rax,-0x8(%rbp)
ffffffff8000781d:	48 8b 45 f8          	mov    -0x8(%rbp),%rax
ffffffff80007821:	48 8b 55 e0          	mov    -0x20(%rbp),%rdx
ffffffff80007825:	48 81 c2 98 00 00 00 	add    $0x98,%rdx
ffffffff8000782c:	8b 54 90 08          	mov    0x8(%rax,%rdx,4),%edx
ffffffff80007830:	48 8b 45 f8          	mov    -0x8(%rbp),%rax
ffffffff80007834:	89 90 e4 02 00 00    	mov    %edx,0x2e4(%rax)
ffffffff8000783a:	90                   	nop
ffffffff8000783b:	c9                   	leave
ffffffff8000783c:	c3                   	ret

ffffffff8000783d <flanterm_fb_set_text_fg_rgb>:
ffffffff8000783d:	55                   	push   %rbp
ffffffff8000783e:	48 89 e5             	mov    %rsp,%rbp
ffffffff80007841:	48 83 ec 40          	sub    $0x40,%rsp
ffffffff80007845:	48 89 7d c8          	mov    %rdi,-0x38(%rbp)
ffffffff80007849:	89 75 c4             	mov    %esi,-0x3c(%rbp)
ffffffff8000784c:	48 8b 45 c8          	mov    -0x38(%rbp),%rax
ffffffff80007850:	48 89 45 f8          	mov    %rax,-0x8(%rbp)
ffffffff80007854:	48 8b 45 c8          	mov    -0x38(%rbp),%rax
ffffffff80007858:	48 89 45 f0          	mov    %rax,-0x10(%rbp)
ffffffff8000785c:	8b 45 c4             	mov    -0x3c(%rbp),%eax
ffffffff8000785f:	89 45 ec             	mov    %eax,-0x14(%rbp)
ffffffff80007862:	48 8b 45 f0          	mov    -0x10(%rbp),%rax
ffffffff80007866:	48 89 45 e0          	mov    %rax,-0x20(%rbp)
ffffffff8000786a:	8b 45 ec             	mov    -0x14(%rbp),%eax
ffffffff8000786d:	c1 e8 10             	shr    $0x10,%eax
ffffffff80007870:	25 ff 00 00 00       	and    $0xff,%eax
ffffffff80007875:	89 45 dc             	mov    %eax,-0x24(%rbp)
ffffffff80007878:	8b 45 ec             	mov    -0x14(%rbp),%eax
ffffffff8000787b:	c1 e8 08             	shr    $0x8,%eax
ffffffff8000787e:	25 ff 00 00 00       	and    $0xff,%eax
ffffffff80007883:	89 45 d8             	mov    %eax,-0x28(%rbp)
ffffffff80007886:	8b 45 ec             	mov    -0x14(%rbp),%eax
ffffffff80007889:	0f b6 c0             	movzbl %al,%eax
ffffffff8000788c:	89 45 d4             	mov    %eax,-0x2c(%rbp)
ffffffff8000788f:	48 8b 45 e0          	mov    -0x20(%rbp),%rax
ffffffff80007893:	0f b6 80 21 02 00 00 	movzbl 0x221(%rax),%eax
ffffffff8000789a:	0f b6 c0             	movzbl %al,%eax
ffffffff8000789d:	8b 55 dc             	mov    -0x24(%rbp),%edx
ffffffff800078a0:	89 d6                	mov    %edx,%esi
ffffffff800078a2:	89 c1                	mov    %eax,%ecx
ffffffff800078a4:	d3 e6                	shl    %cl,%esi
ffffffff800078a6:	48 8b 45 e0          	mov    -0x20(%rbp),%rax
ffffffff800078aa:	0f b6 80 23 02 00 00 	movzbl 0x223(%rax),%eax
ffffffff800078b1:	0f b6 c0             	movzbl %al,%eax
ffffffff800078b4:	8b 55 d8             	mov    -0x28(%rbp),%edx
ffffffff800078b7:	89 c1                	mov    %eax,%ecx
ffffffff800078b9:	d3 e2                	shl    %cl,%edx
ffffffff800078bb:	89 d0                	mov    %edx,%eax
ffffffff800078bd:	09 c6                	or     %eax,%esi
ffffffff800078bf:	48 8b 45 e0          	mov    -0x20(%rbp),%rax
ffffffff800078c3:	0f b6 80 25 02 00 00 	movzbl 0x225(%rax),%eax
ffffffff800078ca:	0f b6 c0             	movzbl %al,%eax
ffffffff800078cd:	8b 55 d4             	mov    -0x2c(%rbp),%edx
ffffffff800078d0:	89 c1                	mov    %eax,%ecx
ffffffff800078d2:	d3 e2                	shl    %cl,%edx
ffffffff800078d4:	89 d0                	mov    %edx,%eax
ffffffff800078d6:	09 c6                	or     %eax,%esi
ffffffff800078d8:	89 f2                	mov    %esi,%edx
ffffffff800078da:	48 8b 45 f8          	mov    -0x8(%rbp),%rax
ffffffff800078de:	89 90 e0 02 00 00    	mov    %edx,0x2e0(%rax)
ffffffff800078e4:	90                   	nop
ffffffff800078e5:	c9                   	leave
ffffffff800078e6:	c3                   	ret

ffffffff800078e7 <flanterm_fb_set_text_bg_rgb>:
ffffffff800078e7:	55                   	push   %rbp
ffffffff800078e8:	48 89 e5             	mov    %rsp,%rbp
ffffffff800078eb:	48 83 ec 40          	sub    $0x40,%rsp
ffffffff800078ef:	48 89 7d c8          	mov    %rdi,-0x38(%rbp)
ffffffff800078f3:	89 75 c4             	mov    %esi,-0x3c(%rbp)
ffffffff800078f6:	48 8b 45 c8          	mov    -0x38(%rbp),%rax
ffffffff800078fa:	48 89 45 f8          	mov    %rax,-0x8(%rbp)
ffffffff800078fe:	48 8b 45 c8          	mov    -0x38(%rbp),%rax
ffffffff80007902:	48 89 45 f0          	mov    %rax,-0x10(%rbp)
ffffffff80007906:	8b 45 c4             	mov    -0x3c(%rbp),%eax
ffffffff80007909:	89 45 ec             	mov    %eax,-0x14(%rbp)
ffffffff8000790c:	48 8b 45 f0          	mov    -0x10(%rbp),%rax
ffffffff80007910:	48 89 45 e0          	mov    %rax,-0x20(%rbp)
ffffffff80007914:	8b 45 ec             	mov    -0x14(%rbp),%eax
ffffffff80007917:	c1 e8 10             	shr    $0x10,%eax
ffffffff8000791a:	25 ff 00 00 00       	and    $0xff,%eax
ffffffff8000791f:	89 45 dc             	mov    %eax,-0x24(%rbp)
ffffffff80007922:	8b 45 ec             	mov    -0x14(%rbp),%eax
ffffffff80007925:	c1 e8 08             	shr    $0x8,%eax
ffffffff80007928:	25 ff 00 00 00       	and    $0xff,%eax
ffffffff8000792d:	89 45 d8             	mov    %eax,-0x28(%rbp)
ffffffff80007930:	8b 45 ec             	mov    -0x14(%rbp),%eax
ffffffff80007933:	0f b6 c0             	movzbl %al,%eax
ffffffff80007936:	89 45 d4             	mov    %eax,-0x2c(%rbp)
ffffffff80007939:	48 8b 45 e0          	mov    -0x20(%rbp),%rax
ffffffff8000793d:	0f b6 80 21 02 00 00 	movzbl 0x221(%rax),%eax
ffffffff80007944:	0f b6 c0             	movzbl %al,%eax
ffffffff80007947:	8b 55 dc             	mov    -0x24(%rbp),%edx
ffffffff8000794a:	89 d6                	mov    %edx,%esi
ffffffff8000794c:	89 c1                	mov    %eax,%ecx
ffffffff8000794e:	d3 e6                	shl    %cl,%esi
ffffffff80007950:	48 8b 45 e0          	mov    -0x20(%rbp),%rax
ffffffff80007954:	0f b6 80 23 02 00 00 	movzbl 0x223(%rax),%eax
ffffffff8000795b:	0f b6 c0             	movzbl %al,%eax
ffffffff8000795e:	8b 55 d8             	mov    -0x28(%rbp),%edx
ffffffff80007961:	89 c1                	mov    %eax,%ecx
ffffffff80007963:	d3 e2                	shl    %cl,%edx
ffffffff80007965:	89 d0                	mov    %edx,%eax
ffffffff80007967:	09 c6                	or     %eax,%esi
ffffffff80007969:	48 8b 45 e0          	mov    -0x20(%rbp),%rax
ffffffff8000796d:	0f b6 80 25 02 00 00 	movzbl 0x225(%rax),%eax
ffffffff80007974:	0f b6 c0             	movzbl %al,%eax
ffffffff80007977:	8b 55 d4             	mov    -0x2c(%rbp),%edx
ffffffff8000797a:	89 c1                	mov    %eax,%ecx
ffffffff8000797c:	d3 e2                	shl    %cl,%edx
ffffffff8000797e:	89 d0                	mov    %edx,%eax
ffffffff80007980:	09 c6                	or     %eax,%esi
ffffffff80007982:	89 f2                	mov    %esi,%edx
ffffffff80007984:	48 8b 45 f8          	mov    -0x8(%rbp),%rax
ffffffff80007988:	89 90 e4 02 00 00    	mov    %edx,0x2e4(%rax)
ffffffff8000798e:	90                   	nop
ffffffff8000798f:	c9                   	leave
ffffffff80007990:	c3                   	ret

ffffffff80007991 <flanterm_fb_set_text_fg_default>:
ffffffff80007991:	55                   	push   %rbp
ffffffff80007992:	48 89 e5             	mov    %rsp,%rbp
ffffffff80007995:	48 83 ec 18          	sub    $0x18,%rsp
ffffffff80007999:	48 89 7d e8          	mov    %rdi,-0x18(%rbp)
ffffffff8000799d:	48 8b 45 e8          	mov    -0x18(%rbp),%rax
ffffffff800079a1:	48 89 45 f8          	mov    %rax,-0x8(%rbp)
ffffffff800079a5:	48 8b 45 f8          	mov    -0x8(%rbp),%rax
ffffffff800079a9:	8b 90 88 02 00 00    	mov    0x288(%rax),%edx
ffffffff800079af:	48 8b 45 f8          	mov    -0x8(%rbp),%rax
ffffffff800079b3:	89 90 e0 02 00 00    	mov    %edx,0x2e0(%rax)
ffffffff800079b9:	90                   	nop
ffffffff800079ba:	c9                   	leave
ffffffff800079bb:	c3                   	ret

ffffffff800079bc <flanterm_fb_set_text_bg_default>:
ffffffff800079bc:	55                   	push   %rbp
ffffffff800079bd:	48 89 e5             	mov    %rsp,%rbp
ffffffff800079c0:	48 83 ec 18          	sub    $0x18,%rsp
ffffffff800079c4:	48 89 7d e8          	mov    %rdi,-0x18(%rbp)
ffffffff800079c8:	48 8b 45 e8          	mov    -0x18(%rbp),%rax
ffffffff800079cc:	48 89 45 f8          	mov    %rax,-0x8(%rbp)
ffffffff800079d0:	48 8b 45 f8          	mov    -0x8(%rbp),%rax
ffffffff800079d4:	c7 80 e4 02 00 00 ff 	movl   $0xffffffff,0x2e4(%rax)
ffffffff800079db:	ff ff ff 
ffffffff800079de:	90                   	nop
ffffffff800079df:	c9                   	leave
ffffffff800079e0:	c3                   	ret

ffffffff800079e1 <flanterm_fb_set_text_fg_default_bright>:
ffffffff800079e1:	55                   	push   %rbp
ffffffff800079e2:	48 89 e5             	mov    %rsp,%rbp
ffffffff800079e5:	48 83 ec 18          	sub    $0x18,%rsp
ffffffff800079e9:	48 89 7d e8          	mov    %rdi,-0x18(%rbp)
ffffffff800079ed:	48 8b 45 e8          	mov    -0x18(%rbp),%rax
ffffffff800079f1:	48 89 45 f8          	mov    %rax,-0x8(%rbp)
ffffffff800079f5:	48 8b 45 f8          	mov    -0x8(%rbp),%rax
ffffffff800079f9:	8b 90 90 02 00 00    	mov    0x290(%rax),%edx
ffffffff800079ff:	48 8b 45 f8          	mov    -0x8(%rbp),%rax
ffffffff80007a03:	89 90 e0 02 00 00    	mov    %edx,0x2e0(%rax)
ffffffff80007a09:	90                   	nop
ffffffff80007a0a:	c9                   	leave
ffffffff80007a0b:	c3                   	ret

ffffffff80007a0c <flanterm_fb_set_text_bg_default_bright>:
ffffffff80007a0c:	55                   	push   %rbp
ffffffff80007a0d:	48 89 e5             	mov    %rsp,%rbp
ffffffff80007a10:	48 83 ec 18          	sub    $0x18,%rsp
ffffffff80007a14:	48 89 7d e8          	mov    %rdi,-0x18(%rbp)
ffffffff80007a18:	48 8b 45 e8          	mov    -0x18(%rbp),%rax
ffffffff80007a1c:	48 89 45 f8          	mov    %rax,-0x8(%rbp)
ffffffff80007a20:	48 8b 45 f8          	mov    -0x8(%rbp),%rax
ffffffff80007a24:	8b 90 94 02 00 00    	mov    0x294(%rax),%edx
ffffffff80007a2a:	48 8b 45 f8          	mov    -0x8(%rbp),%rax
ffffffff80007a2e:	89 90 e4 02 00 00    	mov    %edx,0x2e4(%rax)
ffffffff80007a34:	90                   	nop
ffffffff80007a35:	c9                   	leave
ffffffff80007a36:	c3                   	ret

ffffffff80007a37 <draw_cursor>:
ffffffff80007a37:	55                   	push   %rbp
ffffffff80007a38:	48 89 e5             	mov    %rsp,%rbp
ffffffff80007a3b:	48 83 ec 40          	sub    $0x40,%rsp
ffffffff80007a3f:	48 89 7d c8          	mov    %rdi,-0x38(%rbp)
ffffffff80007a43:	48 8b 45 c8          	mov    -0x38(%rbp),%rax
ffffffff80007a47:	48 89 45 f8          	mov    %rax,-0x8(%rbp)
ffffffff80007a4b:	48 8b 45 f8          	mov    -0x8(%rbp),%rax
ffffffff80007a4f:	48 8b 90 e8 02 00 00 	mov    0x2e8(%rax),%rdx
ffffffff80007a56:	48 8b 45 c8          	mov    -0x38(%rbp),%rax
ffffffff80007a5a:	48 8b 80 e8 00 00 00 	mov    0xe8(%rax),%rax
ffffffff80007a61:	48 39 c2             	cmp    %rax,%rdx
ffffffff80007a64:	0f 83 47 01 00 00    	jae    ffffffff80007bb1 <draw_cursor+0x17a>
ffffffff80007a6a:	48 8b 45 f8          	mov    -0x8(%rbp),%rax
ffffffff80007a6e:	48 8b 90 f0 02 00 00 	mov    0x2f0(%rax),%rdx
ffffffff80007a75:	48 8b 45 c8          	mov    -0x38(%rbp),%rax
ffffffff80007a79:	48 8b 80 e0 00 00 00 	mov    0xe0(%rax),%rax
ffffffff80007a80:	48 39 c2             	cmp    %rax,%rdx
ffffffff80007a83:	0f 83 28 01 00 00    	jae    ffffffff80007bb1 <draw_cursor+0x17a>
ffffffff80007a89:	48 8b 45 f8          	mov    -0x8(%rbp),%rax
ffffffff80007a8d:	48 8b 88 e8 02 00 00 	mov    0x2e8(%rax),%rcx
ffffffff80007a94:	48 8b 45 f8          	mov    -0x8(%rbp),%rax
ffffffff80007a98:	48 8b 90 f0 02 00 00 	mov    0x2f0(%rax),%rdx
ffffffff80007a9f:	48 8b 45 c8          	mov    -0x38(%rbp),%rax
ffffffff80007aa3:	48 8b 80 e8 00 00 00 	mov    0xe8(%rax),%rax
ffffffff80007aaa:	48 0f af c2          	imul   %rdx,%rax
ffffffff80007aae:	48 01 c8             	add    %rcx,%rax
ffffffff80007ab1:	48 89 45 f0          	mov    %rax,-0x10(%rbp)
ffffffff80007ab5:	48 8b 45 f8          	mov    -0x8(%rbp),%rax
ffffffff80007ab9:	48 8b 80 d8 02 00 00 	mov    0x2d8(%rax),%rax
ffffffff80007ac0:	48 8b 55 f0          	mov    -0x10(%rbp),%rdx
ffffffff80007ac4:	48 c1 e2 03          	shl    $0x3,%rdx
ffffffff80007ac8:	48 01 d0             	add    %rdx,%rax
ffffffff80007acb:	48 8b 00             	mov    (%rax),%rax
ffffffff80007ace:	48 89 45 e8          	mov    %rax,-0x18(%rbp)
ffffffff80007ad2:	48 83 7d e8 00       	cmpq   $0x0,-0x18(%rbp)
ffffffff80007ad7:	74 14                	je     ffffffff80007aed <draw_cursor+0xb6>
ffffffff80007ad9:	48 8b 45 e8          	mov    -0x18(%rbp),%rax
ffffffff80007add:	48 8b 50 10          	mov    0x10(%rax),%rdx
ffffffff80007ae1:	48 89 55 d8          	mov    %rdx,-0x28(%rbp)
ffffffff80007ae5:	8b 40 18             	mov    0x18(%rax),%eax
ffffffff80007ae8:	89 45 e0             	mov    %eax,-0x20(%rbp)
ffffffff80007aeb:	eb 2c                	jmp    ffffffff80007b19 <draw_cursor+0xe2>
ffffffff80007aed:	48 8b 45 f8          	mov    -0x8(%rbp),%rax
ffffffff80007af1:	48 8b 88 c0 02 00 00 	mov    0x2c0(%rax),%rcx
ffffffff80007af8:	48 8b 55 f0          	mov    -0x10(%rbp),%rdx
ffffffff80007afc:	48 89 d0             	mov    %rdx,%rax
ffffffff80007aff:	48 01 c0             	add    %rax,%rax
ffffffff80007b02:	48 01 d0             	add    %rdx,%rax
ffffffff80007b05:	48 c1 e0 02          	shl    $0x2,%rax
ffffffff80007b09:	48 01 c8             	add    %rcx,%rax
ffffffff80007b0c:	48 8b 10             	mov    (%rax),%rdx
ffffffff80007b0f:	48 89 55 d8          	mov    %rdx,-0x28(%rbp)
ffffffff80007b13:	8b 40 08             	mov    0x8(%rax),%eax
ffffffff80007b16:	89 45 e0             	mov    %eax,-0x20(%rbp)
ffffffff80007b19:	8b 45 dc             	mov    -0x24(%rbp),%eax
ffffffff80007b1c:	89 45 e4             	mov    %eax,-0x1c(%rbp)
ffffffff80007b1f:	8b 45 e0             	mov    -0x20(%rbp),%eax
ffffffff80007b22:	89 45 dc             	mov    %eax,-0x24(%rbp)
ffffffff80007b25:	8b 45 e4             	mov    -0x1c(%rbp),%eax
ffffffff80007b28:	89 45 e0             	mov    %eax,-0x20(%rbp)
ffffffff80007b2b:	48 8b 45 f8          	mov    -0x8(%rbp),%rax
ffffffff80007b2f:	4c 8b 80 b0 01 00 00 	mov    0x1b0(%rax),%r8
ffffffff80007b36:	48 8b 45 f8          	mov    -0x8(%rbp),%rax
ffffffff80007b3a:	48 8b 88 f0 02 00 00 	mov    0x2f0(%rax),%rcx
ffffffff80007b41:	48 8b 45 f8          	mov    -0x8(%rbp),%rax
ffffffff80007b45:	48 8b 90 e8 02 00 00 	mov    0x2e8(%rax),%rdx
ffffffff80007b4c:	48 8d 75 d8          	lea    -0x28(%rbp),%rsi
ffffffff80007b50:	48 8b 45 c8          	mov    -0x38(%rbp),%rax
ffffffff80007b54:	48 89 c7             	mov    %rax,%rdi
ffffffff80007b57:	41 ff d0             	call   *%r8
ffffffff80007b5a:	48 83 7d e8 00       	cmpq   $0x0,-0x18(%rbp)
ffffffff80007b5f:	74 51                	je     ffffffff80007bb2 <draw_cursor+0x17b>
ffffffff80007b61:	48 8b 45 f8          	mov    -0x8(%rbp),%rax
ffffffff80007b65:	48 8b 88 c0 02 00 00 	mov    0x2c0(%rax),%rcx
ffffffff80007b6c:	48 8b 55 f0          	mov    -0x10(%rbp),%rdx
ffffffff80007b70:	48 89 d0             	mov    %rdx,%rax
ffffffff80007b73:	48 01 c0             	add    %rax,%rax
ffffffff80007b76:	48 01 d0             	add    %rdx,%rax
ffffffff80007b79:	48 c1 e0 02          	shl    $0x2,%rax
ffffffff80007b7d:	48 8d 14 01          	lea    (%rcx,%rax,1),%rdx
ffffffff80007b81:	48 8b 45 e8          	mov    -0x18(%rbp),%rax
ffffffff80007b85:	48 8b 48 10          	mov    0x10(%rax),%rcx
ffffffff80007b89:	48 89 0a             	mov    %rcx,(%rdx)
ffffffff80007b8c:	8b 40 18             	mov    0x18(%rax),%eax
ffffffff80007b8f:	89 42 08             	mov    %eax,0x8(%rdx)
ffffffff80007b92:	48 8b 45 f8          	mov    -0x8(%rbp),%rax
ffffffff80007b96:	48 8b 80 d8 02 00 00 	mov    0x2d8(%rax),%rax
ffffffff80007b9d:	48 8b 55 f0          	mov    -0x10(%rbp),%rdx
ffffffff80007ba1:	48 c1 e2 03          	shl    $0x3,%rdx
ffffffff80007ba5:	48 01 d0             	add    %rdx,%rax
ffffffff80007ba8:	48 c7 00 00 00 00 00 	movq   $0x0,(%rax)
ffffffff80007baf:	eb 01                	jmp    ffffffff80007bb2 <draw_cursor+0x17b>
ffffffff80007bb1:	90                   	nop
ffffffff80007bb2:	c9                   	leave
ffffffff80007bb3:	c3                   	ret

ffffffff80007bb4 <flanterm_fb_double_buffer_flush>:
ffffffff80007bb4:	55                   	push   %rbp
ffffffff80007bb5:	48 89 e5             	mov    %rsp,%rbp
ffffffff80007bb8:	48 83 ec 30          	sub    $0x30,%rsp
ffffffff80007bbc:	48 89 7d d8          	mov    %rdi,-0x28(%rbp)
ffffffff80007bc0:	48 8b 45 d8          	mov    -0x28(%rbp),%rax
ffffffff80007bc4:	48 89 45 f0          	mov    %rax,-0x10(%rbp)
ffffffff80007bc8:	48 8b 45 d8          	mov    -0x28(%rbp),%rax
ffffffff80007bcc:	0f b6 40 09          	movzbl 0x9(%rax),%eax
ffffffff80007bd0:	84 c0                	test   %al,%al
ffffffff80007bd2:	74 0c                	je     ffffffff80007be0 <flanterm_fb_double_buffer_flush+0x2c>
ffffffff80007bd4:	48 8b 45 d8          	mov    -0x28(%rbp),%rax
ffffffff80007bd8:	48 89 c7             	mov    %rax,%rdi
ffffffff80007bdb:	e8 57 fe ff ff       	call   ffffffff80007a37 <draw_cursor>
ffffffff80007be0:	48 c7 45 f8 00 00 00 	movq   $0x0,-0x8(%rbp)
ffffffff80007be7:	00 
ffffffff80007be8:	e9 df 00 00 00       	jmp    ffffffff80007ccc <flanterm_fb_double_buffer_flush+0x118>
ffffffff80007bed:	48 8b 45 f0          	mov    -0x10(%rbp),%rax
ffffffff80007bf1:	48 8b 80 c8 02 00 00 	mov    0x2c8(%rax),%rax
ffffffff80007bf8:	48 8b 55 f8          	mov    -0x8(%rbp),%rdx
ffffffff80007bfc:	48 c1 e2 05          	shl    $0x5,%rdx
ffffffff80007c00:	48 01 d0             	add    %rdx,%rax
ffffffff80007c03:	48 89 45 e8          	mov    %rax,-0x18(%rbp)
ffffffff80007c07:	48 8b 45 e8          	mov    -0x18(%rbp),%rax
ffffffff80007c0b:	48 8b 50 08          	mov    0x8(%rax),%rdx
ffffffff80007c0f:	48 8b 45 d8          	mov    -0x28(%rbp),%rax
ffffffff80007c13:	48 8b 80 e8 00 00 00 	mov    0xe8(%rax),%rax
ffffffff80007c1a:	48 0f af d0          	imul   %rax,%rdx
ffffffff80007c1e:	48 8b 45 e8          	mov    -0x18(%rbp),%rax
ffffffff80007c22:	48 8b 00             	mov    (%rax),%rax
ffffffff80007c25:	48 01 d0             	add    %rdx,%rax
ffffffff80007c28:	48 89 45 e0          	mov    %rax,-0x20(%rbp)
ffffffff80007c2c:	48 8b 45 f0          	mov    -0x10(%rbp),%rax
ffffffff80007c30:	48 8b 80 d8 02 00 00 	mov    0x2d8(%rax),%rax
ffffffff80007c37:	48 8b 55 e0          	mov    -0x20(%rbp),%rdx
ffffffff80007c3b:	48 c1 e2 03          	shl    $0x3,%rdx
ffffffff80007c3f:	48 01 d0             	add    %rdx,%rax
ffffffff80007c42:	48 8b 00             	mov    (%rax),%rax
ffffffff80007c45:	48 85 c0             	test   %rax,%rax
ffffffff80007c48:	74 7c                	je     ffffffff80007cc6 <flanterm_fb_double_buffer_flush+0x112>
ffffffff80007c4a:	48 8b 45 f0          	mov    -0x10(%rbp),%rax
ffffffff80007c4e:	4c 8b 80 b0 01 00 00 	mov    0x1b0(%rax),%r8
ffffffff80007c55:	48 8b 45 e8          	mov    -0x18(%rbp),%rax
ffffffff80007c59:	48 8b 48 08          	mov    0x8(%rax),%rcx
ffffffff80007c5d:	48 8b 45 e8          	mov    -0x18(%rbp),%rax
ffffffff80007c61:	48 8b 10             	mov    (%rax),%rdx
ffffffff80007c64:	48 8b 45 e8          	mov    -0x18(%rbp),%rax
ffffffff80007c68:	48 8d 70 10          	lea    0x10(%rax),%rsi
ffffffff80007c6c:	48 8b 45 d8          	mov    -0x28(%rbp),%rax
ffffffff80007c70:	48 89 c7             	mov    %rax,%rdi
ffffffff80007c73:	41 ff d0             	call   *%r8
ffffffff80007c76:	48 8b 45 f0          	mov    -0x10(%rbp),%rax
ffffffff80007c7a:	48 8b 88 c0 02 00 00 	mov    0x2c0(%rax),%rcx
ffffffff80007c81:	48 8b 55 e0          	mov    -0x20(%rbp),%rdx
ffffffff80007c85:	48 89 d0             	mov    %rdx,%rax
ffffffff80007c88:	48 01 c0             	add    %rax,%rax
ffffffff80007c8b:	48 01 d0             	add    %rdx,%rax
ffffffff80007c8e:	48 c1 e0 02          	shl    $0x2,%rax
ffffffff80007c92:	48 8d 14 01          	lea    (%rcx,%rax,1),%rdx
ffffffff80007c96:	48 8b 45 e8          	mov    -0x18(%rbp),%rax
ffffffff80007c9a:	48 8b 48 10          	mov    0x10(%rax),%rcx
ffffffff80007c9e:	48 89 0a             	mov    %rcx,(%rdx)
ffffffff80007ca1:	8b 40 18             	mov    0x18(%rax),%eax
ffffffff80007ca4:	89 42 08             	mov    %eax,0x8(%rdx)
ffffffff80007ca7:	48 8b 45 f0          	mov    -0x10(%rbp),%rax
ffffffff80007cab:	48 8b 80 d8 02 00 00 	mov    0x2d8(%rax),%rax
ffffffff80007cb2:	48 8b 55 e0          	mov    -0x20(%rbp),%rdx
ffffffff80007cb6:	48 c1 e2 03          	shl    $0x3,%rdx
ffffffff80007cba:	48 01 d0             	add    %rdx,%rax
ffffffff80007cbd:	48 c7 00 00 00 00 00 	movq   $0x0,(%rax)
ffffffff80007cc4:	eb 01                	jmp    ffffffff80007cc7 <flanterm_fb_double_buffer_flush+0x113>
ffffffff80007cc6:	90                   	nop
ffffffff80007cc7:	48 83 45 f8 01       	addq   $0x1,-0x8(%rbp)
ffffffff80007ccc:	48 8b 45 f0          	mov    -0x10(%rbp),%rax
ffffffff80007cd0:	48 8b 80 d0 02 00 00 	mov    0x2d0(%rax),%rax
ffffffff80007cd7:	48 39 45 f8          	cmp    %rax,-0x8(%rbp)
ffffffff80007cdb:	0f 82 0c ff ff ff    	jb     ffffffff80007bed <flanterm_fb_double_buffer_flush+0x39>
ffffffff80007ce1:	48 8b 45 f0          	mov    -0x10(%rbp),%rax
ffffffff80007ce5:	48 8b 90 10 03 00 00 	mov    0x310(%rax),%rdx
ffffffff80007cec:	48 8b 45 f0          	mov    -0x10(%rbp),%rax
ffffffff80007cf0:	48 8b 80 e8 02 00 00 	mov    0x2e8(%rax),%rax
ffffffff80007cf7:	48 39 c2             	cmp    %rax,%rdx
ffffffff80007cfa:	75 2e                	jne    ffffffff80007d2a <flanterm_fb_double_buffer_flush+0x176>
ffffffff80007cfc:	48 8b 45 f0          	mov    -0x10(%rbp),%rax
ffffffff80007d00:	48 8b 90 18 03 00 00 	mov    0x318(%rax),%rdx
ffffffff80007d07:	48 8b 45 f0          	mov    -0x10(%rbp),%rax
ffffffff80007d0b:	48 8b 80 f0 02 00 00 	mov    0x2f0(%rax),%rax
ffffffff80007d12:	48 39 c2             	cmp    %rax,%rdx
ffffffff80007d15:	75 13                	jne    ffffffff80007d2a <flanterm_fb_double_buffer_flush+0x176>
ffffffff80007d17:	48 8b 45 d8          	mov    -0x28(%rbp),%rax
ffffffff80007d1b:	0f b6 40 09          	movzbl 0x9(%rax),%eax
ffffffff80007d1f:	83 f0 01             	xor    $0x1,%eax
ffffffff80007d22:	84 c0                	test   %al,%al
ffffffff80007d24:	0f 84 af 00 00 00    	je     ffffffff80007dd9 <flanterm_fb_double_buffer_flush+0x225>
ffffffff80007d2a:	48 8b 45 f0          	mov    -0x10(%rbp),%rax
ffffffff80007d2e:	48 8b 90 10 03 00 00 	mov    0x310(%rax),%rdx
ffffffff80007d35:	48 8b 45 d8          	mov    -0x28(%rbp),%rax
ffffffff80007d39:	48 8b 80 e8 00 00 00 	mov    0xe8(%rax),%rax
ffffffff80007d40:	48 39 c2             	cmp    %rax,%rdx
ffffffff80007d43:	0f 83 90 00 00 00    	jae    ffffffff80007dd9 <flanterm_fb_double_buffer_flush+0x225>
ffffffff80007d49:	48 8b 45 f0          	mov    -0x10(%rbp),%rax
ffffffff80007d4d:	48 8b 90 18 03 00 00 	mov    0x318(%rax),%rdx
ffffffff80007d54:	48 8b 45 d8          	mov    -0x28(%rbp),%rax
ffffffff80007d58:	48 8b 80 e0 00 00 00 	mov    0xe0(%rax),%rax
ffffffff80007d5f:	48 39 c2             	cmp    %rax,%rdx
ffffffff80007d62:	73 75                	jae    ffffffff80007dd9 <flanterm_fb_double_buffer_flush+0x225>
ffffffff80007d64:	48 8b 45 f0          	mov    -0x10(%rbp),%rax
ffffffff80007d68:	4c 8b 80 b0 01 00 00 	mov    0x1b0(%rax),%r8
ffffffff80007d6f:	48 8b 45 f0          	mov    -0x10(%rbp),%rax
ffffffff80007d73:	48 8b 88 18 03 00 00 	mov    0x318(%rax),%rcx
ffffffff80007d7a:	48 8b 45 f0          	mov    -0x10(%rbp),%rax
ffffffff80007d7e:	48 8b b0 10 03 00 00 	mov    0x310(%rax),%rsi
ffffffff80007d85:	48 8b 45 f0          	mov    -0x10(%rbp),%rax
ffffffff80007d89:	48 8b b8 c0 02 00 00 	mov    0x2c0(%rax),%rdi
ffffffff80007d90:	48 8b 45 f0          	mov    -0x10(%rbp),%rax
ffffffff80007d94:	4c 8b 88 10 03 00 00 	mov    0x310(%rax),%r9
ffffffff80007d9b:	48 8b 45 f0          	mov    -0x10(%rbp),%rax
ffffffff80007d9f:	48 8b 90 18 03 00 00 	mov    0x318(%rax),%rdx
ffffffff80007da6:	48 8b 45 d8          	mov    -0x28(%rbp),%rax
ffffffff80007daa:	48 8b 80 e8 00 00 00 	mov    0xe8(%rax),%rax
ffffffff80007db1:	48 0f af c2          	imul   %rdx,%rax
ffffffff80007db5:	49 8d 14 01          	lea    (%r9,%rax,1),%rdx
ffffffff80007db9:	48 89 d0             	mov    %rdx,%rax
ffffffff80007dbc:	48 01 c0             	add    %rax,%rax
ffffffff80007dbf:	48 01 d0             	add    %rdx,%rax
ffffffff80007dc2:	48 c1 e0 02          	shl    $0x2,%rax
ffffffff80007dc6:	48 01 c7             	add    %rax,%rdi
ffffffff80007dc9:	48 8b 45 d8          	mov    -0x28(%rbp),%rax
ffffffff80007dcd:	48 89 f2             	mov    %rsi,%rdx
ffffffff80007dd0:	48 89 fe             	mov    %rdi,%rsi
ffffffff80007dd3:	48 89 c7             	mov    %rax,%rdi
ffffffff80007dd6:	41 ff d0             	call   *%r8
ffffffff80007dd9:	48 8b 45 f0          	mov    -0x10(%rbp),%rax
ffffffff80007ddd:	48 8b 90 e8 02 00 00 	mov    0x2e8(%rax),%rdx
ffffffff80007de4:	48 8b 45 f0          	mov    -0x10(%rbp),%rax
ffffffff80007de8:	48 89 90 10 03 00 00 	mov    %rdx,0x310(%rax)
ffffffff80007def:	48 8b 45 f0          	mov    -0x10(%rbp),%rax
ffffffff80007df3:	48 8b 90 f0 02 00 00 	mov    0x2f0(%rax),%rdx
ffffffff80007dfa:	48 8b 45 f0          	mov    -0x10(%rbp),%rax
ffffffff80007dfe:	48 89 90 18 03 00 00 	mov    %rdx,0x318(%rax)
ffffffff80007e05:	48 8b 45 f0          	mov    -0x10(%rbp),%rax
ffffffff80007e09:	48 c7 80 d0 02 00 00 	movq   $0x0,0x2d0(%rax)
ffffffff80007e10:	00 00 00 00 
ffffffff80007e14:	90                   	nop
ffffffff80007e15:	c9                   	leave
ffffffff80007e16:	c3                   	ret

ffffffff80007e17 <flanterm_fb_raw_putchar>:
ffffffff80007e17:	55                   	push   %rbp
ffffffff80007e18:	48 89 e5             	mov    %rsp,%rbp
ffffffff80007e1b:	48 83 ec 30          	sub    $0x30,%rsp
ffffffff80007e1f:	48 89 7d d8          	mov    %rdi,-0x28(%rbp)
ffffffff80007e23:	89 f0                	mov    %esi,%eax
ffffffff80007e25:	88 45 d4             	mov    %al,-0x2c(%rbp)
ffffffff80007e28:	48 8b 45 d8          	mov    -0x28(%rbp),%rax
ffffffff80007e2c:	48 89 45 f8          	mov    %rax,-0x8(%rbp)
ffffffff80007e30:	48 8b 45 f8          	mov    -0x8(%rbp),%rax
ffffffff80007e34:	48 8b 90 e8 02 00 00 	mov    0x2e8(%rax),%rdx
ffffffff80007e3b:	48 8b 45 d8          	mov    -0x28(%rbp),%rax
ffffffff80007e3f:	48 8b 80 e8 00 00 00 	mov    0xe8(%rax),%rax
ffffffff80007e46:	48 39 c2             	cmp    %rax,%rdx
ffffffff80007e49:	0f 82 c8 00 00 00    	jb     ffffffff80007f17 <flanterm_fb_raw_putchar+0x100>
ffffffff80007e4f:	48 8b 45 f8          	mov    -0x8(%rbp),%rax
ffffffff80007e53:	48 8b 90 f0 02 00 00 	mov    0x2f0(%rax),%rdx
ffffffff80007e5a:	48 8b 45 d8          	mov    -0x28(%rbp),%rax
ffffffff80007e5e:	48 8b 40 70          	mov    0x70(%rax),%rax
ffffffff80007e62:	48 83 e8 01          	sub    $0x1,%rax
ffffffff80007e66:	48 39 c2             	cmp    %rax,%rdx
ffffffff80007e69:	72 10                	jb     ffffffff80007e7b <flanterm_fb_raw_putchar+0x64>
ffffffff80007e6b:	48 8b 45 d8          	mov    -0x28(%rbp),%rax
ffffffff80007e6f:	0f b6 40 0a          	movzbl 0xa(%rax),%eax
ffffffff80007e73:	84 c0                	test   %al,%al
ffffffff80007e75:	0f 84 9c 00 00 00    	je     ffffffff80007f17 <flanterm_fb_raw_putchar+0x100>
ffffffff80007e7b:	48 8b 45 f8          	mov    -0x8(%rbp),%rax
ffffffff80007e7f:	48 c7 80 e8 02 00 00 	movq   $0x0,0x2e8(%rax)
ffffffff80007e86:	00 00 00 00 
ffffffff80007e8a:	48 8b 45 f8          	mov    -0x8(%rbp),%rax
ffffffff80007e8e:	48 8b 80 f0 02 00 00 	mov    0x2f0(%rax),%rax
ffffffff80007e95:	48 8d 50 01          	lea    0x1(%rax),%rdx
ffffffff80007e99:	48 8b 45 f8          	mov    -0x8(%rbp),%rax
ffffffff80007e9d:	48 89 90 f0 02 00 00 	mov    %rdx,0x2f0(%rax)
ffffffff80007ea4:	48 8b 45 f8          	mov    -0x8(%rbp),%rax
ffffffff80007ea8:	48 8b 90 f0 02 00 00 	mov    0x2f0(%rax),%rdx
ffffffff80007eaf:	48 8b 45 d8          	mov    -0x28(%rbp),%rax
ffffffff80007eb3:	48 8b 40 70          	mov    0x70(%rax),%rax
ffffffff80007eb7:	48 39 c2             	cmp    %rax,%rdx
ffffffff80007eba:	75 26                	jne    ffffffff80007ee2 <flanterm_fb_raw_putchar+0xcb>
ffffffff80007ebc:	48 8b 45 f8          	mov    -0x8(%rbp),%rax
ffffffff80007ec0:	48 8b 80 f0 02 00 00 	mov    0x2f0(%rax),%rax
ffffffff80007ec7:	48 8d 50 ff          	lea    -0x1(%rax),%rdx
ffffffff80007ecb:	48 8b 45 f8          	mov    -0x8(%rbp),%rax
ffffffff80007ecf:	48 89 90 f0 02 00 00 	mov    %rdx,0x2f0(%rax)
ffffffff80007ed6:	48 8b 45 d8          	mov    -0x28(%rbp),%rax
ffffffff80007eda:	48 89 c7             	mov    %rax,%rdi
ffffffff80007edd:	e8 da f3 ff ff       	call   ffffffff800072bc <flanterm_fb_scroll>
ffffffff80007ee2:	48 8b 45 f8          	mov    -0x8(%rbp),%rax
ffffffff80007ee6:	48 8b 90 f0 02 00 00 	mov    0x2f0(%rax),%rdx
ffffffff80007eed:	48 8b 45 d8          	mov    -0x28(%rbp),%rax
ffffffff80007ef1:	48 8b 80 e8 00 00 00 	mov    0xe8(%rax),%rax
ffffffff80007ef8:	48 39 c2             	cmp    %rax,%rdx
ffffffff80007efb:	72 1a                	jb     ffffffff80007f17 <flanterm_fb_raw_putchar+0x100>
ffffffff80007efd:	48 8b 45 d8          	mov    -0x28(%rbp),%rax
ffffffff80007f01:	48 8b 80 e8 00 00 00 	mov    0xe8(%rax),%rax
ffffffff80007f08:	48 8d 50 ff          	lea    -0x1(%rax),%rdx
ffffffff80007f0c:	48 8b 45 f8          	mov    -0x8(%rbp),%rax
ffffffff80007f10:	48 89 90 f0 02 00 00 	mov    %rdx,0x2f0(%rax)
ffffffff80007f17:	0f b6 45 d4          	movzbl -0x2c(%rbp),%eax
ffffffff80007f1b:	89 45 ec             	mov    %eax,-0x14(%rbp)
ffffffff80007f1e:	48 8b 45 f8          	mov    -0x8(%rbp),%rax
ffffffff80007f22:	8b 80 e0 02 00 00    	mov    0x2e0(%rax),%eax
ffffffff80007f28:	89 45 f0             	mov    %eax,-0x10(%rbp)
ffffffff80007f2b:	48 8b 45 f8          	mov    -0x8(%rbp),%rax
ffffffff80007f2f:	8b 80 e4 02 00 00    	mov    0x2e4(%rax),%eax
ffffffff80007f35:	89 45 f4             	mov    %eax,-0xc(%rbp)
ffffffff80007f38:	48 8b 45 f8          	mov    -0x8(%rbp),%rax
ffffffff80007f3c:	48 8b 90 f0 02 00 00 	mov    0x2f0(%rax),%rdx
ffffffff80007f43:	48 8b 45 f8          	mov    -0x8(%rbp),%rax
ffffffff80007f47:	48 8b 80 e8 02 00 00 	mov    0x2e8(%rax),%rax
ffffffff80007f4e:	48 8d 70 01          	lea    0x1(%rax),%rsi
ffffffff80007f52:	48 8b 4d f8          	mov    -0x8(%rbp),%rcx
ffffffff80007f56:	48 89 b1 e8 02 00 00 	mov    %rsi,0x2e8(%rcx)
ffffffff80007f5d:	48 8d 75 ec          	lea    -0x14(%rbp),%rsi
ffffffff80007f61:	48 8b 7d d8          	mov    -0x28(%rbp),%rdi
ffffffff80007f65:	48 89 d1             	mov    %rdx,%rcx
ffffffff80007f68:	48 89 c2             	mov    %rax,%rdx
ffffffff80007f6b:	e8 7b f0 ff ff       	call   ffffffff80006feb <push_to_queue>
ffffffff80007f70:	90                   	nop
ffffffff80007f71:	c9                   	leave
ffffffff80007f72:	c3                   	ret

ffffffff80007f73 <flanterm_fb_full_refresh>:
ffffffff80007f73:	55                   	push   %rbp
ffffffff80007f74:	48 89 e5             	mov    %rsp,%rbp
ffffffff80007f77:	48 83 ec 50          	sub    $0x50,%rsp
ffffffff80007f7b:	48 89 7d b8          	mov    %rdi,-0x48(%rbp)
ffffffff80007f7f:	48 8b 45 b8          	mov    -0x48(%rbp),%rax
ffffffff80007f83:	48 89 45 e0          	mov    %rax,-0x20(%rbp)
ffffffff80007f87:	48 8b 45 e0          	mov    -0x20(%rbp),%rax
ffffffff80007f8b:	8b 80 8c 02 00 00    	mov    0x28c(%rax),%eax
ffffffff80007f91:	89 45 dc             	mov    %eax,-0x24(%rbp)
ffffffff80007f94:	48 c7 45 f8 00 00 00 	movq   $0x0,-0x8(%rbp)
ffffffff80007f9b:	00 
ffffffff80007f9c:	e9 d4 00 00 00       	jmp    ffffffff80008075 <flanterm_fb_full_refresh+0x102>
ffffffff80007fa1:	48 c7 45 f0 00 00 00 	movq   $0x0,-0x10(%rbp)
ffffffff80007fa8:	00 
ffffffff80007fa9:	e9 ad 00 00 00       	jmp    ffffffff8000805b <flanterm_fb_full_refresh+0xe8>
ffffffff80007fae:	48 8b 45 e0          	mov    -0x20(%rbp),%rax
ffffffff80007fb2:	48 8b 80 a0 02 00 00 	mov    0x2a0(%rax),%rax
ffffffff80007fb9:	48 85 c0             	test   %rax,%rax
ffffffff80007fbc:	74 63                	je     ffffffff80008021 <flanterm_fb_full_refresh+0xae>
ffffffff80007fbe:	48 8b 45 e0          	mov    -0x20(%rbp),%rax
ffffffff80007fc2:	48 8b 90 a0 02 00 00 	mov    0x2a0(%rax),%rdx
ffffffff80007fc9:	48 8b 45 e0          	mov    -0x20(%rbp),%rax
ffffffff80007fcd:	48 8b 80 08 02 00 00 	mov    0x208(%rax),%rax
ffffffff80007fd4:	48 0f af 45 f8       	imul   -0x8(%rbp),%rax
ffffffff80007fd9:	48 89 c1             	mov    %rax,%rcx
ffffffff80007fdc:	48 8b 45 f0          	mov    -0x10(%rbp),%rax
ffffffff80007fe0:	48 01 c8             	add    %rcx,%rax
ffffffff80007fe3:	48 c1 e0 02          	shl    $0x2,%rax
ffffffff80007fe7:	48 8d 0c 02          	lea    (%rdx,%rax,1),%rcx
ffffffff80007feb:	48 8b 45 e0          	mov    -0x20(%rbp),%rax
ffffffff80007fef:	48 8b 90 f8 01 00 00 	mov    0x1f8(%rax),%rdx
ffffffff80007ff6:	48 8b 45 e0          	mov    -0x20(%rbp),%rax
ffffffff80007ffa:	48 8b 80 00 02 00 00 	mov    0x200(%rax),%rax
ffffffff80008001:	48 c1 e8 02          	shr    $0x2,%rax
ffffffff80008005:	48 0f af 45 f8       	imul   -0x8(%rbp),%rax
ffffffff8000800a:	48 89 c6             	mov    %rax,%rsi
ffffffff8000800d:	48 8b 45 f0          	mov    -0x10(%rbp),%rax
ffffffff80008011:	48 01 f0             	add    %rsi,%rax
ffffffff80008014:	48 c1 e0 02          	shl    $0x2,%rax
ffffffff80008018:	48 01 c2             	add    %rax,%rdx
ffffffff8000801b:	8b 01                	mov    (%rcx),%eax
ffffffff8000801d:	89 02                	mov    %eax,(%rdx)
ffffffff8000801f:	eb 35                	jmp    ffffffff80008056 <flanterm_fb_full_refresh+0xe3>
ffffffff80008021:	48 8b 45 e0          	mov    -0x20(%rbp),%rax
ffffffff80008025:	48 8b 90 f8 01 00 00 	mov    0x1f8(%rax),%rdx
ffffffff8000802c:	48 8b 45 e0          	mov    -0x20(%rbp),%rax
ffffffff80008030:	48 8b 80 00 02 00 00 	mov    0x200(%rax),%rax
ffffffff80008037:	48 c1 e8 02          	shr    $0x2,%rax
ffffffff8000803b:	48 0f af 45 f8       	imul   -0x8(%rbp),%rax
ffffffff80008040:	48 89 c1             	mov    %rax,%rcx
ffffffff80008043:	48 8b 45 f0          	mov    -0x10(%rbp),%rax
ffffffff80008047:	48 01 c8             	add    %rcx,%rax
ffffffff8000804a:	48 c1 e0 02          	shl    $0x2,%rax
ffffffff8000804e:	48 01 c2             	add    %rax,%rdx
ffffffff80008051:	8b 45 dc             	mov    -0x24(%rbp),%eax
ffffffff80008054:	89 02                	mov    %eax,(%rdx)
ffffffff80008056:	48 83 45 f0 01       	addq   $0x1,-0x10(%rbp)
ffffffff8000805b:	48 8b 45 e0          	mov    -0x20(%rbp),%rax
ffffffff8000805f:	48 8b 80 08 02 00 00 	mov    0x208(%rax),%rax
ffffffff80008066:	48 39 45 f0          	cmp    %rax,-0x10(%rbp)
ffffffff8000806a:	0f 82 3e ff ff ff    	jb     ffffffff80007fae <flanterm_fb_full_refresh+0x3b>
ffffffff80008070:	48 83 45 f8 01       	addq   $0x1,-0x8(%rbp)
ffffffff80008075:	48 8b 45 e0          	mov    -0x20(%rbp),%rax
ffffffff80008079:	48 8b 80 10 02 00 00 	mov    0x210(%rax),%rax
ffffffff80008080:	48 39 45 f8          	cmp    %rax,-0x8(%rbp)
ffffffff80008084:	0f 82 17 ff ff ff    	jb     ffffffff80007fa1 <flanterm_fb_full_refresh+0x2e>
ffffffff8000808a:	48 c7 45 e8 00 00 00 	movq   $0x0,-0x18(%rbp)
ffffffff80008091:	00 
ffffffff80008092:	eb 78                	jmp    ffffffff8000810c <flanterm_fb_full_refresh+0x199>
ffffffff80008094:	48 8b 45 b8          	mov    -0x48(%rbp),%rax
ffffffff80008098:	48 8b 88 e8 00 00 00 	mov    0xe8(%rax),%rcx
ffffffff8000809f:	48 8b 45 e8          	mov    -0x18(%rbp),%rax
ffffffff800080a3:	ba 00 00 00 00       	mov    $0x0,%edx
ffffffff800080a8:	48 f7 f1             	div    %rcx
ffffffff800080ab:	48 89 55 d0          	mov    %rdx,-0x30(%rbp)
ffffffff800080af:	48 8b 45 b8          	mov    -0x48(%rbp),%rax
ffffffff800080b3:	48 8b b8 e8 00 00 00 	mov    0xe8(%rax),%rdi
ffffffff800080ba:	48 8b 45 e8          	mov    -0x18(%rbp),%rax
ffffffff800080be:	ba 00 00 00 00       	mov    $0x0,%edx
ffffffff800080c3:	48 f7 f7             	div    %rdi
ffffffff800080c6:	48 89 45 c8          	mov    %rax,-0x38(%rbp)
ffffffff800080ca:	48 8b 45 e0          	mov    -0x20(%rbp),%rax
ffffffff800080ce:	4c 8b 80 b0 01 00 00 	mov    0x1b0(%rax),%r8
ffffffff800080d5:	48 8b 45 e0          	mov    -0x20(%rbp),%rax
ffffffff800080d9:	48 8b 88 c0 02 00 00 	mov    0x2c0(%rax),%rcx
ffffffff800080e0:	48 8b 55 e8          	mov    -0x18(%rbp),%rdx
ffffffff800080e4:	48 89 d0             	mov    %rdx,%rax
ffffffff800080e7:	48 01 c0             	add    %rax,%rax
ffffffff800080ea:	48 01 d0             	add    %rdx,%rax
ffffffff800080ed:	48 c1 e0 02          	shl    $0x2,%rax
ffffffff800080f1:	48 8d 34 01          	lea    (%rcx,%rax,1),%rsi
ffffffff800080f5:	48 8b 4d c8          	mov    -0x38(%rbp),%rcx
ffffffff800080f9:	48 8b 55 d0          	mov    -0x30(%rbp),%rdx
ffffffff800080fd:	48 8b 45 b8          	mov    -0x48(%rbp),%rax
ffffffff80008101:	48 89 c7             	mov    %rax,%rdi
ffffffff80008104:	41 ff d0             	call   *%r8
ffffffff80008107:	48 83 45 e8 01       	addq   $0x1,-0x18(%rbp)
ffffffff8000810c:	48 8b 45 b8          	mov    -0x48(%rbp),%rax
ffffffff80008110:	48 8b 90 e0 00 00 00 	mov    0xe0(%rax),%rdx
ffffffff80008117:	48 8b 45 b8          	mov    -0x48(%rbp),%rax
ffffffff8000811b:	48 8b 80 e8 00 00 00 	mov    0xe8(%rax),%rax
ffffffff80008122:	48 0f af c2          	imul   %rdx,%rax
ffffffff80008126:	48 39 45 e8          	cmp    %rax,-0x18(%rbp)
ffffffff8000812a:	0f 82 64 ff ff ff    	jb     ffffffff80008094 <flanterm_fb_full_refresh+0x121>
ffffffff80008130:	48 8b 45 b8          	mov    -0x48(%rbp),%rax
ffffffff80008134:	0f b6 40 09          	movzbl 0x9(%rax),%eax
ffffffff80008138:	84 c0                	test   %al,%al
ffffffff8000813a:	74 0c                	je     ffffffff80008148 <flanterm_fb_full_refresh+0x1d5>
ffffffff8000813c:	48 8b 45 b8          	mov    -0x48(%rbp),%rax
ffffffff80008140:	48 89 c7             	mov    %rax,%rdi
ffffffff80008143:	e8 ef f8 ff ff       	call   ffffffff80007a37 <draw_cursor>
ffffffff80008148:	90                   	nop
ffffffff80008149:	c9                   	leave
ffffffff8000814a:	c3                   	ret

ffffffff8000814b <flanterm_fb_deinit>:
ffffffff8000814b:	55                   	push   %rbp
ffffffff8000814c:	48 89 e5             	mov    %rsp,%rbp
ffffffff8000814f:	48 83 ec 20          	sub    $0x20,%rsp
ffffffff80008153:	48 89 7d e8          	mov    %rdi,-0x18(%rbp)
ffffffff80008157:	48 89 75 e0          	mov    %rsi,-0x20(%rbp)
ffffffff8000815b:	48 8b 45 e8          	mov    -0x18(%rbp),%rax
ffffffff8000815f:	48 89 45 f8          	mov    %rax,-0x8(%rbp)
ffffffff80008163:	48 83 7d e0 00       	cmpq   $0x0,-0x20(%rbp)
ffffffff80008168:	75 26                	jne    ffffffff80008190 <flanterm_fb_deinit+0x45>
ffffffff8000816a:	0f b6 05 7f c1 0d 00 	movzbl 0xdc17f(%rip),%eax        # ffffffff800e42f0 <bump_allocated_instance>
ffffffff80008171:	84 c0                	test   %al,%al
ffffffff80008173:	0f 84 07 01 00 00    	je     ffffffff80008280 <flanterm_fb_deinit+0x135>
ffffffff80008179:	48 c7 05 64 c1 0d 00 	movq   $0x0,0xdc164(%rip)        # ffffffff800e42e8 <bump_alloc_ptr>
ffffffff80008180:	00 00 00 00 
ffffffff80008184:	c6 05 65 c1 0d 00 00 	movb   $0x0,0xdc165(%rip)        # ffffffff800e42f0 <bump_allocated_instance>
ffffffff8000818b:	e9 f0 00 00 00       	jmp    ffffffff80008280 <flanterm_fb_deinit+0x135>
ffffffff80008190:	48 8b 45 f8          	mov    -0x8(%rbp),%rax
ffffffff80008194:	48 8b 90 28 02 00 00 	mov    0x228(%rax),%rdx
ffffffff8000819b:	48 8b 45 f8          	mov    -0x8(%rbp),%rax
ffffffff8000819f:	48 8b 80 30 02 00 00 	mov    0x230(%rax),%rax
ffffffff800081a6:	48 8b 4d e0          	mov    -0x20(%rbp),%rcx
ffffffff800081aa:	48 89 d6             	mov    %rdx,%rsi
ffffffff800081ad:	48 89 c7             	mov    %rax,%rdi
ffffffff800081b0:	ff d1                	call   *%rcx
ffffffff800081b2:	48 8b 45 f8          	mov    -0x8(%rbp),%rax
ffffffff800081b6:	48 8b 90 38 02 00 00 	mov    0x238(%rax),%rdx
ffffffff800081bd:	48 8b 45 f8          	mov    -0x8(%rbp),%rax
ffffffff800081c1:	48 8b 80 40 02 00 00 	mov    0x240(%rax),%rax
ffffffff800081c8:	48 8b 4d e0          	mov    -0x20(%rbp),%rcx
ffffffff800081cc:	48 89 d6             	mov    %rdx,%rsi
ffffffff800081cf:	48 89 c7             	mov    %rax,%rdi
ffffffff800081d2:	ff d1                	call   *%rcx
ffffffff800081d4:	48 8b 45 f8          	mov    -0x8(%rbp),%rax
ffffffff800081d8:	48 8b 90 a8 02 00 00 	mov    0x2a8(%rax),%rdx
ffffffff800081df:	48 8b 45 f8          	mov    -0x8(%rbp),%rax
ffffffff800081e3:	48 8b 80 c0 02 00 00 	mov    0x2c0(%rax),%rax
ffffffff800081ea:	48 8b 4d e0          	mov    -0x20(%rbp),%rcx
ffffffff800081ee:	48 89 d6             	mov    %rdx,%rsi
ffffffff800081f1:	48 89 c7             	mov    %rax,%rdi
ffffffff800081f4:	ff d1                	call   *%rcx
ffffffff800081f6:	48 8b 45 f8          	mov    -0x8(%rbp),%rax
ffffffff800081fa:	48 8b 90 b0 02 00 00 	mov    0x2b0(%rax),%rdx
ffffffff80008201:	48 8b 45 f8          	mov    -0x8(%rbp),%rax
ffffffff80008205:	48 8b 80 c8 02 00 00 	mov    0x2c8(%rax),%rax
ffffffff8000820c:	48 8b 4d e0          	mov    -0x20(%rbp),%rcx
ffffffff80008210:	48 89 d6             	mov    %rdx,%rsi
ffffffff80008213:	48 89 c7             	mov    %rax,%rdi
ffffffff80008216:	ff d1                	call   *%rcx
ffffffff80008218:	48 8b 45 f8          	mov    -0x8(%rbp),%rax
ffffffff8000821c:	48 8b 90 b8 02 00 00 	mov    0x2b8(%rax),%rdx
ffffffff80008223:	48 8b 45 f8          	mov    -0x8(%rbp),%rax
ffffffff80008227:	48 8b 80 d8 02 00 00 	mov    0x2d8(%rax),%rax
ffffffff8000822e:	48 8b 4d e0          	mov    -0x20(%rbp),%rcx
ffffffff80008232:	48 89 d6             	mov    %rdx,%rsi
ffffffff80008235:	48 89 c7             	mov    %rax,%rdi
ffffffff80008238:	ff d1                	call   *%rcx
ffffffff8000823a:	48 8b 45 f8          	mov    -0x8(%rbp),%rax
ffffffff8000823e:	48 8b 80 a0 02 00 00 	mov    0x2a0(%rax),%rax
ffffffff80008245:	48 85 c0             	test   %rax,%rax
ffffffff80008248:	74 22                	je     ffffffff8000826c <flanterm_fb_deinit+0x121>
ffffffff8000824a:	48 8b 45 f8          	mov    -0x8(%rbp),%rax
ffffffff8000824e:	48 8b 90 98 02 00 00 	mov    0x298(%rax),%rdx
ffffffff80008255:	48 8b 45 f8          	mov    -0x8(%rbp),%rax
ffffffff80008259:	48 8b 80 a0 02 00 00 	mov    0x2a0(%rax),%rax
ffffffff80008260:	48 8b 4d e0          	mov    -0x20(%rbp),%rcx
ffffffff80008264:	48 89 d6             	mov    %rdx,%rsi
ffffffff80008267:	48 89 c7             	mov    %rax,%rdi
ffffffff8000826a:	ff d1                	call   *%rcx
ffffffff8000826c:	48 8b 45 f8          	mov    -0x8(%rbp),%rax
ffffffff80008270:	48 8b 55 e0          	mov    -0x20(%rbp),%rdx
ffffffff80008274:	be 20 03 00 00       	mov    $0x320,%esi
ffffffff80008279:	48 89 c7             	mov    %rax,%rdi
ffffffff8000827c:	ff d2                	call   *%rdx
ffffffff8000827e:	eb 01                	jmp    ffffffff80008281 <flanterm_fb_deinit+0x136>
ffffffff80008280:	90                   	nop
ffffffff80008281:	c9                   	leave
ffffffff80008282:	c3                   	ret

ffffffff80008283 <flanterm_fb_init>:
ffffffff80008283:	55                   	push   %rbp
ffffffff80008284:	48 89 e5             	mov    %rsp,%rbp
ffffffff80008287:	48 81 ec e0 04 00 00 	sub    $0x4e0,%rsp
ffffffff8000828e:	48 89 bd 68 fb ff ff 	mov    %rdi,-0x498(%rbp)
ffffffff80008295:	48 89 b5 60 fb ff ff 	mov    %rsi,-0x4a0(%rbp)
ffffffff8000829c:	48 89 95 58 fb ff ff 	mov    %rdx,-0x4a8(%rbp)
ffffffff800082a3:	48 89 8d 50 fb ff ff 	mov    %rcx,-0x4b0(%rbp)
ffffffff800082aa:	4c 89 85 48 fb ff ff 	mov    %r8,-0x4b8(%rbp)
ffffffff800082b1:	4c 89 8d 40 fb ff ff 	mov    %r9,-0x4c0(%rbp)
ffffffff800082b8:	44 8b 45 10          	mov    0x10(%rbp),%r8d
ffffffff800082bc:	8b 7d 18             	mov    0x18(%rbp),%edi
ffffffff800082bf:	8b 75 20             	mov    0x20(%rbp),%esi
ffffffff800082c2:	8b 4d 28             	mov    0x28(%rbp),%ecx
ffffffff800082c5:	8b 55 30             	mov    0x30(%rbp),%edx
ffffffff800082c8:	8b 45 38             	mov    0x38(%rbp),%eax
ffffffff800082cb:	44 88 85 3c fb ff ff 	mov    %r8b,-0x4c4(%rbp)
ffffffff800082d2:	40 88 bd 38 fb ff ff 	mov    %dil,-0x4c8(%rbp)
ffffffff800082d9:	40 88 b5 34 fb ff ff 	mov    %sil,-0x4cc(%rbp)
ffffffff800082e0:	88 8d 30 fb ff ff    	mov    %cl,-0x4d0(%rbp)
ffffffff800082e6:	88 95 2c fb ff ff    	mov    %dl,-0x4d4(%rbp)
ffffffff800082ec:	88 85 28 fb ff ff    	mov    %al,-0x4d8(%rbp)
ffffffff800082f2:	48 83 bd 98 00 00 00 	cmpq   $0x0,0x98(%rbp)
ffffffff800082f9:	00 
ffffffff800082fa:	74 0a                	je     ffffffff80008306 <flanterm_fb_init+0x83>
ffffffff800082fc:	48 83 bd a0 00 00 00 	cmpq   $0x0,0xa0(%rbp)
ffffffff80008303:	00 
ffffffff80008304:	75 76                	jne    ffffffff8000837c <flanterm_fb_init+0xf9>
ffffffff80008306:	48 c7 85 98 00 00 00 	movq   $0x1,0x98(%rbp)
ffffffff8000830d:	01 00 00 00 
ffffffff80008311:	48 c7 85 a0 00 00 00 	movq   $0x1,0xa0(%rbp)
ffffffff80008318:	01 00 00 00 
ffffffff8000831c:	48 81 bd 50 fb ff ff 	cmpq   $0x9ff,-0x4b0(%rbp)
ffffffff80008323:	ff 09 00 00 
ffffffff80008327:	76 23                	jbe    ffffffff8000834c <flanterm_fb_init+0xc9>
ffffffff80008329:	48 81 bd 48 fb ff ff 	cmpq   $0x59f,-0x4b8(%rbp)
ffffffff80008330:	9f 05 00 00 
ffffffff80008334:	76 16                	jbe    ffffffff8000834c <flanterm_fb_init+0xc9>
ffffffff80008336:	48 c7 85 98 00 00 00 	movq   $0x2,0x98(%rbp)
ffffffff8000833d:	02 00 00 00 
ffffffff80008341:	48 c7 85 a0 00 00 00 	movq   $0x2,0xa0(%rbp)
ffffffff80008348:	02 00 00 00 
ffffffff8000834c:	48 81 bd 50 fb ff ff 	cmpq   $0x13ff,-0x4b0(%rbp)
ffffffff80008353:	ff 13 00 00 
ffffffff80008357:	76 23                	jbe    ffffffff8000837c <flanterm_fb_init+0xf9>
ffffffff80008359:	48 81 bd 48 fb ff ff 	cmpq   $0xb3f,-0x4b8(%rbp)
ffffffff80008360:	3f 0b 00 00 
ffffffff80008364:	76 16                	jbe    ffffffff8000837c <flanterm_fb_init+0xf9>
ffffffff80008366:	48 c7 85 98 00 00 00 	movq   $0x4,0x98(%rbp)
ffffffff8000836d:	04 00 00 00 
ffffffff80008371:	48 c7 85 a0 00 00 00 	movq   $0x4,0xa0(%rbp)
ffffffff80008378:	04 00 00 00 
ffffffff8000837c:	80 bd 3c fb ff ff 07 	cmpb   $0x7,-0x4c4(%rbp)
ffffffff80008383:	76 1e                	jbe    ffffffff800083a3 <flanterm_fb_init+0x120>
ffffffff80008385:	0f b6 85 3c fb ff ff 	movzbl -0x4c4(%rbp),%eax
ffffffff8000838c:	3a 85 34 fb ff ff    	cmp    -0x4cc(%rbp),%al
ffffffff80008392:	75 0f                	jne    ffffffff800083a3 <flanterm_fb_init+0x120>
ffffffff80008394:	0f b6 85 3c fb ff ff 	movzbl -0x4c4(%rbp),%eax
ffffffff8000839b:	3a 85 2c fb ff ff    	cmp    -0x4d4(%rbp),%al
ffffffff800083a1:	74 0a                	je     ffffffff800083ad <flanterm_fb_init+0x12a>
ffffffff800083a3:	b8 00 00 00 00       	mov    $0x0,%eax
ffffffff800083a8:	e9 b6 22 00 00       	jmp    ffffffff8000a663 <flanterm_fb_init+0x23e0>
ffffffff800083ad:	48 83 bd 68 fb ff ff 	cmpq   $0x0,-0x498(%rbp)
ffffffff800083b4:	00 
ffffffff800083b5:	0f 85 e5 00 00 00    	jne    ffffffff800084a0 <flanterm_fb_init+0x21d>
ffffffff800083bb:	0f b6 05 2e bf 0d 00 	movzbl 0xdbf2e(%rip),%eax        # ffffffff800e42f0 <bump_allocated_instance>
ffffffff800083c2:	84 c0                	test   %al,%al
ffffffff800083c4:	74 0a                	je     ffffffff800083d0 <flanterm_fb_init+0x14d>
ffffffff800083c6:	b8 00 00 00 00       	mov    $0x0,%eax
ffffffff800083cb:	e9 93 22 00 00       	jmp    ffffffff8000a663 <flanterm_fb_init+0x23e0>
ffffffff800083d0:	48 8d 05 03 e1 ff ff 	lea    -0x1efd(%rip),%rax        # ffffffff800064da <bump_alloc>
ffffffff800083d7:	48 89 85 68 fb ff ff 	mov    %rax,-0x498(%rbp)
ffffffff800083de:	48 81 bd 50 fb ff ff 	cmpq   $0x780,-0x4b0(%rbp)
ffffffff800083e5:	80 07 00 00 
ffffffff800083e9:	77 11                	ja     ffffffff800083fc <flanterm_fb_init+0x179>
ffffffff800083eb:	48 81 bd 48 fb ff ff 	cmpq   $0x4b0,-0x4b8(%rbp)
ffffffff800083f2:	b0 04 00 00 
ffffffff800083f6:	0f 86 9c 00 00 00    	jbe    ffffffff80008498 <flanterm_fb_init+0x215>
ffffffff800083fc:	48 8b 85 50 fb ff ff 	mov    -0x4b0(%rbp),%rax
ffffffff80008403:	ba 80 07 00 00       	mov    $0x780,%edx
ffffffff80008408:	48 39 d0             	cmp    %rdx,%rax
ffffffff8000840b:	48 0f 47 c2          	cmova  %rdx,%rax
ffffffff8000840f:	48 89 45 b8          	mov    %rax,-0x48(%rbp)
ffffffff80008413:	48 8b 85 48 fb ff ff 	mov    -0x4b8(%rbp),%rax
ffffffff8000841a:	ba b0 04 00 00       	mov    $0x4b0,%edx
ffffffff8000841f:	48 39 d0             	cmp    %rdx,%rax
ffffffff80008422:	48 0f 47 c2          	cmova  %rdx,%rax
ffffffff80008426:	48 89 45 b0          	mov    %rax,-0x50(%rbp)
ffffffff8000842a:	48 8b 85 48 fb ff ff 	mov    -0x4b8(%rbp),%rax
ffffffff80008431:	48 d1 e8             	shr    $1,%rax
ffffffff80008434:	48 89 c1             	mov    %rax,%rcx
ffffffff80008437:	48 8b 45 b0          	mov    -0x50(%rbp),%rax
ffffffff8000843b:	48 d1 e8             	shr    $1,%rax
ffffffff8000843e:	48 89 c2             	mov    %rax,%rdx
ffffffff80008441:	48 89 c8             	mov    %rcx,%rax
ffffffff80008444:	48 29 d0             	sub    %rdx,%rax
ffffffff80008447:	48 0f af 85 40 fb ff 	imul   -0x4c0(%rbp),%rax
ffffffff8000844e:	ff 
ffffffff8000844f:	48 8b 95 50 fb ff ff 	mov    -0x4b0(%rbp),%rdx
ffffffff80008456:	48 89 d1             	mov    %rdx,%rcx
ffffffff80008459:	48 d1 e9             	shr    $1,%rcx
ffffffff8000845c:	48 8b 55 b8          	mov    -0x48(%rbp),%rdx
ffffffff80008460:	48 d1 ea             	shr    $1,%rdx
ffffffff80008463:	48 29 d1             	sub    %rdx,%rcx
ffffffff80008466:	48 8d 14 8d 00 00 00 	lea    0x0(,%rcx,4),%rdx
ffffffff8000846d:	00 
ffffffff8000846e:	48 01 c2             	add    %rax,%rdx
ffffffff80008471:	48 8b 85 58 fb ff ff 	mov    -0x4a8(%rbp),%rax
ffffffff80008478:	48 01 d0             	add    %rdx,%rax
ffffffff8000847b:	48 89 85 58 fb ff ff 	mov    %rax,-0x4a8(%rbp)
ffffffff80008482:	48 8b 45 b8          	mov    -0x48(%rbp),%rax
ffffffff80008486:	48 89 85 50 fb ff ff 	mov    %rax,-0x4b0(%rbp)
ffffffff8000848d:	48 8b 45 b0          	mov    -0x50(%rbp),%rax
ffffffff80008491:	48 89 85 48 fb ff ff 	mov    %rax,-0x4b8(%rbp)
ffffffff80008498:	48 c7 45 40 00 00 00 	movq   $0x0,0x40(%rbp)
ffffffff8000849f:	00 
ffffffff800084a0:	48 c7 45 a8 00 00 00 	movq   $0x0,-0x58(%rbp)
ffffffff800084a7:	00 
ffffffff800084a8:	48 8b 85 68 fb ff ff 	mov    -0x498(%rbp),%rax
ffffffff800084af:	bf 20 03 00 00       	mov    $0x320,%edi
ffffffff800084b4:	ff d0                	call   *%rax
ffffffff800084b6:	48 89 45 a8          	mov    %rax,-0x58(%rbp)
ffffffff800084ba:	48 83 7d a8 00       	cmpq   $0x0,-0x58(%rbp)
ffffffff800084bf:	0f 84 df 1f 00 00    	je     ffffffff8000a4a4 <flanterm_fb_init+0x2221>
ffffffff800084c5:	48 8b 45 a8          	mov    -0x58(%rbp),%rax
ffffffff800084c9:	48 89 45 a0          	mov    %rax,-0x60(%rbp)
ffffffff800084cd:	48 8b 45 a8          	mov    -0x58(%rbp),%rax
ffffffff800084d1:	ba 20 03 00 00       	mov    $0x320,%edx
ffffffff800084d6:	be 00 00 00 00       	mov    $0x0,%esi
ffffffff800084db:	48 89 c7             	mov    %rax,%rdi
ffffffff800084de:	e8 cd 2e 00 00       	call   ffffffff8000b3b0 <memset>
ffffffff800084e3:	48 8b 45 a8          	mov    -0x58(%rbp),%rax
ffffffff800084e7:	0f b6 95 3c fb ff ff 	movzbl -0x4c4(%rbp),%edx
ffffffff800084ee:	88 90 20 02 00 00    	mov    %dl,0x220(%rax)
ffffffff800084f4:	0f b6 95 3c fb ff ff 	movzbl -0x4c4(%rbp),%edx
ffffffff800084fb:	0f b6 85 38 fb ff ff 	movzbl -0x4c8(%rbp),%eax
ffffffff80008502:	01 d0                	add    %edx,%eax
ffffffff80008504:	8d 50 f8             	lea    -0x8(%rax),%edx
ffffffff80008507:	48 8b 45 a8          	mov    -0x58(%rbp),%rax
ffffffff8000850b:	88 90 21 02 00 00    	mov    %dl,0x221(%rax)
ffffffff80008511:	48 8b 45 a8          	mov    -0x58(%rbp),%rax
ffffffff80008515:	0f b6 95 34 fb ff ff 	movzbl -0x4cc(%rbp),%edx
ffffffff8000851c:	88 90 22 02 00 00    	mov    %dl,0x222(%rax)
ffffffff80008522:	0f b6 95 34 fb ff ff 	movzbl -0x4cc(%rbp),%edx
ffffffff80008529:	0f b6 85 30 fb ff ff 	movzbl -0x4d0(%rbp),%eax
ffffffff80008530:	01 d0                	add    %edx,%eax
ffffffff80008532:	8d 50 f8             	lea    -0x8(%rax),%edx
ffffffff80008535:	48 8b 45 a8          	mov    -0x58(%rbp),%rax
ffffffff80008539:	88 90 23 02 00 00    	mov    %dl,0x223(%rax)
ffffffff8000853f:	48 8b 45 a8          	mov    -0x58(%rbp),%rax
ffffffff80008543:	0f b6 95 2c fb ff ff 	movzbl -0x4d4(%rbp),%edx
ffffffff8000854a:	88 90 24 02 00 00    	mov    %dl,0x224(%rax)
ffffffff80008550:	0f b6 95 2c fb ff ff 	movzbl -0x4d4(%rbp),%edx
ffffffff80008557:	0f b6 85 28 fb ff ff 	movzbl -0x4d8(%rbp),%eax
ffffffff8000855e:	01 d0                	add    %edx,%eax
ffffffff80008560:	8d 50 f8             	lea    -0x8(%rax),%edx
ffffffff80008563:	48 8b 45 a8          	mov    -0x58(%rbp),%rax
ffffffff80008567:	88 90 25 02 00 00    	mov    %dl,0x225(%rax)
ffffffff8000856d:	48 83 7d 48 00       	cmpq   $0x0,0x48(%rbp)
ffffffff80008572:	0f 84 f7 00 00 00    	je     ffffffff8000866f <flanterm_fb_init+0x3ec>
ffffffff80008578:	48 c7 45 f8 00 00 00 	movq   $0x0,-0x8(%rbp)
ffffffff8000857f:	00 
ffffffff80008580:	e9 da 00 00 00       	jmp    ffffffff8000865f <flanterm_fb_init+0x3dc>
ffffffff80008585:	48 8b 45 f8          	mov    -0x8(%rbp),%rax
ffffffff80008589:	48 8d 14 85 00 00 00 	lea    0x0(,%rax,4),%rdx
ffffffff80008590:	00 
ffffffff80008591:	48 8b 45 48          	mov    0x48(%rbp),%rax
ffffffff80008595:	48 01 d0             	add    %rdx,%rax
ffffffff80008598:	8b 00                	mov    (%rax),%eax
ffffffff8000859a:	48 8b 55 a0          	mov    -0x60(%rbp),%rdx
ffffffff8000859e:	48 89 55 80          	mov    %rdx,-0x80(%rbp)
ffffffff800085a2:	89 85 7c ff ff ff    	mov    %eax,-0x84(%rbp)
ffffffff800085a8:	48 8b 45 80          	mov    -0x80(%rbp),%rax
ffffffff800085ac:	48 89 85 70 ff ff ff 	mov    %rax,-0x90(%rbp)
ffffffff800085b3:	8b 85 7c ff ff ff    	mov    -0x84(%rbp),%eax
ffffffff800085b9:	c1 e8 10             	shr    $0x10,%eax
ffffffff800085bc:	25 ff 00 00 00       	and    $0xff,%eax
ffffffff800085c1:	89 85 6c ff ff ff    	mov    %eax,-0x94(%rbp)
ffffffff800085c7:	8b 85 7c ff ff ff    	mov    -0x84(%rbp),%eax
ffffffff800085cd:	c1 e8 08             	shr    $0x8,%eax
ffffffff800085d0:	25 ff 00 00 00       	and    $0xff,%eax
ffffffff800085d5:	89 85 68 ff ff ff    	mov    %eax,-0x98(%rbp)
ffffffff800085db:	8b 85 7c ff ff ff    	mov    -0x84(%rbp),%eax
ffffffff800085e1:	0f b6 c0             	movzbl %al,%eax
ffffffff800085e4:	89 85 64 ff ff ff    	mov    %eax,-0x9c(%rbp)
ffffffff800085ea:	48 8b 85 70 ff ff ff 	mov    -0x90(%rbp),%rax
ffffffff800085f1:	0f b6 80 21 02 00 00 	movzbl 0x221(%rax),%eax
ffffffff800085f8:	0f b6 c0             	movzbl %al,%eax
ffffffff800085fb:	8b 95 6c ff ff ff    	mov    -0x94(%rbp),%edx
ffffffff80008601:	89 d6                	mov    %edx,%esi
ffffffff80008603:	89 c1                	mov    %eax,%ecx
ffffffff80008605:	d3 e6                	shl    %cl,%esi
ffffffff80008607:	48 8b 85 70 ff ff ff 	mov    -0x90(%rbp),%rax
ffffffff8000860e:	0f b6 80 23 02 00 00 	movzbl 0x223(%rax),%eax
ffffffff80008615:	0f b6 c0             	movzbl %al,%eax
ffffffff80008618:	8b 95 68 ff ff ff    	mov    -0x98(%rbp),%edx
ffffffff8000861e:	89 c1                	mov    %eax,%ecx
ffffffff80008620:	d3 e2                	shl    %cl,%edx
ffffffff80008622:	89 d0                	mov    %edx,%eax
ffffffff80008624:	09 c6                	or     %eax,%esi
ffffffff80008626:	48 8b 85 70 ff ff ff 	mov    -0x90(%rbp),%rax
ffffffff8000862d:	0f b6 80 25 02 00 00 	movzbl 0x225(%rax),%eax
ffffffff80008634:	0f b6 c0             	movzbl %al,%eax
ffffffff80008637:	8b 95 64 ff ff ff    	mov    -0x9c(%rbp),%edx
ffffffff8000863d:	89 c1                	mov    %eax,%ecx
ffffffff8000863f:	d3 e2                	shl    %cl,%edx
ffffffff80008641:	89 d0                	mov    %edx,%eax
ffffffff80008643:	09 c6                	or     %eax,%esi
ffffffff80008645:	89 f1                	mov    %esi,%ecx
ffffffff80008647:	48 8b 45 a8          	mov    -0x58(%rbp),%rax
ffffffff8000864b:	48 8b 55 f8          	mov    -0x8(%rbp),%rdx
ffffffff8000864f:	48 81 c2 90 00 00 00 	add    $0x90,%rdx
ffffffff80008656:	89 4c 90 08          	mov    %ecx,0x8(%rax,%rdx,4)
ffffffff8000865a:	48 83 45 f8 01       	addq   $0x1,-0x8(%rbp)
ffffffff8000865f:	48 83 7d f8 07       	cmpq   $0x7,-0x8(%rbp)
ffffffff80008664:	0f 86 1b ff ff ff    	jbe    ffffffff80008585 <flanterm_fb_init+0x302>
ffffffff8000866a:	e9 08 06 00 00       	jmp    ffffffff80008c77 <flanterm_fb_init+0x9f4>
ffffffff8000866f:	48 8b 45 a0          	mov    -0x60(%rbp),%rax
ffffffff80008673:	48 89 85 40 fe ff ff 	mov    %rax,-0x1c0(%rbp)
ffffffff8000867a:	c7 85 3c fe ff ff 00 	movl   $0x0,-0x1c4(%rbp)
ffffffff80008681:	00 00 00 
ffffffff80008684:	48 8b 85 40 fe ff ff 	mov    -0x1c0(%rbp),%rax
ffffffff8000868b:	48 89 85 30 fe ff ff 	mov    %rax,-0x1d0(%rbp)
ffffffff80008692:	8b 85 3c fe ff ff    	mov    -0x1c4(%rbp),%eax
ffffffff80008698:	c1 e8 10             	shr    $0x10,%eax
ffffffff8000869b:	25 ff 00 00 00       	and    $0xff,%eax
ffffffff800086a0:	89 85 2c fe ff ff    	mov    %eax,-0x1d4(%rbp)
ffffffff800086a6:	8b 85 3c fe ff ff    	mov    -0x1c4(%rbp),%eax
ffffffff800086ac:	c1 e8 08             	shr    $0x8,%eax
ffffffff800086af:	25 ff 00 00 00       	and    $0xff,%eax
ffffffff800086b4:	89 85 28 fe ff ff    	mov    %eax,-0x1d8(%rbp)
ffffffff800086ba:	8b 85 3c fe ff ff    	mov    -0x1c4(%rbp),%eax
ffffffff800086c0:	0f b6 c0             	movzbl %al,%eax
ffffffff800086c3:	89 85 24 fe ff ff    	mov    %eax,-0x1dc(%rbp)
ffffffff800086c9:	48 8b 85 30 fe ff ff 	mov    -0x1d0(%rbp),%rax
ffffffff800086d0:	0f b6 80 21 02 00 00 	movzbl 0x221(%rax),%eax
ffffffff800086d7:	0f b6 c0             	movzbl %al,%eax
ffffffff800086da:	8b 95 2c fe ff ff    	mov    -0x1d4(%rbp),%edx
ffffffff800086e0:	89 d6                	mov    %edx,%esi
ffffffff800086e2:	89 c1                	mov    %eax,%ecx
ffffffff800086e4:	d3 e6                	shl    %cl,%esi
ffffffff800086e6:	48 8b 85 30 fe ff ff 	mov    -0x1d0(%rbp),%rax
ffffffff800086ed:	0f b6 80 23 02 00 00 	movzbl 0x223(%rax),%eax
ffffffff800086f4:	0f b6 c0             	movzbl %al,%eax
ffffffff800086f7:	8b 95 28 fe ff ff    	mov    -0x1d8(%rbp),%edx
ffffffff800086fd:	89 c1                	mov    %eax,%ecx
ffffffff800086ff:	d3 e2                	shl    %cl,%edx
ffffffff80008701:	89 d0                	mov    %edx,%eax
ffffffff80008703:	09 c6                	or     %eax,%esi
ffffffff80008705:	48 8b 85 30 fe ff ff 	mov    -0x1d0(%rbp),%rax
ffffffff8000870c:	0f b6 80 25 02 00 00 	movzbl 0x225(%rax),%eax
ffffffff80008713:	0f b6 c0             	movzbl %al,%eax
ffffffff80008716:	8b 95 24 fe ff ff    	mov    -0x1dc(%rbp),%edx
ffffffff8000871c:	89 c1                	mov    %eax,%ecx
ffffffff8000871e:	d3 e2                	shl    %cl,%edx
ffffffff80008720:	89 d0                	mov    %edx,%eax
ffffffff80008722:	09 c6                	or     %eax,%esi
ffffffff80008724:	89 f2                	mov    %esi,%edx
ffffffff80008726:	48 8b 45 a8          	mov    -0x58(%rbp),%rax
ffffffff8000872a:	89 90 48 02 00 00    	mov    %edx,0x248(%rax)
ffffffff80008730:	48 8b 45 a0          	mov    -0x60(%rbp),%rax
ffffffff80008734:	48 89 85 68 fe ff ff 	mov    %rax,-0x198(%rbp)
ffffffff8000873b:	c7 85 64 fe ff ff 00 	movl   $0xaa0000,-0x19c(%rbp)
ffffffff80008742:	00 aa 00 
ffffffff80008745:	48 8b 85 68 fe ff ff 	mov    -0x198(%rbp),%rax
ffffffff8000874c:	48 89 85 58 fe ff ff 	mov    %rax,-0x1a8(%rbp)
ffffffff80008753:	8b 85 64 fe ff ff    	mov    -0x19c(%rbp),%eax
ffffffff80008759:	c1 e8 10             	shr    $0x10,%eax
ffffffff8000875c:	25 ff 00 00 00       	and    $0xff,%eax
ffffffff80008761:	89 85 54 fe ff ff    	mov    %eax,-0x1ac(%rbp)
ffffffff80008767:	8b 85 64 fe ff ff    	mov    -0x19c(%rbp),%eax
ffffffff8000876d:	c1 e8 08             	shr    $0x8,%eax
ffffffff80008770:	25 ff 00 00 00       	and    $0xff,%eax
ffffffff80008775:	89 85 50 fe ff ff    	mov    %eax,-0x1b0(%rbp)
ffffffff8000877b:	8b 85 64 fe ff ff    	mov    -0x19c(%rbp),%eax
ffffffff80008781:	0f b6 c0             	movzbl %al,%eax
ffffffff80008784:	89 85 4c fe ff ff    	mov    %eax,-0x1b4(%rbp)
ffffffff8000878a:	48 8b 85 58 fe ff ff 	mov    -0x1a8(%rbp),%rax
ffffffff80008791:	0f b6 80 21 02 00 00 	movzbl 0x221(%rax),%eax
ffffffff80008798:	0f b6 c0             	movzbl %al,%eax
ffffffff8000879b:	8b 95 54 fe ff ff    	mov    -0x1ac(%rbp),%edx
ffffffff800087a1:	89 d6                	mov    %edx,%esi
ffffffff800087a3:	89 c1                	mov    %eax,%ecx
ffffffff800087a5:	d3 e6                	shl    %cl,%esi
ffffffff800087a7:	48 8b 85 58 fe ff ff 	mov    -0x1a8(%rbp),%rax
ffffffff800087ae:	0f b6 80 23 02 00 00 	movzbl 0x223(%rax),%eax
ffffffff800087b5:	0f b6 c0             	movzbl %al,%eax
ffffffff800087b8:	8b 95 50 fe ff ff    	mov    -0x1b0(%rbp),%edx
ffffffff800087be:	89 c1                	mov    %eax,%ecx
ffffffff800087c0:	d3 e2                	shl    %cl,%edx
ffffffff800087c2:	89 d0                	mov    %edx,%eax
ffffffff800087c4:	09 c6                	or     %eax,%esi
ffffffff800087c6:	48 8b 85 58 fe ff ff 	mov    -0x1a8(%rbp),%rax
ffffffff800087cd:	0f b6 80 25 02 00 00 	movzbl 0x225(%rax),%eax
ffffffff800087d4:	0f b6 c0             	movzbl %al,%eax
ffffffff800087d7:	8b 95 4c fe ff ff    	mov    -0x1b4(%rbp),%edx
ffffffff800087dd:	89 c1                	mov    %eax,%ecx
ffffffff800087df:	d3 e2                	shl    %cl,%edx
ffffffff800087e1:	89 d0                	mov    %edx,%eax
ffffffff800087e3:	09 c6                	or     %eax,%esi
ffffffff800087e5:	89 f2                	mov    %esi,%edx
ffffffff800087e7:	48 8b 45 a8          	mov    -0x58(%rbp),%rax
ffffffff800087eb:	89 90 4c 02 00 00    	mov    %edx,0x24c(%rax)
ffffffff800087f1:	48 8b 45 a0          	mov    -0x60(%rbp),%rax
ffffffff800087f5:	48 89 85 90 fe ff ff 	mov    %rax,-0x170(%rbp)
ffffffff800087fc:	c7 85 8c fe ff ff 00 	movl   $0xaa00,-0x174(%rbp)
ffffffff80008803:	aa 00 00 
ffffffff80008806:	48 8b 85 90 fe ff ff 	mov    -0x170(%rbp),%rax
ffffffff8000880d:	48 89 85 80 fe ff ff 	mov    %rax,-0x180(%rbp)
ffffffff80008814:	8b 85 8c fe ff ff    	mov    -0x174(%rbp),%eax
ffffffff8000881a:	c1 e8 10             	shr    $0x10,%eax
ffffffff8000881d:	25 ff 00 00 00       	and    $0xff,%eax
ffffffff80008822:	89 85 7c fe ff ff    	mov    %eax,-0x184(%rbp)
ffffffff80008828:	8b 85 8c fe ff ff    	mov    -0x174(%rbp),%eax
ffffffff8000882e:	c1 e8 08             	shr    $0x8,%eax
ffffffff80008831:	25 ff 00 00 00       	and    $0xff,%eax
ffffffff80008836:	89 85 78 fe ff ff    	mov    %eax,-0x188(%rbp)
ffffffff8000883c:	8b 85 8c fe ff ff    	mov    -0x174(%rbp),%eax
ffffffff80008842:	0f b6 c0             	movzbl %al,%eax
ffffffff80008845:	89 85 74 fe ff ff    	mov    %eax,-0x18c(%rbp)
ffffffff8000884b:	48 8b 85 80 fe ff ff 	mov    -0x180(%rbp),%rax
ffffffff80008852:	0f b6 80 21 02 00 00 	movzbl 0x221(%rax),%eax
ffffffff80008859:	0f b6 c0             	movzbl %al,%eax
ffffffff8000885c:	8b 95 7c fe ff ff    	mov    -0x184(%rbp),%edx
ffffffff80008862:	89 d6                	mov    %edx,%esi
ffffffff80008864:	89 c1                	mov    %eax,%ecx
ffffffff80008866:	d3 e6                	shl    %cl,%esi
ffffffff80008868:	48 8b 85 80 fe ff ff 	mov    -0x180(%rbp),%rax
ffffffff8000886f:	0f b6 80 23 02 00 00 	movzbl 0x223(%rax),%eax
ffffffff80008876:	0f b6 c0             	movzbl %al,%eax
ffffffff80008879:	8b 95 78 fe ff ff    	mov    -0x188(%rbp),%edx
ffffffff8000887f:	89 c1                	mov    %eax,%ecx
ffffffff80008881:	d3 e2                	shl    %cl,%edx
ffffffff80008883:	89 d0                	mov    %edx,%eax
ffffffff80008885:	09 c6                	or     %eax,%esi
ffffffff80008887:	48 8b 85 80 fe ff ff 	mov    -0x180(%rbp),%rax
ffffffff8000888e:	0f b6 80 25 02 00 00 	movzbl 0x225(%rax),%eax
ffffffff80008895:	0f b6 c0             	movzbl %al,%eax
ffffffff80008898:	8b 95 74 fe ff ff    	mov    -0x18c(%rbp),%edx
ffffffff8000889e:	89 c1                	mov    %eax,%ecx
ffffffff800088a0:	d3 e2                	shl    %cl,%edx
ffffffff800088a2:	89 d0                	mov    %edx,%eax
ffffffff800088a4:	09 c6                	or     %eax,%esi
ffffffff800088a6:	89 f2                	mov    %esi,%edx
ffffffff800088a8:	48 8b 45 a8          	mov    -0x58(%rbp),%rax
ffffffff800088ac:	89 90 50 02 00 00    	mov    %edx,0x250(%rax)
ffffffff800088b2:	48 8b 45 a0          	mov    -0x60(%rbp),%rax
ffffffff800088b6:	48 89 85 b8 fe ff ff 	mov    %rax,-0x148(%rbp)
ffffffff800088bd:	c7 85 b4 fe ff ff 00 	movl   $0xaa5500,-0x14c(%rbp)
ffffffff800088c4:	55 aa 00 
ffffffff800088c7:	48 8b 85 b8 fe ff ff 	mov    -0x148(%rbp),%rax
ffffffff800088ce:	48 89 85 a8 fe ff ff 	mov    %rax,-0x158(%rbp)
ffffffff800088d5:	8b 85 b4 fe ff ff    	mov    -0x14c(%rbp),%eax
ffffffff800088db:	c1 e8 10             	shr    $0x10,%eax
ffffffff800088de:	25 ff 00 00 00       	and    $0xff,%eax
ffffffff800088e3:	89 85 a4 fe ff ff    	mov    %eax,-0x15c(%rbp)
ffffffff800088e9:	8b 85 b4 fe ff ff    	mov    -0x14c(%rbp),%eax
ffffffff800088ef:	c1 e8 08             	shr    $0x8,%eax
ffffffff800088f2:	25 ff 00 00 00       	and    $0xff,%eax
ffffffff800088f7:	89 85 a0 fe ff ff    	mov    %eax,-0x160(%rbp)
ffffffff800088fd:	8b 85 b4 fe ff ff    	mov    -0x14c(%rbp),%eax
ffffffff80008903:	0f b6 c0             	movzbl %al,%eax
ffffffff80008906:	89 85 9c fe ff ff    	mov    %eax,-0x164(%rbp)
ffffffff8000890c:	48 8b 85 a8 fe ff ff 	mov    -0x158(%rbp),%rax
ffffffff80008913:	0f b6 80 21 02 00 00 	movzbl 0x221(%rax),%eax
ffffffff8000891a:	0f b6 c0             	movzbl %al,%eax
ffffffff8000891d:	8b 95 a4 fe ff ff    	mov    -0x15c(%rbp),%edx
ffffffff80008923:	89 d6                	mov    %edx,%esi
ffffffff80008925:	89 c1                	mov    %eax,%ecx
ffffffff80008927:	d3 e6                	shl    %cl,%esi
ffffffff80008929:	48 8b 85 a8 fe ff ff 	mov    -0x158(%rbp),%rax
ffffffff80008930:	0f b6 80 23 02 00 00 	movzbl 0x223(%rax),%eax
ffffffff80008937:	0f b6 c0             	movzbl %al,%eax
ffffffff8000893a:	8b 95 a0 fe ff ff    	mov    -0x160(%rbp),%edx
ffffffff80008940:	89 c1                	mov    %eax,%ecx
ffffffff80008942:	d3 e2                	shl    %cl,%edx
ffffffff80008944:	89 d0                	mov    %edx,%eax
ffffffff80008946:	09 c6                	or     %eax,%esi
ffffffff80008948:	48 8b 85 a8 fe ff ff 	mov    -0x158(%rbp),%rax
ffffffff8000894f:	0f b6 80 25 02 00 00 	movzbl 0x225(%rax),%eax
ffffffff80008956:	0f b6 c0             	movzbl %al,%eax
ffffffff80008959:	8b 95 9c fe ff ff    	mov    -0x164(%rbp),%edx
ffffffff8000895f:	89 c1                	mov    %eax,%ecx
ffffffff80008961:	d3 e2                	shl    %cl,%edx
ffffffff80008963:	89 d0                	mov    %edx,%eax
ffffffff80008965:	09 c6                	or     %eax,%esi
ffffffff80008967:	89 f2                	mov    %esi,%edx
ffffffff80008969:	48 8b 45 a8          	mov    -0x58(%rbp),%rax
ffffffff8000896d:	89 90 54 02 00 00    	mov    %edx,0x254(%rax)
ffffffff80008973:	48 8b 45 a0          	mov    -0x60(%rbp),%rax
ffffffff80008977:	48 89 85 e0 fe ff ff 	mov    %rax,-0x120(%rbp)
ffffffff8000897e:	c7 85 dc fe ff ff aa 	movl   $0xaa,-0x124(%rbp)
ffffffff80008985:	00 00 00 
ffffffff80008988:	48 8b 85 e0 fe ff ff 	mov    -0x120(%rbp),%rax
ffffffff8000898f:	48 89 85 d0 fe ff ff 	mov    %rax,-0x130(%rbp)
ffffffff80008996:	8b 85 dc fe ff ff    	mov    -0x124(%rbp),%eax
ffffffff8000899c:	c1 e8 10             	shr    $0x10,%eax
ffffffff8000899f:	25 ff 00 00 00       	and    $0xff,%eax
ffffffff800089a4:	89 85 cc fe ff ff    	mov    %eax,-0x134(%rbp)
ffffffff800089aa:	8b 85 dc fe ff ff    	mov    -0x124(%rbp),%eax
ffffffff800089b0:	c1 e8 08             	shr    $0x8,%eax
ffffffff800089b3:	25 ff 00 00 00       	and    $0xff,%eax
ffffffff800089b8:	89 85 c8 fe ff ff    	mov    %eax,-0x138(%rbp)
ffffffff800089be:	8b 85 dc fe ff ff    	mov    -0x124(%rbp),%eax
ffffffff800089c4:	0f b6 c0             	movzbl %al,%eax
ffffffff800089c7:	89 85 c4 fe ff ff    	mov    %eax,-0x13c(%rbp)
ffffffff800089cd:	48 8b 85 d0 fe ff ff 	mov    -0x130(%rbp),%rax
ffffffff800089d4:	0f b6 80 21 02 00 00 	movzbl 0x221(%rax),%eax
ffffffff800089db:	0f b6 c0             	movzbl %al,%eax
ffffffff800089de:	8b 95 cc fe ff ff    	mov    -0x134(%rbp),%edx
ffffffff800089e4:	89 d6                	mov    %edx,%esi
ffffffff800089e6:	89 c1                	mov    %eax,%ecx
ffffffff800089e8:	d3 e6                	shl    %cl,%esi
ffffffff800089ea:	48 8b 85 d0 fe ff ff 	mov    -0x130(%rbp),%rax
ffffffff800089f1:	0f b6 80 23 02 00 00 	movzbl 0x223(%rax),%eax
ffffffff800089f8:	0f b6 c0             	movzbl %al,%eax
ffffffff800089fb:	8b 95 c8 fe ff ff    	mov    -0x138(%rbp),%edx
ffffffff80008a01:	89 c1                	mov    %eax,%ecx
ffffffff80008a03:	d3 e2                	shl    %cl,%edx
ffffffff80008a05:	89 d0                	mov    %edx,%eax
ffffffff80008a07:	09 c6                	or     %eax,%esi
ffffffff80008a09:	48 8b 85 d0 fe ff ff 	mov    -0x130(%rbp),%rax
ffffffff80008a10:	0f b6 80 25 02 00 00 	movzbl 0x225(%rax),%eax
ffffffff80008a17:	0f b6 c0             	movzbl %al,%eax
ffffffff80008a1a:	8b 95 c4 fe ff ff    	mov    -0x13c(%rbp),%edx
ffffffff80008a20:	89 c1                	mov    %eax,%ecx
ffffffff80008a22:	d3 e2                	shl    %cl,%edx
ffffffff80008a24:	89 d0                	mov    %edx,%eax
ffffffff80008a26:	09 c6                	or     %eax,%esi
ffffffff80008a28:	89 f2                	mov    %esi,%edx
ffffffff80008a2a:	48 8b 45 a8          	mov    -0x58(%rbp),%rax
ffffffff80008a2e:	89 90 58 02 00 00    	mov    %edx,0x258(%rax)
ffffffff80008a34:	48 8b 45 a0          	mov    -0x60(%rbp),%rax
ffffffff80008a38:	48 89 85 08 ff ff ff 	mov    %rax,-0xf8(%rbp)
ffffffff80008a3f:	c7 85 04 ff ff ff aa 	movl   $0xaa00aa,-0xfc(%rbp)
ffffffff80008a46:	00 aa 00 
ffffffff80008a49:	48 8b 85 08 ff ff ff 	mov    -0xf8(%rbp),%rax
ffffffff80008a50:	48 89 85 f8 fe ff ff 	mov    %rax,-0x108(%rbp)
ffffffff80008a57:	8b 85 04 ff ff ff    	mov    -0xfc(%rbp),%eax
ffffffff80008a5d:	c1 e8 10             	shr    $0x10,%eax
ffffffff80008a60:	25 ff 00 00 00       	and    $0xff,%eax
ffffffff80008a65:	89 85 f4 fe ff ff    	mov    %eax,-0x10c(%rbp)
ffffffff80008a6b:	8b 85 04 ff ff ff    	mov    -0xfc(%rbp),%eax
ffffffff80008a71:	c1 e8 08             	shr    $0x8,%eax
ffffffff80008a74:	25 ff 00 00 00       	and    $0xff,%eax
ffffffff80008a79:	89 85 f0 fe ff ff    	mov    %eax,-0x110(%rbp)
ffffffff80008a7f:	8b 85 04 ff ff ff    	mov    -0xfc(%rbp),%eax
ffffffff80008a85:	0f b6 c0             	movzbl %al,%eax
ffffffff80008a88:	89 85 ec fe ff ff    	mov    %eax,-0x114(%rbp)
ffffffff80008a8e:	48 8b 85 f8 fe ff ff 	mov    -0x108(%rbp),%rax
ffffffff80008a95:	0f b6 80 21 02 00 00 	movzbl 0x221(%rax),%eax
ffffffff80008a9c:	0f b6 c0             	movzbl %al,%eax
ffffffff80008a9f:	8b 95 f4 fe ff ff    	mov    -0x10c(%rbp),%edx
ffffffff80008aa5:	89 d6                	mov    %edx,%esi
ffffffff80008aa7:	89 c1                	mov    %eax,%ecx
ffffffff80008aa9:	d3 e6                	shl    %cl,%esi
ffffffff80008aab:	48 8b 85 f8 fe ff ff 	mov    -0x108(%rbp),%rax
ffffffff80008ab2:	0f b6 80 23 02 00 00 	movzbl 0x223(%rax),%eax
ffffffff80008ab9:	0f b6 c0             	movzbl %al,%eax
ffffffff80008abc:	8b 95 f0 fe ff ff    	mov    -0x110(%rbp),%edx
ffffffff80008ac2:	89 c1                	mov    %eax,%ecx
ffffffff80008ac4:	d3 e2                	shl    %cl,%edx
ffffffff80008ac6:	89 d0                	mov    %edx,%eax
ffffffff80008ac8:	09 c6                	or     %eax,%esi
ffffffff80008aca:	48 8b 85 f8 fe ff ff 	mov    -0x108(%rbp),%rax
ffffffff80008ad1:	0f b6 80 25 02 00 00 	movzbl 0x225(%rax),%eax
ffffffff80008ad8:	0f b6 c0             	movzbl %al,%eax
ffffffff80008adb:	8b 95 ec fe ff ff    	mov    -0x114(%rbp),%edx
ffffffff80008ae1:	89 c1                	mov    %eax,%ecx
ffffffff80008ae3:	d3 e2                	shl    %cl,%edx
ffffffff80008ae5:	89 d0                	mov    %edx,%eax
ffffffff80008ae7:	09 c6                	or     %eax,%esi
ffffffff80008ae9:	89 f2                	mov    %esi,%edx
ffffffff80008aeb:	48 8b 45 a8          	mov    -0x58(%rbp),%rax
ffffffff80008aef:	89 90 5c 02 00 00    	mov    %edx,0x25c(%rax)
ffffffff80008af5:	48 8b 45 a0          	mov    -0x60(%rbp),%rax
ffffffff80008af9:	48 89 85 30 ff ff ff 	mov    %rax,-0xd0(%rbp)
ffffffff80008b00:	c7 85 2c ff ff ff aa 	movl   $0xaaaa,-0xd4(%rbp)
ffffffff80008b07:	aa 00 00 
ffffffff80008b0a:	48 8b 85 30 ff ff ff 	mov    -0xd0(%rbp),%rax
ffffffff80008b11:	48 89 85 20 ff ff ff 	mov    %rax,-0xe0(%rbp)
ffffffff80008b18:	8b 85 2c ff ff ff    	mov    -0xd4(%rbp),%eax
ffffffff80008b1e:	c1 e8 10             	shr    $0x10,%eax
ffffffff80008b21:	25 ff 00 00 00       	and    $0xff,%eax
ffffffff80008b26:	89 85 1c ff ff ff    	mov    %eax,-0xe4(%rbp)
ffffffff80008b2c:	8b 85 2c ff ff ff    	mov    -0xd4(%rbp),%eax
ffffffff80008b32:	c1 e8 08             	shr    $0x8,%eax
ffffffff80008b35:	25 ff 00 00 00       	and    $0xff,%eax
ffffffff80008b3a:	89 85 18 ff ff ff    	mov    %eax,-0xe8(%rbp)
ffffffff80008b40:	8b 85 2c ff ff ff    	mov    -0xd4(%rbp),%eax
ffffffff80008b46:	0f b6 c0             	movzbl %al,%eax
ffffffff80008b49:	89 85 14 ff ff ff    	mov    %eax,-0xec(%rbp)
ffffffff80008b4f:	48 8b 85 20 ff ff ff 	mov    -0xe0(%rbp),%rax
ffffffff80008b56:	0f b6 80 21 02 00 00 	movzbl 0x221(%rax),%eax
ffffffff80008b5d:	0f b6 c0             	movzbl %al,%eax
ffffffff80008b60:	8b 95 1c ff ff ff    	mov    -0xe4(%rbp),%edx
ffffffff80008b66:	89 d6                	mov    %edx,%esi
ffffffff80008b68:	89 c1                	mov    %eax,%ecx
ffffffff80008b6a:	d3 e6                	shl    %cl,%esi
ffffffff80008b6c:	48 8b 85 20 ff ff ff 	mov    -0xe0(%rbp),%rax
ffffffff80008b73:	0f b6 80 23 02 00 00 	movzbl 0x223(%rax),%eax
ffffffff80008b7a:	0f b6 c0             	movzbl %al,%eax
ffffffff80008b7d:	8b 95 18 ff ff ff    	mov    -0xe8(%rbp),%edx
ffffffff80008b83:	89 c1                	mov    %eax,%ecx
ffffffff80008b85:	d3 e2                	shl    %cl,%edx
ffffffff80008b87:	89 d0                	mov    %edx,%eax
ffffffff80008b89:	09 c6                	or     %eax,%esi
ffffffff80008b8b:	48 8b 85 20 ff ff ff 	mov    -0xe0(%rbp),%rax
ffffffff80008b92:	0f b6 80 25 02 00 00 	movzbl 0x225(%rax),%eax
ffffffff80008b99:	0f b6 c0             	movzbl %al,%eax
ffffffff80008b9c:	8b 95 14 ff ff ff    	mov    -0xec(%rbp),%edx
ffffffff80008ba2:	89 c1                	mov    %eax,%ecx
ffffffff80008ba4:	d3 e2                	shl    %cl,%edx
ffffffff80008ba6:	89 d0                	mov    %edx,%eax
ffffffff80008ba8:	09 c6                	or     %eax,%esi
ffffffff80008baa:	89 f2                	mov    %esi,%edx
ffffffff80008bac:	48 8b 45 a8          	mov    -0x58(%rbp),%rax
ffffffff80008bb0:	89 90 60 02 00 00    	mov    %edx,0x260(%rax)
ffffffff80008bb6:	48 8b 45 a0          	mov    -0x60(%rbp),%rax
ffffffff80008bba:	48 89 85 58 ff ff ff 	mov    %rax,-0xa8(%rbp)
ffffffff80008bc1:	c7 85 54 ff ff ff aa 	movl   $0xaaaaaa,-0xac(%rbp)
ffffffff80008bc8:	aa aa 00 
ffffffff80008bcb:	48 8b 85 58 ff ff ff 	mov    -0xa8(%rbp),%rax
ffffffff80008bd2:	48 89 85 48 ff ff ff 	mov    %rax,-0xb8(%rbp)
ffffffff80008bd9:	8b 85 54 ff ff ff    	mov    -0xac(%rbp),%eax
ffffffff80008bdf:	c1 e8 10             	shr    $0x10,%eax
ffffffff80008be2:	25 ff 00 00 00       	and    $0xff,%eax
ffffffff80008be7:	89 85 44 ff ff ff    	mov    %eax,-0xbc(%rbp)
ffffffff80008bed:	8b 85 54 ff ff ff    	mov    -0xac(%rbp),%eax
ffffffff80008bf3:	c1 e8 08             	shr    $0x8,%eax
ffffffff80008bf6:	25 ff 00 00 00       	and    $0xff,%eax
ffffffff80008bfb:	89 85 40 ff ff ff    	mov    %eax,-0xc0(%rbp)
ffffffff80008c01:	8b 85 54 ff ff ff    	mov    -0xac(%rbp),%eax
ffffffff80008c07:	0f b6 c0             	movzbl %al,%eax
ffffffff80008c0a:	89 85 3c ff ff ff    	mov    %eax,-0xc4(%rbp)
ffffffff80008c10:	48 8b 85 48 ff ff ff 	mov    -0xb8(%rbp),%rax
ffffffff80008c17:	0f b6 80 21 02 00 00 	movzbl 0x221(%rax),%eax
ffffffff80008c1e:	0f b6 c0             	movzbl %al,%eax
ffffffff80008c21:	8b 95 44 ff ff ff    	mov    -0xbc(%rbp),%edx
ffffffff80008c27:	89 d6                	mov    %edx,%esi
ffffffff80008c29:	89 c1                	mov    %eax,%ecx
ffffffff80008c2b:	d3 e6                	shl    %cl,%esi
ffffffff80008c2d:	48 8b 85 48 ff ff ff 	mov    -0xb8(%rbp),%rax
ffffffff80008c34:	0f b6 80 23 02 00 00 	movzbl 0x223(%rax),%eax
ffffffff80008c3b:	0f b6 c0             	movzbl %al,%eax
ffffffff80008c3e:	8b 95 40 ff ff ff    	mov    -0xc0(%rbp),%edx
ffffffff80008c44:	89 c1                	mov    %eax,%ecx
ffffffff80008c46:	d3 e2                	shl    %cl,%edx
ffffffff80008c48:	89 d0                	mov    %edx,%eax
ffffffff80008c4a:	09 c6                	or     %eax,%esi
ffffffff80008c4c:	48 8b 85 48 ff ff ff 	mov    -0xb8(%rbp),%rax
ffffffff80008c53:	0f b6 80 25 02 00 00 	movzbl 0x225(%rax),%eax
ffffffff80008c5a:	0f b6 c0             	movzbl %al,%eax
ffffffff80008c5d:	8b 95 3c ff ff ff    	mov    -0xc4(%rbp),%edx
ffffffff80008c63:	89 c1                	mov    %eax,%ecx
ffffffff80008c65:	d3 e2                	shl    %cl,%edx
ffffffff80008c67:	89 d0                	mov    %edx,%eax
ffffffff80008c69:	09 c6                	or     %eax,%esi
ffffffff80008c6b:	89 f2                	mov    %esi,%edx
ffffffff80008c6d:	48 8b 45 a8          	mov    -0x58(%rbp),%rax
ffffffff80008c71:	89 90 64 02 00 00    	mov    %edx,0x264(%rax)
ffffffff80008c77:	48 83 7d 50 00       	cmpq   $0x0,0x50(%rbp)
ffffffff80008c7c:	0f 84 fd 00 00 00    	je     ffffffff80008d7f <flanterm_fb_init+0xafc>
ffffffff80008c82:	48 c7 45 f0 00 00 00 	movq   $0x0,-0x10(%rbp)
ffffffff80008c89:	00 
ffffffff80008c8a:	e9 e0 00 00 00       	jmp    ffffffff80008d6f <flanterm_fb_init+0xaec>
ffffffff80008c8f:	48 8b 45 f0          	mov    -0x10(%rbp),%rax
ffffffff80008c93:	48 8d 14 85 00 00 00 	lea    0x0(,%rax,4),%rdx
ffffffff80008c9a:	00 
ffffffff80008c9b:	48 8b 45 50          	mov    0x50(%rbp),%rax
ffffffff80008c9f:	48 01 d0             	add    %rdx,%rax
ffffffff80008ca2:	8b 00                	mov    (%rax),%eax
ffffffff80008ca4:	48 8b 55 a0          	mov    -0x60(%rbp),%rdx
ffffffff80008ca8:	48 89 95 18 fe ff ff 	mov    %rdx,-0x1e8(%rbp)
ffffffff80008caf:	89 85 14 fe ff ff    	mov    %eax,-0x1ec(%rbp)
ffffffff80008cb5:	48 8b 85 18 fe ff ff 	mov    -0x1e8(%rbp),%rax
ffffffff80008cbc:	48 89 85 08 fe ff ff 	mov    %rax,-0x1f8(%rbp)
ffffffff80008cc3:	8b 85 14 fe ff ff    	mov    -0x1ec(%rbp),%eax
ffffffff80008cc9:	c1 e8 10             	shr    $0x10,%eax
ffffffff80008ccc:	25 ff 00 00 00       	and    $0xff,%eax
ffffffff80008cd1:	89 85 04 fe ff ff    	mov    %eax,-0x1fc(%rbp)
ffffffff80008cd7:	8b 85 14 fe ff ff    	mov    -0x1ec(%rbp),%eax
ffffffff80008cdd:	c1 e8 08             	shr    $0x8,%eax
ffffffff80008ce0:	25 ff 00 00 00       	and    $0xff,%eax
ffffffff80008ce5:	89 85 00 fe ff ff    	mov    %eax,-0x200(%rbp)
ffffffff80008ceb:	8b 85 14 fe ff ff    	mov    -0x1ec(%rbp),%eax
ffffffff80008cf1:	0f b6 c0             	movzbl %al,%eax
ffffffff80008cf4:	89 85 fc fd ff ff    	mov    %eax,-0x204(%rbp)
ffffffff80008cfa:	48 8b 85 08 fe ff ff 	mov    -0x1f8(%rbp),%rax
ffffffff80008d01:	0f b6 80 21 02 00 00 	movzbl 0x221(%rax),%eax
ffffffff80008d08:	0f b6 c0             	movzbl %al,%eax
ffffffff80008d0b:	8b 95 04 fe ff ff    	mov    -0x1fc(%rbp),%edx
ffffffff80008d11:	89 d6                	mov    %edx,%esi
ffffffff80008d13:	89 c1                	mov    %eax,%ecx
ffffffff80008d15:	d3 e6                	shl    %cl,%esi
ffffffff80008d17:	48 8b 85 08 fe ff ff 	mov    -0x1f8(%rbp),%rax
ffffffff80008d1e:	0f b6 80 23 02 00 00 	movzbl 0x223(%rax),%eax
ffffffff80008d25:	0f b6 c0             	movzbl %al,%eax
ffffffff80008d28:	8b 95 00 fe ff ff    	mov    -0x200(%rbp),%edx
ffffffff80008d2e:	89 c1                	mov    %eax,%ecx
ffffffff80008d30:	d3 e2                	shl    %cl,%edx
ffffffff80008d32:	89 d0                	mov    %edx,%eax
ffffffff80008d34:	09 c6                	or     %eax,%esi
ffffffff80008d36:	48 8b 85 08 fe ff ff 	mov    -0x1f8(%rbp),%rax
ffffffff80008d3d:	0f b6 80 25 02 00 00 	movzbl 0x225(%rax),%eax
ffffffff80008d44:	0f b6 c0             	movzbl %al,%eax
ffffffff80008d47:	8b 95 fc fd ff ff    	mov    -0x204(%rbp),%edx
ffffffff80008d4d:	89 c1                	mov    %eax,%ecx
ffffffff80008d4f:	d3 e2                	shl    %cl,%edx
ffffffff80008d51:	89 d0                	mov    %edx,%eax
ffffffff80008d53:	09 c6                	or     %eax,%esi
ffffffff80008d55:	89 f1                	mov    %esi,%ecx
ffffffff80008d57:	48 8b 45 a8          	mov    -0x58(%rbp),%rax
ffffffff80008d5b:	48 8b 55 f0          	mov    -0x10(%rbp),%rdx
ffffffff80008d5f:	48 81 c2 98 00 00 00 	add    $0x98,%rdx
ffffffff80008d66:	89 4c 90 08          	mov    %ecx,0x8(%rax,%rdx,4)
ffffffff80008d6a:	48 83 45 f0 01       	addq   $0x1,-0x10(%rbp)
ffffffff80008d6f:	48 83 7d f0 07       	cmpq   $0x7,-0x10(%rbp)
ffffffff80008d74:	0f 86 15 ff ff ff    	jbe    ffffffff80008c8f <flanterm_fb_init+0xa0c>
ffffffff80008d7a:	e9 08 06 00 00       	jmp    ffffffff80009387 <flanterm_fb_init+0x1104>
ffffffff80008d7f:	48 8b 45 a0          	mov    -0x60(%rbp),%rax
ffffffff80008d83:	48 89 85 d8 fc ff ff 	mov    %rax,-0x328(%rbp)
ffffffff80008d8a:	c7 85 d4 fc ff ff 55 	movl   $0x555555,-0x32c(%rbp)
ffffffff80008d91:	55 55 00 
ffffffff80008d94:	48 8b 85 d8 fc ff ff 	mov    -0x328(%rbp),%rax
ffffffff80008d9b:	48 89 85 c8 fc ff ff 	mov    %rax,-0x338(%rbp)
ffffffff80008da2:	8b 85 d4 fc ff ff    	mov    -0x32c(%rbp),%eax
ffffffff80008da8:	c1 e8 10             	shr    $0x10,%eax
ffffffff80008dab:	25 ff 00 00 00       	and    $0xff,%eax
ffffffff80008db0:	89 85 c4 fc ff ff    	mov    %eax,-0x33c(%rbp)
ffffffff80008db6:	8b 85 d4 fc ff ff    	mov    -0x32c(%rbp),%eax
ffffffff80008dbc:	c1 e8 08             	shr    $0x8,%eax
ffffffff80008dbf:	25 ff 00 00 00       	and    $0xff,%eax
ffffffff80008dc4:	89 85 c0 fc ff ff    	mov    %eax,-0x340(%rbp)
ffffffff80008dca:	8b 85 d4 fc ff ff    	mov    -0x32c(%rbp),%eax
ffffffff80008dd0:	0f b6 c0             	movzbl %al,%eax
ffffffff80008dd3:	89 85 bc fc ff ff    	mov    %eax,-0x344(%rbp)
ffffffff80008dd9:	48 8b 85 c8 fc ff ff 	mov    -0x338(%rbp),%rax
ffffffff80008de0:	0f b6 80 21 02 00 00 	movzbl 0x221(%rax),%eax
ffffffff80008de7:	0f b6 c0             	movzbl %al,%eax
ffffffff80008dea:	8b 95 c4 fc ff ff    	mov    -0x33c(%rbp),%edx
ffffffff80008df0:	89 d6                	mov    %edx,%esi
ffffffff80008df2:	89 c1                	mov    %eax,%ecx
ffffffff80008df4:	d3 e6                	shl    %cl,%esi
ffffffff80008df6:	48 8b 85 c8 fc ff ff 	mov    -0x338(%rbp),%rax
ffffffff80008dfd:	0f b6 80 23 02 00 00 	movzbl 0x223(%rax),%eax
ffffffff80008e04:	0f b6 c0             	movzbl %al,%eax
ffffffff80008e07:	8b 95 c0 fc ff ff    	mov    -0x340(%rbp),%edx
ffffffff80008e0d:	89 c1                	mov    %eax,%ecx
ffffffff80008e0f:	d3 e2                	shl    %cl,%edx
ffffffff80008e11:	89 d0                	mov    %edx,%eax
ffffffff80008e13:	09 c6                	or     %eax,%esi
ffffffff80008e15:	48 8b 85 c8 fc ff ff 	mov    -0x338(%rbp),%rax
ffffffff80008e1c:	0f b6 80 25 02 00 00 	movzbl 0x225(%rax),%eax
ffffffff80008e23:	0f b6 c0             	movzbl %al,%eax
ffffffff80008e26:	8b 95 bc fc ff ff    	mov    -0x344(%rbp),%edx
ffffffff80008e2c:	89 c1                	mov    %eax,%ecx
ffffffff80008e2e:	d3 e2                	shl    %cl,%edx
ffffffff80008e30:	89 d0                	mov    %edx,%eax
ffffffff80008e32:	09 c6                	or     %eax,%esi
ffffffff80008e34:	89 f2                	mov    %esi,%edx
ffffffff80008e36:	48 8b 45 a8          	mov    -0x58(%rbp),%rax
ffffffff80008e3a:	89 90 68 02 00 00    	mov    %edx,0x268(%rax)
ffffffff80008e40:	48 8b 45 a0          	mov    -0x60(%rbp),%rax
ffffffff80008e44:	48 89 85 00 fd ff ff 	mov    %rax,-0x300(%rbp)
ffffffff80008e4b:	c7 85 fc fc ff ff 55 	movl   $0xff5555,-0x304(%rbp)
ffffffff80008e52:	55 ff 00 
ffffffff80008e55:	48 8b 85 00 fd ff ff 	mov    -0x300(%rbp),%rax
ffffffff80008e5c:	48 89 85 f0 fc ff ff 	mov    %rax,-0x310(%rbp)
ffffffff80008e63:	8b 85 fc fc ff ff    	mov    -0x304(%rbp),%eax
ffffffff80008e69:	c1 e8 10             	shr    $0x10,%eax
ffffffff80008e6c:	25 ff 00 00 00       	and    $0xff,%eax
ffffffff80008e71:	89 85 ec fc ff ff    	mov    %eax,-0x314(%rbp)
ffffffff80008e77:	8b 85 fc fc ff ff    	mov    -0x304(%rbp),%eax
ffffffff80008e7d:	c1 e8 08             	shr    $0x8,%eax
ffffffff80008e80:	25 ff 00 00 00       	and    $0xff,%eax
ffffffff80008e85:	89 85 e8 fc ff ff    	mov    %eax,-0x318(%rbp)
ffffffff80008e8b:	8b 85 fc fc ff ff    	mov    -0x304(%rbp),%eax
ffffffff80008e91:	0f b6 c0             	movzbl %al,%eax
ffffffff80008e94:	89 85 e4 fc ff ff    	mov    %eax,-0x31c(%rbp)
ffffffff80008e9a:	48 8b 85 f0 fc ff ff 	mov    -0x310(%rbp),%rax
ffffffff80008ea1:	0f b6 80 21 02 00 00 	movzbl 0x221(%rax),%eax
ffffffff80008ea8:	0f b6 c0             	movzbl %al,%eax
ffffffff80008eab:	8b 95 ec fc ff ff    	mov    -0x314(%rbp),%edx
ffffffff80008eb1:	89 d6                	mov    %edx,%esi
ffffffff80008eb3:	89 c1                	mov    %eax,%ecx
ffffffff80008eb5:	d3 e6                	shl    %cl,%esi
ffffffff80008eb7:	48 8b 85 f0 fc ff ff 	mov    -0x310(%rbp),%rax
ffffffff80008ebe:	0f b6 80 23 02 00 00 	movzbl 0x223(%rax),%eax
ffffffff80008ec5:	0f b6 c0             	movzbl %al,%eax
ffffffff80008ec8:	8b 95 e8 fc ff ff    	mov    -0x318(%rbp),%edx
ffffffff80008ece:	89 c1                	mov    %eax,%ecx
ffffffff80008ed0:	d3 e2                	shl    %cl,%edx
ffffffff80008ed2:	89 d0                	mov    %edx,%eax
ffffffff80008ed4:	09 c6                	or     %eax,%esi
ffffffff80008ed6:	48 8b 85 f0 fc ff ff 	mov    -0x310(%rbp),%rax
ffffffff80008edd:	0f b6 80 25 02 00 00 	movzbl 0x225(%rax),%eax
ffffffff80008ee4:	0f b6 c0             	movzbl %al,%eax
ffffffff80008ee7:	8b 95 e4 fc ff ff    	mov    -0x31c(%rbp),%edx
ffffffff80008eed:	89 c1                	mov    %eax,%ecx
ffffffff80008eef:	d3 e2                	shl    %cl,%edx
ffffffff80008ef1:	89 d0                	mov    %edx,%eax
ffffffff80008ef3:	09 c6                	or     %eax,%esi
ffffffff80008ef5:	89 f2                	mov    %esi,%edx
ffffffff80008ef7:	48 8b 45 a8          	mov    -0x58(%rbp),%rax
ffffffff80008efb:	89 90 6c 02 00 00    	mov    %edx,0x26c(%rax)
ffffffff80008f01:	48 8b 45 a0          	mov    -0x60(%rbp),%rax
ffffffff80008f05:	48 89 85 28 fd ff ff 	mov    %rax,-0x2d8(%rbp)
ffffffff80008f0c:	c7 85 24 fd ff ff 55 	movl   $0x55ff55,-0x2dc(%rbp)
ffffffff80008f13:	ff 55 00 
ffffffff80008f16:	48 8b 85 28 fd ff ff 	mov    -0x2d8(%rbp),%rax
ffffffff80008f1d:	48 89 85 18 fd ff ff 	mov    %rax,-0x2e8(%rbp)
ffffffff80008f24:	8b 85 24 fd ff ff    	mov    -0x2dc(%rbp),%eax
ffffffff80008f2a:	c1 e8 10             	shr    $0x10,%eax
ffffffff80008f2d:	25 ff 00 00 00       	and    $0xff,%eax
ffffffff80008f32:	89 85 14 fd ff ff    	mov    %eax,-0x2ec(%rbp)
ffffffff80008f38:	8b 85 24 fd ff ff    	mov    -0x2dc(%rbp),%eax
ffffffff80008f3e:	c1 e8 08             	shr    $0x8,%eax
ffffffff80008f41:	25 ff 00 00 00       	and    $0xff,%eax
ffffffff80008f46:	89 85 10 fd ff ff    	mov    %eax,-0x2f0(%rbp)
ffffffff80008f4c:	8b 85 24 fd ff ff    	mov    -0x2dc(%rbp),%eax
ffffffff80008f52:	0f b6 c0             	movzbl %al,%eax
ffffffff80008f55:	89 85 0c fd ff ff    	mov    %eax,-0x2f4(%rbp)
ffffffff80008f5b:	48 8b 85 18 fd ff ff 	mov    -0x2e8(%rbp),%rax
ffffffff80008f62:	0f b6 80 21 02 00 00 	movzbl 0x221(%rax),%eax
ffffffff80008f69:	0f b6 c0             	movzbl %al,%eax
ffffffff80008f6c:	8b 95 14 fd ff ff    	mov    -0x2ec(%rbp),%edx
ffffffff80008f72:	89 d6                	mov    %edx,%esi
ffffffff80008f74:	89 c1                	mov    %eax,%ecx
ffffffff80008f76:	d3 e6                	shl    %cl,%esi
ffffffff80008f78:	48 8b 85 18 fd ff ff 	mov    -0x2e8(%rbp),%rax
ffffffff80008f7f:	0f b6 80 23 02 00 00 	movzbl 0x223(%rax),%eax
ffffffff80008f86:	0f b6 c0             	movzbl %al,%eax
ffffffff80008f89:	8b 95 10 fd ff ff    	mov    -0x2f0(%rbp),%edx
ffffffff80008f8f:	89 c1                	mov    %eax,%ecx
ffffffff80008f91:	d3 e2                	shl    %cl,%edx
ffffffff80008f93:	89 d0                	mov    %edx,%eax
ffffffff80008f95:	09 c6                	or     %eax,%esi
ffffffff80008f97:	48 8b 85 18 fd ff ff 	mov    -0x2e8(%rbp),%rax
ffffffff80008f9e:	0f b6 80 25 02 00 00 	movzbl 0x225(%rax),%eax
ffffffff80008fa5:	0f b6 c0             	movzbl %al,%eax
ffffffff80008fa8:	8b 95 0c fd ff ff    	mov    -0x2f4(%rbp),%edx
ffffffff80008fae:	89 c1                	mov    %eax,%ecx
ffffffff80008fb0:	d3 e2                	shl    %cl,%edx
ffffffff80008fb2:	89 d0                	mov    %edx,%eax
ffffffff80008fb4:	09 c6                	or     %eax,%esi
ffffffff80008fb6:	89 f2                	mov    %esi,%edx
ffffffff80008fb8:	48 8b 45 a8          	mov    -0x58(%rbp),%rax
ffffffff80008fbc:	89 90 70 02 00 00    	mov    %edx,0x270(%rax)
ffffffff80008fc2:	48 8b 45 a0          	mov    -0x60(%rbp),%rax
ffffffff80008fc6:	48 89 85 50 fd ff ff 	mov    %rax,-0x2b0(%rbp)
ffffffff80008fcd:	c7 85 4c fd ff ff 55 	movl   $0xffff55,-0x2b4(%rbp)
ffffffff80008fd4:	ff ff 00 
ffffffff80008fd7:	48 8b 85 50 fd ff ff 	mov    -0x2b0(%rbp),%rax
ffffffff80008fde:	48 89 85 40 fd ff ff 	mov    %rax,-0x2c0(%rbp)
ffffffff80008fe5:	8b 85 4c fd ff ff    	mov    -0x2b4(%rbp),%eax
ffffffff80008feb:	c1 e8 10             	shr    $0x10,%eax
ffffffff80008fee:	25 ff 00 00 00       	and    $0xff,%eax
ffffffff80008ff3:	89 85 3c fd ff ff    	mov    %eax,-0x2c4(%rbp)
ffffffff80008ff9:	8b 85 4c fd ff ff    	mov    -0x2b4(%rbp),%eax
ffffffff80008fff:	c1 e8 08             	shr    $0x8,%eax
ffffffff80009002:	25 ff 00 00 00       	and    $0xff,%eax
ffffffff80009007:	89 85 38 fd ff ff    	mov    %eax,-0x2c8(%rbp)
ffffffff8000900d:	8b 85 4c fd ff ff    	mov    -0x2b4(%rbp),%eax
ffffffff80009013:	0f b6 c0             	movzbl %al,%eax
ffffffff80009016:	89 85 34 fd ff ff    	mov    %eax,-0x2cc(%rbp)
ffffffff8000901c:	48 8b 85 40 fd ff ff 	mov    -0x2c0(%rbp),%rax
ffffffff80009023:	0f b6 80 21 02 00 00 	movzbl 0x221(%rax),%eax
ffffffff8000902a:	0f b6 c0             	movzbl %al,%eax
ffffffff8000902d:	8b 95 3c fd ff ff    	mov    -0x2c4(%rbp),%edx
ffffffff80009033:	89 d6                	mov    %edx,%esi
ffffffff80009035:	89 c1                	mov    %eax,%ecx
ffffffff80009037:	d3 e6                	shl    %cl,%esi
ffffffff80009039:	48 8b 85 40 fd ff ff 	mov    -0x2c0(%rbp),%rax
ffffffff80009040:	0f b6 80 23 02 00 00 	movzbl 0x223(%rax),%eax
ffffffff80009047:	0f b6 c0             	movzbl %al,%eax
ffffffff8000904a:	8b 95 38 fd ff ff    	mov    -0x2c8(%rbp),%edx
ffffffff80009050:	89 c1                	mov    %eax,%ecx
ffffffff80009052:	d3 e2                	shl    %cl,%edx
ffffffff80009054:	89 d0                	mov    %edx,%eax
ffffffff80009056:	09 c6                	or     %eax,%esi
ffffffff80009058:	48 8b 85 40 fd ff ff 	mov    -0x2c0(%rbp),%rax
ffffffff8000905f:	0f b6 80 25 02 00 00 	movzbl 0x225(%rax),%eax
ffffffff80009066:	0f b6 c0             	movzbl %al,%eax
ffffffff80009069:	8b 95 34 fd ff ff    	mov    -0x2cc(%rbp),%edx
ffffffff8000906f:	89 c1                	mov    %eax,%ecx
ffffffff80009071:	d3 e2                	shl    %cl,%edx
ffffffff80009073:	89 d0                	mov    %edx,%eax
ffffffff80009075:	09 c6                	or     %eax,%esi
ffffffff80009077:	89 f2                	mov    %esi,%edx
ffffffff80009079:	48 8b 45 a8          	mov    -0x58(%rbp),%rax
ffffffff8000907d:	89 90 74 02 00 00    	mov    %edx,0x274(%rax)
ffffffff80009083:	48 8b 45 a0          	mov    -0x60(%rbp),%rax
ffffffff80009087:	48 89 85 78 fd ff ff 	mov    %rax,-0x288(%rbp)
ffffffff8000908e:	c7 85 74 fd ff ff ff 	movl   $0x5555ff,-0x28c(%rbp)
ffffffff80009095:	55 55 00 
ffffffff80009098:	48 8b 85 78 fd ff ff 	mov    -0x288(%rbp),%rax
ffffffff8000909f:	48 89 85 68 fd ff ff 	mov    %rax,-0x298(%rbp)
ffffffff800090a6:	8b 85 74 fd ff ff    	mov    -0x28c(%rbp),%eax
ffffffff800090ac:	c1 e8 10             	shr    $0x10,%eax
ffffffff800090af:	25 ff 00 00 00       	and    $0xff,%eax
ffffffff800090b4:	89 85 64 fd ff ff    	mov    %eax,-0x29c(%rbp)
ffffffff800090ba:	8b 85 74 fd ff ff    	mov    -0x28c(%rbp),%eax
ffffffff800090c0:	c1 e8 08             	shr    $0x8,%eax
ffffffff800090c3:	25 ff 00 00 00       	and    $0xff,%eax
ffffffff800090c8:	89 85 60 fd ff ff    	mov    %eax,-0x2a0(%rbp)
ffffffff800090ce:	8b 85 74 fd ff ff    	mov    -0x28c(%rbp),%eax
ffffffff800090d4:	0f b6 c0             	movzbl %al,%eax
ffffffff800090d7:	89 85 5c fd ff ff    	mov    %eax,-0x2a4(%rbp)
ffffffff800090dd:	48 8b 85 68 fd ff ff 	mov    -0x298(%rbp),%rax
ffffffff800090e4:	0f b6 80 21 02 00 00 	movzbl 0x221(%rax),%eax
ffffffff800090eb:	0f b6 c0             	movzbl %al,%eax
ffffffff800090ee:	8b 95 64 fd ff ff    	mov    -0x29c(%rbp),%edx
ffffffff800090f4:	89 d6                	mov    %edx,%esi
ffffffff800090f6:	89 c1                	mov    %eax,%ecx
ffffffff800090f8:	d3 e6                	shl    %cl,%esi
ffffffff800090fa:	48 8b 85 68 fd ff ff 	mov    -0x298(%rbp),%rax
ffffffff80009101:	0f b6 80 23 02 00 00 	movzbl 0x223(%rax),%eax
ffffffff80009108:	0f b6 c0             	movzbl %al,%eax
ffffffff8000910b:	8b 95 60 fd ff ff    	mov    -0x2a0(%rbp),%edx
ffffffff80009111:	89 c1                	mov    %eax,%ecx
ffffffff80009113:	d3 e2                	shl    %cl,%edx
ffffffff80009115:	89 d0                	mov    %edx,%eax
ffffffff80009117:	09 c6                	or     %eax,%esi
ffffffff80009119:	48 8b 85 68 fd ff ff 	mov    -0x298(%rbp),%rax
ffffffff80009120:	0f b6 80 25 02 00 00 	movzbl 0x225(%rax),%eax
ffffffff80009127:	0f b6 c0             	movzbl %al,%eax
ffffffff8000912a:	8b 95 5c fd ff ff    	mov    -0x2a4(%rbp),%edx
ffffffff80009130:	89 c1                	mov    %eax,%ecx
ffffffff80009132:	d3 e2                	shl    %cl,%edx
ffffffff80009134:	89 d0                	mov    %edx,%eax
ffffffff80009136:	09 c6                	or     %eax,%esi
ffffffff80009138:	89 f2                	mov    %esi,%edx
ffffffff8000913a:	48 8b 45 a8          	mov    -0x58(%rbp),%rax
ffffffff8000913e:	89 90 78 02 00 00    	mov    %edx,0x278(%rax)
ffffffff80009144:	48 8b 45 a0          	mov    -0x60(%rbp),%rax
ffffffff80009148:	48 89 85 a0 fd ff ff 	mov    %rax,-0x260(%rbp)
ffffffff8000914f:	c7 85 9c fd ff ff ff 	movl   $0xff55ff,-0x264(%rbp)
ffffffff80009156:	55 ff 00 
ffffffff80009159:	48 8b 85 a0 fd ff ff 	mov    -0x260(%rbp),%rax
ffffffff80009160:	48 89 85 90 fd ff ff 	mov    %rax,-0x270(%rbp)
ffffffff80009167:	8b 85 9c fd ff ff    	mov    -0x264(%rbp),%eax
ffffffff8000916d:	c1 e8 10             	shr    $0x10,%eax
ffffffff80009170:	25 ff 00 00 00       	and    $0xff,%eax
ffffffff80009175:	89 85 8c fd ff ff    	mov    %eax,-0x274(%rbp)
ffffffff8000917b:	8b 85 9c fd ff ff    	mov    -0x264(%rbp),%eax
ffffffff80009181:	c1 e8 08             	shr    $0x8,%eax
ffffffff80009184:	25 ff 00 00 00       	and    $0xff,%eax
ffffffff80009189:	89 85 88 fd ff ff    	mov    %eax,-0x278(%rbp)
ffffffff8000918f:	8b 85 9c fd ff ff    	mov    -0x264(%rbp),%eax
ffffffff80009195:	0f b6 c0             	movzbl %al,%eax
ffffffff80009198:	89 85 84 fd ff ff    	mov    %eax,-0x27c(%rbp)
ffffffff8000919e:	48 8b 85 90 fd ff ff 	mov    -0x270(%rbp),%rax
ffffffff800091a5:	0f b6 80 21 02 00 00 	movzbl 0x221(%rax),%eax
ffffffff800091ac:	0f b6 c0             	movzbl %al,%eax
ffffffff800091af:	8b 95 8c fd ff ff    	mov    -0x274(%rbp),%edx
ffffffff800091b5:	89 d6                	mov    %edx,%esi
ffffffff800091b7:	89 c1                	mov    %eax,%ecx
ffffffff800091b9:	d3 e6                	shl    %cl,%esi
ffffffff800091bb:	48 8b 85 90 fd ff ff 	mov    -0x270(%rbp),%rax
ffffffff800091c2:	0f b6 80 23 02 00 00 	movzbl 0x223(%rax),%eax
ffffffff800091c9:	0f b6 c0             	movzbl %al,%eax
ffffffff800091cc:	8b 95 88 fd ff ff    	mov    -0x278(%rbp),%edx
ffffffff800091d2:	89 c1                	mov    %eax,%ecx
ffffffff800091d4:	d3 e2                	shl    %cl,%edx
ffffffff800091d6:	89 d0                	mov    %edx,%eax
ffffffff800091d8:	09 c6                	or     %eax,%esi
ffffffff800091da:	48 8b 85 90 fd ff ff 	mov    -0x270(%rbp),%rax
ffffffff800091e1:	0f b6 80 25 02 00 00 	movzbl 0x225(%rax),%eax
ffffffff800091e8:	0f b6 c0             	movzbl %al,%eax
ffffffff800091eb:	8b 95 84 fd ff ff    	mov    -0x27c(%rbp),%edx
ffffffff800091f1:	89 c1                	mov    %eax,%ecx
ffffffff800091f3:	d3 e2                	shl    %cl,%edx
ffffffff800091f5:	89 d0                	mov    %edx,%eax
ffffffff800091f7:	09 c6                	or     %eax,%esi
ffffffff800091f9:	89 f2                	mov    %esi,%edx
ffffffff800091fb:	48 8b 45 a8          	mov    -0x58(%rbp),%rax
ffffffff800091ff:	89 90 7c 02 00 00    	mov    %edx,0x27c(%rax)
ffffffff80009205:	48 8b 45 a0          	mov    -0x60(%rbp),%rax
ffffffff80009209:	48 89 85 c8 fd ff ff 	mov    %rax,-0x238(%rbp)
ffffffff80009210:	c7 85 c4 fd ff ff ff 	movl   $0x55ffff,-0x23c(%rbp)
ffffffff80009217:	ff 55 00 
ffffffff8000921a:	48 8b 85 c8 fd ff ff 	mov    -0x238(%rbp),%rax
ffffffff80009221:	48 89 85 b8 fd ff ff 	mov    %rax,-0x248(%rbp)
ffffffff80009228:	8b 85 c4 fd ff ff    	mov    -0x23c(%rbp),%eax
ffffffff8000922e:	c1 e8 10             	shr    $0x10,%eax
ffffffff80009231:	25 ff 00 00 00       	and    $0xff,%eax
ffffffff80009236:	89 85 b4 fd ff ff    	mov    %eax,-0x24c(%rbp)
ffffffff8000923c:	8b 85 c4 fd ff ff    	mov    -0x23c(%rbp),%eax
ffffffff80009242:	c1 e8 08             	shr    $0x8,%eax
ffffffff80009245:	25 ff 00 00 00       	and    $0xff,%eax
ffffffff8000924a:	89 85 b0 fd ff ff    	mov    %eax,-0x250(%rbp)
ffffffff80009250:	8b 85 c4 fd ff ff    	mov    -0x23c(%rbp),%eax
ffffffff80009256:	0f b6 c0             	movzbl %al,%eax
ffffffff80009259:	89 85 ac fd ff ff    	mov    %eax,-0x254(%rbp)
ffffffff8000925f:	48 8b 85 b8 fd ff ff 	mov    -0x248(%rbp),%rax
ffffffff80009266:	0f b6 80 21 02 00 00 	movzbl 0x221(%rax),%eax
ffffffff8000926d:	0f b6 c0             	movzbl %al,%eax
ffffffff80009270:	8b 95 b4 fd ff ff    	mov    -0x24c(%rbp),%edx
ffffffff80009276:	89 d6                	mov    %edx,%esi
ffffffff80009278:	89 c1                	mov    %eax,%ecx
ffffffff8000927a:	d3 e6                	shl    %cl,%esi
ffffffff8000927c:	48 8b 85 b8 fd ff ff 	mov    -0x248(%rbp),%rax
ffffffff80009283:	0f b6 80 23 02 00 00 	movzbl 0x223(%rax),%eax
ffffffff8000928a:	0f b6 c0             	movzbl %al,%eax
ffffffff8000928d:	8b 95 b0 fd ff ff    	mov    -0x250(%rbp),%edx
ffffffff80009293:	89 c1                	mov    %eax,%ecx
ffffffff80009295:	d3 e2                	shl    %cl,%edx
ffffffff80009297:	89 d0                	mov    %edx,%eax
ffffffff80009299:	09 c6                	or     %eax,%esi
ffffffff8000929b:	48 8b 85 b8 fd ff ff 	mov    -0x248(%rbp),%rax
ffffffff800092a2:	0f b6 80 25 02 00 00 	movzbl 0x225(%rax),%eax
ffffffff800092a9:	0f b6 c0             	movzbl %al,%eax
ffffffff800092ac:	8b 95 ac fd ff ff    	mov    -0x254(%rbp),%edx
ffffffff800092b2:	89 c1                	mov    %eax,%ecx
ffffffff800092b4:	d3 e2                	shl    %cl,%edx
ffffffff800092b6:	89 d0                	mov    %edx,%eax
ffffffff800092b8:	09 c6                	or     %eax,%esi
ffffffff800092ba:	89 f2                	mov    %esi,%edx
ffffffff800092bc:	48 8b 45 a8          	mov    -0x58(%rbp),%rax
ffffffff800092c0:	89 90 80 02 00 00    	mov    %edx,0x280(%rax)
ffffffff800092c6:	48 8b 45 a0          	mov    -0x60(%rbp),%rax
ffffffff800092ca:	48 89 85 f0 fd ff ff 	mov    %rax,-0x210(%rbp)
ffffffff800092d1:	c7 85 ec fd ff ff ff 	movl   $0xffffff,-0x214(%rbp)
ffffffff800092d8:	ff ff 00 
ffffffff800092db:	48 8b 85 f0 fd ff ff 	mov    -0x210(%rbp),%rax
ffffffff800092e2:	48 89 85 e0 fd ff ff 	mov    %rax,-0x220(%rbp)
ffffffff800092e9:	8b 85 ec fd ff ff    	mov    -0x214(%rbp),%eax
ffffffff800092ef:	c1 e8 10             	shr    $0x10,%eax
ffffffff800092f2:	25 ff 00 00 00       	and    $0xff,%eax
ffffffff800092f7:	89 85 dc fd ff ff    	mov    %eax,-0x224(%rbp)
ffffffff800092fd:	8b 85 ec fd ff ff    	mov    -0x214(%rbp),%eax
ffffffff80009303:	c1 e8 08             	shr    $0x8,%eax
ffffffff80009306:	25 ff 00 00 00       	and    $0xff,%eax
ffffffff8000930b:	89 85 d8 fd ff ff    	mov    %eax,-0x228(%rbp)
ffffffff80009311:	8b 85 ec fd ff ff    	mov    -0x214(%rbp),%eax
ffffffff80009317:	0f b6 c0             	movzbl %al,%eax
ffffffff8000931a:	89 85 d4 fd ff ff    	mov    %eax,-0x22c(%rbp)
ffffffff80009320:	48 8b 85 e0 fd ff ff 	mov    -0x220(%rbp),%rax
ffffffff80009327:	0f b6 80 21 02 00 00 	movzbl 0x221(%rax),%eax
ffffffff8000932e:	0f b6 c0             	movzbl %al,%eax
ffffffff80009331:	8b 95 dc fd ff ff    	mov    -0x224(%rbp),%edx
ffffffff80009337:	89 d6                	mov    %edx,%esi
ffffffff80009339:	89 c1                	mov    %eax,%ecx
ffffffff8000933b:	d3 e6                	shl    %cl,%esi
ffffffff8000933d:	48 8b 85 e0 fd ff ff 	mov    -0x220(%rbp),%rax
ffffffff80009344:	0f b6 80 23 02 00 00 	movzbl 0x223(%rax),%eax
ffffffff8000934b:	0f b6 c0             	movzbl %al,%eax
ffffffff8000934e:	8b 95 d8 fd ff ff    	mov    -0x228(%rbp),%edx
ffffffff80009354:	89 c1                	mov    %eax,%ecx
ffffffff80009356:	d3 e2                	shl    %cl,%edx
ffffffff80009358:	89 d0                	mov    %edx,%eax
ffffffff8000935a:	09 c6                	or     %eax,%esi
ffffffff8000935c:	48 8b 85 e0 fd ff ff 	mov    -0x220(%rbp),%rax
ffffffff80009363:	0f b6 80 25 02 00 00 	movzbl 0x225(%rax),%eax
ffffffff8000936a:	0f b6 c0             	movzbl %al,%eax
ffffffff8000936d:	8b 95 d4 fd ff ff    	mov    -0x22c(%rbp),%edx
ffffffff80009373:	89 c1                	mov    %eax,%ecx
ffffffff80009375:	d3 e2                	shl    %cl,%edx
ffffffff80009377:	89 d0                	mov    %edx,%eax
ffffffff80009379:	09 c6                	or     %eax,%esi
ffffffff8000937b:	89 f2                	mov    %esi,%edx
ffffffff8000937d:	48 8b 45 a8          	mov    -0x58(%rbp),%rax
ffffffff80009381:	89 90 84 02 00 00    	mov    %edx,0x284(%rax)
ffffffff80009387:	48 83 7d 58 00       	cmpq   $0x0,0x58(%rbp)
ffffffff8000938c:	0f 84 c5 00 00 00    	je     ffffffff80009457 <flanterm_fb_init+0x11d4>
ffffffff80009392:	48 8b 45 58          	mov    0x58(%rbp),%rax
ffffffff80009396:	8b 00                	mov    (%rax),%eax
ffffffff80009398:	48 8b 55 a0          	mov    -0x60(%rbp),%rdx
ffffffff8000939c:	48 89 95 b0 fc ff ff 	mov    %rdx,-0x350(%rbp)
ffffffff800093a3:	89 85 ac fc ff ff    	mov    %eax,-0x354(%rbp)
ffffffff800093a9:	48 8b 85 b0 fc ff ff 	mov    -0x350(%rbp),%rax
ffffffff800093b0:	48 89 85 a0 fc ff ff 	mov    %rax,-0x360(%rbp)
ffffffff800093b7:	8b 85 ac fc ff ff    	mov    -0x354(%rbp),%eax
ffffffff800093bd:	c1 e8 10             	shr    $0x10,%eax
ffffffff800093c0:	25 ff 00 00 00       	and    $0xff,%eax
ffffffff800093c5:	89 85 9c fc ff ff    	mov    %eax,-0x364(%rbp)
ffffffff800093cb:	8b 85 ac fc ff ff    	mov    -0x354(%rbp),%eax
ffffffff800093d1:	c1 e8 08             	shr    $0x8,%eax
ffffffff800093d4:	25 ff 00 00 00       	and    $0xff,%eax
ffffffff800093d9:	89 85 98 fc ff ff    	mov    %eax,-0x368(%rbp)
ffffffff800093df:	8b 85 ac fc ff ff    	mov    -0x354(%rbp),%eax
ffffffff800093e5:	0f b6 c0             	movzbl %al,%eax
ffffffff800093e8:	89 85 94 fc ff ff    	mov    %eax,-0x36c(%rbp)
ffffffff800093ee:	48 8b 85 a0 fc ff ff 	mov    -0x360(%rbp),%rax
ffffffff800093f5:	0f b6 80 21 02 00 00 	movzbl 0x221(%rax),%eax
ffffffff800093fc:	0f b6 c0             	movzbl %al,%eax
ffffffff800093ff:	8b 95 9c fc ff ff    	mov    -0x364(%rbp),%edx
ffffffff80009405:	89 d6                	mov    %edx,%esi
ffffffff80009407:	89 c1                	mov    %eax,%ecx
ffffffff80009409:	d3 e6                	shl    %cl,%esi
ffffffff8000940b:	48 8b 85 a0 fc ff ff 	mov    -0x360(%rbp),%rax
ffffffff80009412:	0f b6 80 23 02 00 00 	movzbl 0x223(%rax),%eax
ffffffff80009419:	0f b6 c0             	movzbl %al,%eax
ffffffff8000941c:	8b 95 98 fc ff ff    	mov    -0x368(%rbp),%edx
ffffffff80009422:	89 c1                	mov    %eax,%ecx
ffffffff80009424:	d3 e2                	shl    %cl,%edx
ffffffff80009426:	89 d0                	mov    %edx,%eax
ffffffff80009428:	09 c6                	or     %eax,%esi
ffffffff8000942a:	48 8b 85 a0 fc ff ff 	mov    -0x360(%rbp),%rax
ffffffff80009431:	0f b6 80 25 02 00 00 	movzbl 0x225(%rax),%eax
ffffffff80009438:	0f b6 c0             	movzbl %al,%eax
ffffffff8000943b:	8b 95 94 fc ff ff    	mov    -0x36c(%rbp),%edx
ffffffff80009441:	89 c1                	mov    %eax,%ecx
ffffffff80009443:	d3 e2                	shl    %cl,%edx
ffffffff80009445:	89 d0                	mov    %edx,%eax
ffffffff80009447:	09 c6                	or     %eax,%esi
ffffffff80009449:	89 f2                	mov    %esi,%edx
ffffffff8000944b:	48 8b 45 a8          	mov    -0x58(%rbp),%rax
ffffffff8000944f:	89 90 8c 02 00 00    	mov    %edx,0x28c(%rax)
ffffffff80009455:	eb 0e                	jmp    ffffffff80009465 <flanterm_fb_init+0x11e2>
ffffffff80009457:	48 8b 45 a8          	mov    -0x58(%rbp),%rax
ffffffff8000945b:	c7 80 8c 02 00 00 00 	movl   $0x0,0x28c(%rax)
ffffffff80009462:	00 00 00 
ffffffff80009465:	48 83 7d 60 00       	cmpq   $0x0,0x60(%rbp)
ffffffff8000946a:	0f 84 c8 00 00 00    	je     ffffffff80009538 <flanterm_fb_init+0x12b5>
ffffffff80009470:	48 8b 45 60          	mov    0x60(%rbp),%rax
ffffffff80009474:	8b 00                	mov    (%rax),%eax
ffffffff80009476:	48 8b 55 a0          	mov    -0x60(%rbp),%rdx
ffffffff8000947a:	48 89 95 88 fc ff ff 	mov    %rdx,-0x378(%rbp)
ffffffff80009481:	89 85 84 fc ff ff    	mov    %eax,-0x37c(%rbp)
ffffffff80009487:	48 8b 85 88 fc ff ff 	mov    -0x378(%rbp),%rax
ffffffff8000948e:	48 89 85 78 fc ff ff 	mov    %rax,-0x388(%rbp)
ffffffff80009495:	8b 85 84 fc ff ff    	mov    -0x37c(%rbp),%eax
ffffffff8000949b:	c1 e8 10             	shr    $0x10,%eax
ffffffff8000949e:	25 ff 00 00 00       	and    $0xff,%eax
ffffffff800094a3:	89 85 74 fc ff ff    	mov    %eax,-0x38c(%rbp)
ffffffff800094a9:	8b 85 84 fc ff ff    	mov    -0x37c(%rbp),%eax
ffffffff800094af:	c1 e8 08             	shr    $0x8,%eax
ffffffff800094b2:	25 ff 00 00 00       	and    $0xff,%eax
ffffffff800094b7:	89 85 70 fc ff ff    	mov    %eax,-0x390(%rbp)
ffffffff800094bd:	8b 85 84 fc ff ff    	mov    -0x37c(%rbp),%eax
ffffffff800094c3:	0f b6 c0             	movzbl %al,%eax
ffffffff800094c6:	89 85 6c fc ff ff    	mov    %eax,-0x394(%rbp)
ffffffff800094cc:	48 8b 85 78 fc ff ff 	mov    -0x388(%rbp),%rax
ffffffff800094d3:	0f b6 80 21 02 00 00 	movzbl 0x221(%rax),%eax
ffffffff800094da:	0f b6 c0             	movzbl %al,%eax
ffffffff800094dd:	8b 95 74 fc ff ff    	mov    -0x38c(%rbp),%edx
ffffffff800094e3:	89 d6                	mov    %edx,%esi
ffffffff800094e5:	89 c1                	mov    %eax,%ecx
ffffffff800094e7:	d3 e6                	shl    %cl,%esi
ffffffff800094e9:	48 8b 85 78 fc ff ff 	mov    -0x388(%rbp),%rax
ffffffff800094f0:	0f b6 80 23 02 00 00 	movzbl 0x223(%rax),%eax
ffffffff800094f7:	0f b6 c0             	movzbl %al,%eax
ffffffff800094fa:	8b 95 70 fc ff ff    	mov    -0x390(%rbp),%edx
ffffffff80009500:	89 c1                	mov    %eax,%ecx
ffffffff80009502:	d3 e2                	shl    %cl,%edx
ffffffff80009504:	89 d0                	mov    %edx,%eax
ffffffff80009506:	09 c6                	or     %eax,%esi
ffffffff80009508:	48 8b 85 78 fc ff ff 	mov    -0x388(%rbp),%rax
ffffffff8000950f:	0f b6 80 25 02 00 00 	movzbl 0x225(%rax),%eax
ffffffff80009516:	0f b6 c0             	movzbl %al,%eax
ffffffff80009519:	8b 95 6c fc ff ff    	mov    -0x394(%rbp),%edx
ffffffff8000951f:	89 c1                	mov    %eax,%ecx
ffffffff80009521:	d3 e2                	shl    %cl,%edx
ffffffff80009523:	89 d0                	mov    %edx,%eax
ffffffff80009525:	09 c6                	or     %eax,%esi
ffffffff80009527:	89 f2                	mov    %esi,%edx
ffffffff80009529:	48 8b 45 a8          	mov    -0x58(%rbp),%rax
ffffffff8000952d:	89 90 88 02 00 00    	mov    %edx,0x288(%rax)
ffffffff80009533:	e9 c1 00 00 00       	jmp    ffffffff800095f9 <flanterm_fb_init+0x1376>
ffffffff80009538:	48 8b 45 a0          	mov    -0x60(%rbp),%rax
ffffffff8000953c:	48 89 85 60 fc ff ff 	mov    %rax,-0x3a0(%rbp)
ffffffff80009543:	c7 85 5c fc ff ff aa 	movl   $0xaaaaaa,-0x3a4(%rbp)
ffffffff8000954a:	aa aa 00 
ffffffff8000954d:	48 8b 85 60 fc ff ff 	mov    -0x3a0(%rbp),%rax
ffffffff80009554:	48 89 85 50 fc ff ff 	mov    %rax,-0x3b0(%rbp)
ffffffff8000955b:	8b 85 5c fc ff ff    	mov    -0x3a4(%rbp),%eax
ffffffff80009561:	c1 e8 10             	shr    $0x10,%eax
ffffffff80009564:	25 ff 00 00 00       	and    $0xff,%eax
ffffffff80009569:	89 85 4c fc ff ff    	mov    %eax,-0x3b4(%rbp)
ffffffff8000956f:	8b 85 5c fc ff ff    	mov    -0x3a4(%rbp),%eax
ffffffff80009575:	c1 e8 08             	shr    $0x8,%eax
ffffffff80009578:	25 ff 00 00 00       	and    $0xff,%eax
ffffffff8000957d:	89 85 48 fc ff ff    	mov    %eax,-0x3b8(%rbp)
ffffffff80009583:	8b 85 5c fc ff ff    	mov    -0x3a4(%rbp),%eax
ffffffff80009589:	0f b6 c0             	movzbl %al,%eax
ffffffff8000958c:	89 85 44 fc ff ff    	mov    %eax,-0x3bc(%rbp)
ffffffff80009592:	48 8b 85 50 fc ff ff 	mov    -0x3b0(%rbp),%rax
ffffffff80009599:	0f b6 80 21 02 00 00 	movzbl 0x221(%rax),%eax
ffffffff800095a0:	0f b6 c0             	movzbl %al,%eax
ffffffff800095a3:	8b 95 4c fc ff ff    	mov    -0x3b4(%rbp),%edx
ffffffff800095a9:	89 d6                	mov    %edx,%esi
ffffffff800095ab:	89 c1                	mov    %eax,%ecx
ffffffff800095ad:	d3 e6                	shl    %cl,%esi
ffffffff800095af:	48 8b 85 50 fc ff ff 	mov    -0x3b0(%rbp),%rax
ffffffff800095b6:	0f b6 80 23 02 00 00 	movzbl 0x223(%rax),%eax
ffffffff800095bd:	0f b6 c0             	movzbl %al,%eax
ffffffff800095c0:	8b 95 48 fc ff ff    	mov    -0x3b8(%rbp),%edx
ffffffff800095c6:	89 c1                	mov    %eax,%ecx
ffffffff800095c8:	d3 e2                	shl    %cl,%edx
ffffffff800095ca:	89 d0                	mov    %edx,%eax
ffffffff800095cc:	09 c6                	or     %eax,%esi
ffffffff800095ce:	48 8b 85 50 fc ff ff 	mov    -0x3b0(%rbp),%rax
ffffffff800095d5:	0f b6 80 25 02 00 00 	movzbl 0x225(%rax),%eax
ffffffff800095dc:	0f b6 c0             	movzbl %al,%eax
ffffffff800095df:	8b 95 44 fc ff ff    	mov    -0x3bc(%rbp),%edx
ffffffff800095e5:	89 c1                	mov    %eax,%ecx
ffffffff800095e7:	d3 e2                	shl    %cl,%edx
ffffffff800095e9:	89 d0                	mov    %edx,%eax
ffffffff800095eb:	09 c6                	or     %eax,%esi
ffffffff800095ed:	89 f2                	mov    %esi,%edx
ffffffff800095ef:	48 8b 45 a8          	mov    -0x58(%rbp),%rax
ffffffff800095f3:	89 90 88 02 00 00    	mov    %edx,0x288(%rax)
ffffffff800095f9:	48 83 7d 68 00       	cmpq   $0x0,0x68(%rbp)
ffffffff800095fe:	0f 84 c8 00 00 00    	je     ffffffff800096cc <flanterm_fb_init+0x1449>
ffffffff80009604:	48 8b 45 68          	mov    0x68(%rbp),%rax
ffffffff80009608:	8b 00                	mov    (%rax),%eax
ffffffff8000960a:	48 8b 55 a0          	mov    -0x60(%rbp),%rdx
ffffffff8000960e:	48 89 95 38 fc ff ff 	mov    %rdx,-0x3c8(%rbp)
ffffffff80009615:	89 85 34 fc ff ff    	mov    %eax,-0x3cc(%rbp)
ffffffff8000961b:	48 8b 85 38 fc ff ff 	mov    -0x3c8(%rbp),%rax
ffffffff80009622:	48 89 85 28 fc ff ff 	mov    %rax,-0x3d8(%rbp)
ffffffff80009629:	8b 85 34 fc ff ff    	mov    -0x3cc(%rbp),%eax
ffffffff8000962f:	c1 e8 10             	shr    $0x10,%eax
ffffffff80009632:	25 ff 00 00 00       	and    $0xff,%eax
ffffffff80009637:	89 85 24 fc ff ff    	mov    %eax,-0x3dc(%rbp)
ffffffff8000963d:	8b 85 34 fc ff ff    	mov    -0x3cc(%rbp),%eax
ffffffff80009643:	c1 e8 08             	shr    $0x8,%eax
ffffffff80009646:	25 ff 00 00 00       	and    $0xff,%eax
ffffffff8000964b:	89 85 20 fc ff ff    	mov    %eax,-0x3e0(%rbp)
ffffffff80009651:	8b 85 34 fc ff ff    	mov    -0x3cc(%rbp),%eax
ffffffff80009657:	0f b6 c0             	movzbl %al,%eax
ffffffff8000965a:	89 85 1c fc ff ff    	mov    %eax,-0x3e4(%rbp)
ffffffff80009660:	48 8b 85 28 fc ff ff 	mov    -0x3d8(%rbp),%rax
ffffffff80009667:	0f b6 80 21 02 00 00 	movzbl 0x221(%rax),%eax
ffffffff8000966e:	0f b6 c0             	movzbl %al,%eax
ffffffff80009671:	8b 95 24 fc ff ff    	mov    -0x3dc(%rbp),%edx
ffffffff80009677:	89 d6                	mov    %edx,%esi
ffffffff80009679:	89 c1                	mov    %eax,%ecx
ffffffff8000967b:	d3 e6                	shl    %cl,%esi
ffffffff8000967d:	48 8b 85 28 fc ff ff 	mov    -0x3d8(%rbp),%rax
ffffffff80009684:	0f b6 80 23 02 00 00 	movzbl 0x223(%rax),%eax
ffffffff8000968b:	0f b6 c0             	movzbl %al,%eax
ffffffff8000968e:	8b 95 20 fc ff ff    	mov    -0x3e0(%rbp),%edx
ffffffff80009694:	89 c1                	mov    %eax,%ecx
ffffffff80009696:	d3 e2                	shl    %cl,%edx
ffffffff80009698:	89 d0                	mov    %edx,%eax
ffffffff8000969a:	09 c6                	or     %eax,%esi
ffffffff8000969c:	48 8b 85 28 fc ff ff 	mov    -0x3d8(%rbp),%rax
ffffffff800096a3:	0f b6 80 25 02 00 00 	movzbl 0x225(%rax),%eax
ffffffff800096aa:	0f b6 c0             	movzbl %al,%eax
ffffffff800096ad:	8b 95 1c fc ff ff    	mov    -0x3e4(%rbp),%edx
ffffffff800096b3:	89 c1                	mov    %eax,%ecx
ffffffff800096b5:	d3 e2                	shl    %cl,%edx
ffffffff800096b7:	89 d0                	mov    %edx,%eax
ffffffff800096b9:	09 c6                	or     %eax,%esi
ffffffff800096bb:	89 f2                	mov    %esi,%edx
ffffffff800096bd:	48 8b 45 a8          	mov    -0x58(%rbp),%rax
ffffffff800096c1:	89 90 94 02 00 00    	mov    %edx,0x294(%rax)
ffffffff800096c7:	e9 c1 00 00 00       	jmp    ffffffff8000978d <flanterm_fb_init+0x150a>
ffffffff800096cc:	48 8b 45 a0          	mov    -0x60(%rbp),%rax
ffffffff800096d0:	48 89 85 10 fc ff ff 	mov    %rax,-0x3f0(%rbp)
ffffffff800096d7:	c7 85 0c fc ff ff 55 	movl   $0x555555,-0x3f4(%rbp)
ffffffff800096de:	55 55 00 
ffffffff800096e1:	48 8b 85 10 fc ff ff 	mov    -0x3f0(%rbp),%rax
ffffffff800096e8:	48 89 85 00 fc ff ff 	mov    %rax,-0x400(%rbp)
ffffffff800096ef:	8b 85 0c fc ff ff    	mov    -0x3f4(%rbp),%eax
ffffffff800096f5:	c1 e8 10             	shr    $0x10,%eax
ffffffff800096f8:	25 ff 00 00 00       	and    $0xff,%eax
ffffffff800096fd:	89 85 fc fb ff ff    	mov    %eax,-0x404(%rbp)
ffffffff80009703:	8b 85 0c fc ff ff    	mov    -0x3f4(%rbp),%eax
ffffffff80009709:	c1 e8 08             	shr    $0x8,%eax
ffffffff8000970c:	25 ff 00 00 00       	and    $0xff,%eax
ffffffff80009711:	89 85 f8 fb ff ff    	mov    %eax,-0x408(%rbp)
ffffffff80009717:	8b 85 0c fc ff ff    	mov    -0x3f4(%rbp),%eax
ffffffff8000971d:	0f b6 c0             	movzbl %al,%eax
ffffffff80009720:	89 85 f4 fb ff ff    	mov    %eax,-0x40c(%rbp)
ffffffff80009726:	48 8b 85 00 fc ff ff 	mov    -0x400(%rbp),%rax
ffffffff8000972d:	0f b6 80 21 02 00 00 	movzbl 0x221(%rax),%eax
ffffffff80009734:	0f b6 c0             	movzbl %al,%eax
ffffffff80009737:	8b 95 fc fb ff ff    	mov    -0x404(%rbp),%edx
ffffffff8000973d:	89 d6                	mov    %edx,%esi
ffffffff8000973f:	89 c1                	mov    %eax,%ecx
ffffffff80009741:	d3 e6                	shl    %cl,%esi
ffffffff80009743:	48 8b 85 00 fc ff ff 	mov    -0x400(%rbp),%rax
ffffffff8000974a:	0f b6 80 23 02 00 00 	movzbl 0x223(%rax),%eax
ffffffff80009751:	0f b6 c0             	movzbl %al,%eax
ffffffff80009754:	8b 95 f8 fb ff ff    	mov    -0x408(%rbp),%edx
ffffffff8000975a:	89 c1                	mov    %eax,%ecx
ffffffff8000975c:	d3 e2                	shl    %cl,%edx
ffffffff8000975e:	89 d0                	mov    %edx,%eax
ffffffff80009760:	09 c6                	or     %eax,%esi
ffffffff80009762:	48 8b 85 00 fc ff ff 	mov    -0x400(%rbp),%rax
ffffffff80009769:	0f b6 80 25 02 00 00 	movzbl 0x225(%rax),%eax
ffffffff80009770:	0f b6 c0             	movzbl %al,%eax
ffffffff80009773:	8b 95 f4 fb ff ff    	mov    -0x40c(%rbp),%edx
ffffffff80009779:	89 c1                	mov    %eax,%ecx
ffffffff8000977b:	d3 e2                	shl    %cl,%edx
ffffffff8000977d:	89 d0                	mov    %edx,%eax
ffffffff8000977f:	09 c6                	or     %eax,%esi
ffffffff80009781:	89 f2                	mov    %esi,%edx
ffffffff80009783:	48 8b 45 a8          	mov    -0x58(%rbp),%rax
ffffffff80009787:	89 90 94 02 00 00    	mov    %edx,0x294(%rax)
ffffffff8000978d:	48 83 7d 70 00       	cmpq   $0x0,0x70(%rbp)
ffffffff80009792:	0f 84 c8 00 00 00    	je     ffffffff80009860 <flanterm_fb_init+0x15dd>
ffffffff80009798:	48 8b 45 70          	mov    0x70(%rbp),%rax
ffffffff8000979c:	8b 00                	mov    (%rax),%eax
ffffffff8000979e:	48 8b 55 a0          	mov    -0x60(%rbp),%rdx
ffffffff800097a2:	48 89 95 e8 fb ff ff 	mov    %rdx,-0x418(%rbp)
ffffffff800097a9:	89 85 e4 fb ff ff    	mov    %eax,-0x41c(%rbp)
ffffffff800097af:	48 8b 85 e8 fb ff ff 	mov    -0x418(%rbp),%rax
ffffffff800097b6:	48 89 85 d8 fb ff ff 	mov    %rax,-0x428(%rbp)
ffffffff800097bd:	8b 85 e4 fb ff ff    	mov    -0x41c(%rbp),%eax
ffffffff800097c3:	c1 e8 10             	shr    $0x10,%eax
ffffffff800097c6:	25 ff 00 00 00       	and    $0xff,%eax
ffffffff800097cb:	89 85 d4 fb ff ff    	mov    %eax,-0x42c(%rbp)
ffffffff800097d1:	8b 85 e4 fb ff ff    	mov    -0x41c(%rbp),%eax
ffffffff800097d7:	c1 e8 08             	shr    $0x8,%eax
ffffffff800097da:	25 ff 00 00 00       	and    $0xff,%eax
ffffffff800097df:	89 85 d0 fb ff ff    	mov    %eax,-0x430(%rbp)
ffffffff800097e5:	8b 85 e4 fb ff ff    	mov    -0x41c(%rbp),%eax
ffffffff800097eb:	0f b6 c0             	movzbl %al,%eax
ffffffff800097ee:	89 85 cc fb ff ff    	mov    %eax,-0x434(%rbp)
ffffffff800097f4:	48 8b 85 d8 fb ff ff 	mov    -0x428(%rbp),%rax
ffffffff800097fb:	0f b6 80 21 02 00 00 	movzbl 0x221(%rax),%eax
ffffffff80009802:	0f b6 c0             	movzbl %al,%eax
ffffffff80009805:	8b 95 d4 fb ff ff    	mov    -0x42c(%rbp),%edx
ffffffff8000980b:	89 d6                	mov    %edx,%esi
ffffffff8000980d:	89 c1                	mov    %eax,%ecx
ffffffff8000980f:	d3 e6                	shl    %cl,%esi
ffffffff80009811:	48 8b 85 d8 fb ff ff 	mov    -0x428(%rbp),%rax
ffffffff80009818:	0f b6 80 23 02 00 00 	movzbl 0x223(%rax),%eax
ffffffff8000981f:	0f b6 c0             	movzbl %al,%eax
ffffffff80009822:	8b 95 d0 fb ff ff    	mov    -0x430(%rbp),%edx
ffffffff80009828:	89 c1                	mov    %eax,%ecx
ffffffff8000982a:	d3 e2                	shl    %cl,%edx
ffffffff8000982c:	89 d0                	mov    %edx,%eax
ffffffff8000982e:	09 c6                	or     %eax,%esi
ffffffff80009830:	48 8b 85 d8 fb ff ff 	mov    -0x428(%rbp),%rax
ffffffff80009837:	0f b6 80 25 02 00 00 	movzbl 0x225(%rax),%eax
ffffffff8000983e:	0f b6 c0             	movzbl %al,%eax
ffffffff80009841:	8b 95 cc fb ff ff    	mov    -0x434(%rbp),%edx
ffffffff80009847:	89 c1                	mov    %eax,%ecx
ffffffff80009849:	d3 e2                	shl    %cl,%edx
ffffffff8000984b:	89 d0                	mov    %edx,%eax
ffffffff8000984d:	09 c6                	or     %eax,%esi
ffffffff8000984f:	89 f2                	mov    %esi,%edx
ffffffff80009851:	48 8b 45 a8          	mov    -0x58(%rbp),%rax
ffffffff80009855:	89 90 90 02 00 00    	mov    %edx,0x290(%rax)
ffffffff8000985b:	e9 c1 00 00 00       	jmp    ffffffff80009921 <flanterm_fb_init+0x169e>
ffffffff80009860:	48 8b 45 a0          	mov    -0x60(%rbp),%rax
ffffffff80009864:	48 89 85 c0 fb ff ff 	mov    %rax,-0x440(%rbp)
ffffffff8000986b:	c7 85 bc fb ff ff ff 	movl   $0xffffff,-0x444(%rbp)
ffffffff80009872:	ff ff 00 
ffffffff80009875:	48 8b 85 c0 fb ff ff 	mov    -0x440(%rbp),%rax
ffffffff8000987c:	48 89 85 b0 fb ff ff 	mov    %rax,-0x450(%rbp)
ffffffff80009883:	8b 85 bc fb ff ff    	mov    -0x444(%rbp),%eax
ffffffff80009889:	c1 e8 10             	shr    $0x10,%eax
ffffffff8000988c:	25 ff 00 00 00       	and    $0xff,%eax
ffffffff80009891:	89 85 ac fb ff ff    	mov    %eax,-0x454(%rbp)
ffffffff80009897:	8b 85 bc fb ff ff    	mov    -0x444(%rbp),%eax
ffffffff8000989d:	c1 e8 08             	shr    $0x8,%eax
ffffffff800098a0:	25 ff 00 00 00       	and    $0xff,%eax
ffffffff800098a5:	89 85 a8 fb ff ff    	mov    %eax,-0x458(%rbp)
ffffffff800098ab:	8b 85 bc fb ff ff    	mov    -0x444(%rbp),%eax
ffffffff800098b1:	0f b6 c0             	movzbl %al,%eax
ffffffff800098b4:	89 85 a4 fb ff ff    	mov    %eax,-0x45c(%rbp)
ffffffff800098ba:	48 8b 85 b0 fb ff ff 	mov    -0x450(%rbp),%rax
ffffffff800098c1:	0f b6 80 21 02 00 00 	movzbl 0x221(%rax),%eax
ffffffff800098c8:	0f b6 c0             	movzbl %al,%eax
ffffffff800098cb:	8b 95 ac fb ff ff    	mov    -0x454(%rbp),%edx
ffffffff800098d1:	89 d6                	mov    %edx,%esi
ffffffff800098d3:	89 c1                	mov    %eax,%ecx
ffffffff800098d5:	d3 e6                	shl    %cl,%esi
ffffffff800098d7:	48 8b 85 b0 fb ff ff 	mov    -0x450(%rbp),%rax
ffffffff800098de:	0f b6 80 23 02 00 00 	movzbl 0x223(%rax),%eax
ffffffff800098e5:	0f b6 c0             	movzbl %al,%eax
ffffffff800098e8:	8b 95 a8 fb ff ff    	mov    -0x458(%rbp),%edx
ffffffff800098ee:	89 c1                	mov    %eax,%ecx
ffffffff800098f0:	d3 e2                	shl    %cl,%edx
ffffffff800098f2:	89 d0                	mov    %edx,%eax
ffffffff800098f4:	09 c6                	or     %eax,%esi
ffffffff800098f6:	48 8b 85 b0 fb ff ff 	mov    -0x450(%rbp),%rax
ffffffff800098fd:	0f b6 80 25 02 00 00 	movzbl 0x225(%rax),%eax
ffffffff80009904:	0f b6 c0             	movzbl %al,%eax
ffffffff80009907:	8b 95 a4 fb ff ff    	mov    -0x45c(%rbp),%edx
ffffffff8000990d:	89 c1                	mov    %eax,%ecx
ffffffff8000990f:	d3 e2                	shl    %cl,%edx
ffffffff80009911:	89 d0                	mov    %edx,%eax
ffffffff80009913:	09 c6                	or     %eax,%esi
ffffffff80009915:	89 f2                	mov    %esi,%edx
ffffffff80009917:	48 8b 45 a8          	mov    -0x58(%rbp),%rax
ffffffff8000991b:	89 90 90 02 00 00    	mov    %edx,0x290(%rax)
ffffffff80009921:	48 8b 45 a8          	mov    -0x58(%rbp),%rax
ffffffff80009925:	8b 90 88 02 00 00    	mov    0x288(%rax),%edx
ffffffff8000992b:	48 8b 45 a8          	mov    -0x58(%rbp),%rax
ffffffff8000992f:	89 90 e0 02 00 00    	mov    %edx,0x2e0(%rax)
ffffffff80009935:	48 8b 45 a8          	mov    -0x58(%rbp),%rax
ffffffff80009939:	c7 80 e4 02 00 00 ff 	movl   $0xffffffff,0x2e4(%rax)
ffffffff80009940:	ff ff ff 
ffffffff80009943:	48 8b 45 a8          	mov    -0x58(%rbp),%rax
ffffffff80009947:	48 8b 95 58 fb ff ff 	mov    -0x4a8(%rbp),%rdx
ffffffff8000994e:	48 89 90 f8 01 00 00 	mov    %rdx,0x1f8(%rax)
ffffffff80009955:	48 8b 45 a8          	mov    -0x58(%rbp),%rax
ffffffff80009959:	48 8b 95 50 fb ff ff 	mov    -0x4b0(%rbp),%rdx
ffffffff80009960:	48 89 90 08 02 00 00 	mov    %rdx,0x208(%rax)
ffffffff80009967:	48 8b 45 a8          	mov    -0x58(%rbp),%rax
ffffffff8000996b:	48 8b 95 48 fb ff ff 	mov    -0x4b8(%rbp),%rdx
ffffffff80009972:	48 89 90 10 02 00 00 	mov    %rdx,0x210(%rax)
ffffffff80009979:	48 8b 45 a8          	mov    -0x58(%rbp),%rax
ffffffff8000997d:	48 8b 95 40 fb ff ff 	mov    -0x4c0(%rbp),%rdx
ffffffff80009984:	48 89 90 00 02 00 00 	mov    %rdx,0x200(%rax)
ffffffff8000998b:	48 83 7d 78 00       	cmpq   $0x0,0x78(%rbp)
ffffffff80009990:	0f 84 a9 00 00 00    	je     ffffffff80009a3f <flanterm_fb_init+0x17bc>
ffffffff80009996:	48 8b 45 a8          	mov    -0x58(%rbp),%rax
ffffffff8000999a:	48 8b 95 80 00 00 00 	mov    0x80(%rbp),%rdx
ffffffff800099a1:	48 89 90 b8 01 00 00 	mov    %rdx,0x1b8(%rax)
ffffffff800099a8:	48 8b 45 a8          	mov    -0x58(%rbp),%rax
ffffffff800099ac:	48 8b 95 88 00 00 00 	mov    0x88(%rbp),%rdx
ffffffff800099b3:	48 89 90 c0 01 00 00 	mov    %rdx,0x1c0(%rax)
ffffffff800099ba:	48 8b 85 80 00 00 00 	mov    0x80(%rbp),%rax
ffffffff800099c1:	48 0f af 85 88 00 00 	imul   0x88(%rbp),%rax
ffffffff800099c8:	00 
ffffffff800099c9:	48 c1 e0 08          	shl    $0x8,%rax
ffffffff800099cd:	48 c1 e8 03          	shr    $0x3,%rax
ffffffff800099d1:	48 89 c2             	mov    %rax,%rdx
ffffffff800099d4:	48 8b 45 a8          	mov    -0x58(%rbp),%rax
ffffffff800099d8:	48 89 90 28 02 00 00 	mov    %rdx,0x228(%rax)
ffffffff800099df:	48 8b 45 a8          	mov    -0x58(%rbp),%rax
ffffffff800099e3:	48 8b 80 28 02 00 00 	mov    0x228(%rax),%rax
ffffffff800099ea:	48 8b 95 68 fb ff ff 	mov    -0x498(%rbp),%rdx
ffffffff800099f1:	48 89 c7             	mov    %rax,%rdi
ffffffff800099f4:	ff d2                	call   *%rdx
ffffffff800099f6:	48 8b 55 a8          	mov    -0x58(%rbp),%rdx
ffffffff800099fa:	48 89 82 30 02 00 00 	mov    %rax,0x230(%rdx)
ffffffff80009a01:	48 8b 45 a8          	mov    -0x58(%rbp),%rax
ffffffff80009a05:	48 8b 80 30 02 00 00 	mov    0x230(%rax),%rax
ffffffff80009a0c:	48 85 c0             	test   %rax,%rax
ffffffff80009a0f:	0f 84 92 0a 00 00    	je     ffffffff8000a4a7 <flanterm_fb_init+0x2224>
ffffffff80009a15:	48 8b 45 a8          	mov    -0x58(%rbp),%rax
ffffffff80009a19:	48 8b 90 28 02 00 00 	mov    0x228(%rax),%rdx
ffffffff80009a20:	48 8b 45 a8          	mov    -0x58(%rbp),%rax
ffffffff80009a24:	48 8b 80 30 02 00 00 	mov    0x230(%rax),%rax
ffffffff80009a2b:	48 8b 4d 78          	mov    0x78(%rbp),%rcx
ffffffff80009a2f:	48 89 ce             	mov    %rcx,%rsi
ffffffff80009a32:	48 89 c7             	mov    %rax,%rdi
ffffffff80009a35:	e8 c6 19 00 00       	call   ffffffff8000b400 <memcpy>
ffffffff80009a3a:	e9 c8 00 00 00       	jmp    ffffffff80009b07 <flanterm_fb_init+0x1884>
ffffffff80009a3f:	48 c7 85 80 00 00 00 	movq   $0x8,0x80(%rbp)
ffffffff80009a46:	08 00 00 00 
ffffffff80009a4a:	48 8b 45 a8          	mov    -0x58(%rbp),%rax
ffffffff80009a4e:	48 8b 95 80 00 00 00 	mov    0x80(%rbp),%rdx
ffffffff80009a55:	48 89 90 b8 01 00 00 	mov    %rdx,0x1b8(%rax)
ffffffff80009a5c:	48 c7 85 88 00 00 00 	movq   $0x10,0x88(%rbp)
ffffffff80009a63:	10 00 00 00 
ffffffff80009a67:	48 8b 45 a8          	mov    -0x58(%rbp),%rax
ffffffff80009a6b:	48 8b 95 88 00 00 00 	mov    0x88(%rbp),%rdx
ffffffff80009a72:	48 89 90 c0 01 00 00 	mov    %rdx,0x1c0(%rax)
ffffffff80009a79:	48 8b 85 80 00 00 00 	mov    0x80(%rbp),%rax
ffffffff80009a80:	48 0f af 85 88 00 00 	imul   0x88(%rbp),%rax
ffffffff80009a87:	00 
ffffffff80009a88:	48 c1 e0 08          	shl    $0x8,%rax
ffffffff80009a8c:	48 c1 e8 03          	shr    $0x3,%rax
ffffffff80009a90:	48 89 c2             	mov    %rax,%rdx
ffffffff80009a93:	48 8b 45 a8          	mov    -0x58(%rbp),%rax
ffffffff80009a97:	48 89 90 28 02 00 00 	mov    %rdx,0x228(%rax)
ffffffff80009a9e:	48 c7 85 90 00 00 00 	movq   $0x1,0x90(%rbp)
ffffffff80009aa5:	01 00 00 00 
ffffffff80009aa9:	48 8b 45 a8          	mov    -0x58(%rbp),%rax
ffffffff80009aad:	48 8b 80 28 02 00 00 	mov    0x228(%rax),%rax
ffffffff80009ab4:	48 8b 95 68 fb ff ff 	mov    -0x498(%rbp),%rdx
ffffffff80009abb:	48 89 c7             	mov    %rax,%rdi
ffffffff80009abe:	ff d2                	call   *%rdx
ffffffff80009ac0:	48 8b 55 a8          	mov    -0x58(%rbp),%rdx
ffffffff80009ac4:	48 89 82 30 02 00 00 	mov    %rax,0x230(%rdx)
ffffffff80009acb:	48 8b 45 a8          	mov    -0x58(%rbp),%rax
ffffffff80009acf:	48 8b 80 30 02 00 00 	mov    0x230(%rax),%rax
ffffffff80009ad6:	48 85 c0             	test   %rax,%rax
ffffffff80009ad9:	0f 84 cb 09 00 00    	je     ffffffff8000a4aa <flanterm_fb_init+0x2227>
ffffffff80009adf:	48 8b 45 a8          	mov    -0x58(%rbp),%rax
ffffffff80009ae3:	48 8b 90 28 02 00 00 	mov    0x228(%rax),%rdx
ffffffff80009aea:	48 8b 45 a8          	mov    -0x58(%rbp),%rax
ffffffff80009aee:	48 8b 80 30 02 00 00 	mov    0x230(%rax),%rax
ffffffff80009af5:	48 8d 0d 44 37 00 00 	lea    0x3744(%rip),%rcx        # ffffffff8000d240 <builtin_font>
ffffffff80009afc:	48 89 ce             	mov    %rcx,%rsi
ffffffff80009aff:	48 89 c7             	mov    %rax,%rdi
ffffffff80009b02:	e8 f9 18 00 00       	call   ffffffff8000b400 <memcpy>
ffffffff80009b07:	48 8b 45 a8          	mov    -0x58(%rbp),%rax
ffffffff80009b0b:	48 8b 90 b8 01 00 00 	mov    0x1b8(%rax),%rdx
ffffffff80009b12:	48 8b 85 90 00 00 00 	mov    0x90(%rbp),%rax
ffffffff80009b19:	48 01 c2             	add    %rax,%rdx
ffffffff80009b1c:	48 8b 45 a8          	mov    -0x58(%rbp),%rax
ffffffff80009b20:	48 89 90 b8 01 00 00 	mov    %rdx,0x1b8(%rax)
ffffffff80009b27:	48 8b 45 a8          	mov    -0x58(%rbp),%rax
ffffffff80009b2b:	48 8b 80 b8 01 00 00 	mov    0x1b8(%rax),%rax
ffffffff80009b32:	48 0f af 85 88 00 00 	imul   0x88(%rbp),%rax
ffffffff80009b39:	00 
ffffffff80009b3a:	48 c1 e0 08          	shl    $0x8,%rax
ffffffff80009b3e:	48 89 c2             	mov    %rax,%rdx
ffffffff80009b41:	48 8b 45 a8          	mov    -0x58(%rbp),%rax
ffffffff80009b45:	48 89 90 38 02 00 00 	mov    %rdx,0x238(%rax)
ffffffff80009b4c:	48 8b 45 a8          	mov    -0x58(%rbp),%rax
ffffffff80009b50:	48 8b 80 38 02 00 00 	mov    0x238(%rax),%rax
ffffffff80009b57:	48 8b 95 68 fb ff ff 	mov    -0x498(%rbp),%rdx
ffffffff80009b5e:	48 89 c7             	mov    %rax,%rdi
ffffffff80009b61:	ff d2                	call   *%rdx
ffffffff80009b63:	48 8b 55 a8          	mov    -0x58(%rbp),%rdx
ffffffff80009b67:	48 89 82 40 02 00 00 	mov    %rax,0x240(%rdx)
ffffffff80009b6e:	48 8b 45 a8          	mov    -0x58(%rbp),%rax
ffffffff80009b72:	48 8b 80 40 02 00 00 	mov    0x240(%rax),%rax
ffffffff80009b79:	48 85 c0             	test   %rax,%rax
ffffffff80009b7c:	0f 84 2b 09 00 00    	je     ffffffff8000a4ad <flanterm_fb_init+0x222a>
ffffffff80009b82:	48 c7 45 e8 00 00 00 	movq   $0x0,-0x18(%rbp)
ffffffff80009b89:	00 
ffffffff80009b8a:	e9 8c 01 00 00       	jmp    ffffffff80009d1b <flanterm_fb_init+0x1a98>
ffffffff80009b8f:	48 8b 45 a8          	mov    -0x58(%rbp),%rax
ffffffff80009b93:	48 8b 90 30 02 00 00 	mov    0x230(%rax),%rdx
ffffffff80009b9a:	48 8b 45 e8          	mov    -0x18(%rbp),%rax
ffffffff80009b9e:	48 0f af 85 88 00 00 	imul   0x88(%rbp),%rax
ffffffff80009ba5:	00 
ffffffff80009ba6:	48 01 d0             	add    %rdx,%rax
ffffffff80009ba9:	48 89 45 98          	mov    %rax,-0x68(%rbp)
ffffffff80009bad:	48 c7 45 e0 00 00 00 	movq   $0x0,-0x20(%rbp)
ffffffff80009bb4:	00 
ffffffff80009bb5:	e9 4b 01 00 00       	jmp    ffffffff80009d05 <flanterm_fb_init+0x1a82>
ffffffff80009bba:	48 c7 45 d8 00 00 00 	movq   $0x0,-0x28(%rbp)
ffffffff80009bc1:	00 
ffffffff80009bc2:	e9 87 00 00 00       	jmp    ffffffff80009c4e <flanterm_fb_init+0x19cb>
ffffffff80009bc7:	48 8b 45 e8          	mov    -0x18(%rbp),%rax
ffffffff80009bcb:	48 0f af 85 88 00 00 	imul   0x88(%rbp),%rax
ffffffff80009bd2:	00 
ffffffff80009bd3:	48 89 c2             	mov    %rax,%rdx
ffffffff80009bd6:	48 8b 45 e0          	mov    -0x20(%rbp),%rax
ffffffff80009bda:	48 01 c2             	add    %rax,%rdx
ffffffff80009bdd:	48 8b 45 a8          	mov    -0x58(%rbp),%rax
ffffffff80009be1:	48 8b 80 b8 01 00 00 	mov    0x1b8(%rax),%rax
ffffffff80009be8:	48 0f af d0          	imul   %rax,%rdx
ffffffff80009bec:	48 8b 45 d8          	mov    -0x28(%rbp),%rax
ffffffff80009bf0:	48 01 d0             	add    %rdx,%rax
ffffffff80009bf3:	48 89 45 88          	mov    %rax,-0x78(%rbp)
ffffffff80009bf7:	48 8b 55 98          	mov    -0x68(%rbp),%rdx
ffffffff80009bfb:	48 8b 45 e0          	mov    -0x20(%rbp),%rax
ffffffff80009bff:	48 01 d0             	add    %rdx,%rax
ffffffff80009c02:	0f b6 00             	movzbl (%rax),%eax
ffffffff80009c05:	0f b6 c0             	movzbl %al,%eax
ffffffff80009c08:	48 8b 55 d8          	mov    -0x28(%rbp),%rdx
ffffffff80009c0c:	be 80 00 00 00       	mov    $0x80,%esi
ffffffff80009c11:	89 d1                	mov    %edx,%ecx
ffffffff80009c13:	d3 fe                	sar    %cl,%esi
ffffffff80009c15:	89 f2                	mov    %esi,%edx
ffffffff80009c17:	21 d0                	and    %edx,%eax
ffffffff80009c19:	85 c0                	test   %eax,%eax
ffffffff80009c1b:	74 17                	je     ffffffff80009c34 <flanterm_fb_init+0x19b1>
ffffffff80009c1d:	48 8b 45 a8          	mov    -0x58(%rbp),%rax
ffffffff80009c21:	48 8b 90 40 02 00 00 	mov    0x240(%rax),%rdx
ffffffff80009c28:	48 8b 45 88          	mov    -0x78(%rbp),%rax
ffffffff80009c2c:	48 01 d0             	add    %rdx,%rax
ffffffff80009c2f:	c6 00 01             	movb   $0x1,(%rax)
ffffffff80009c32:	eb 15                	jmp    ffffffff80009c49 <flanterm_fb_init+0x19c6>
ffffffff80009c34:	48 8b 45 a8          	mov    -0x58(%rbp),%rax
ffffffff80009c38:	48 8b 90 40 02 00 00 	mov    0x240(%rax),%rdx
ffffffff80009c3f:	48 8b 45 88          	mov    -0x78(%rbp),%rax
ffffffff80009c43:	48 01 d0             	add    %rdx,%rax
ffffffff80009c46:	c6 00 00             	movb   $0x0,(%rax)
ffffffff80009c49:	48 83 45 d8 01       	addq   $0x1,-0x28(%rbp)
ffffffff80009c4e:	48 83 7d d8 07       	cmpq   $0x7,-0x28(%rbp)
ffffffff80009c53:	0f 86 6e ff ff ff    	jbe    ffffffff80009bc7 <flanterm_fb_init+0x1944>
ffffffff80009c59:	48 c7 45 d0 08 00 00 	movq   $0x8,-0x30(%rbp)
ffffffff80009c60:	00 
ffffffff80009c61:	e9 85 00 00 00       	jmp    ffffffff80009ceb <flanterm_fb_init+0x1a68>
ffffffff80009c66:	48 8b 45 e8          	mov    -0x18(%rbp),%rax
ffffffff80009c6a:	48 0f af 85 88 00 00 	imul   0x88(%rbp),%rax
ffffffff80009c71:	00 
ffffffff80009c72:	48 89 c2             	mov    %rax,%rdx
ffffffff80009c75:	48 8b 45 e0          	mov    -0x20(%rbp),%rax
ffffffff80009c79:	48 01 c2             	add    %rax,%rdx
ffffffff80009c7c:	48 8b 45 a8          	mov    -0x58(%rbp),%rax
ffffffff80009c80:	48 8b 80 b8 01 00 00 	mov    0x1b8(%rax),%rax
ffffffff80009c87:	48 0f af d0          	imul   %rax,%rdx
ffffffff80009c8b:	48 8b 45 d0          	mov    -0x30(%rbp),%rax
ffffffff80009c8f:	48 01 d0             	add    %rdx,%rax
ffffffff80009c92:	48 89 45 90          	mov    %rax,-0x70(%rbp)
ffffffff80009c96:	48 81 7d e8 bf 00 00 	cmpq   $0xbf,-0x18(%rbp)
ffffffff80009c9d:	00 
ffffffff80009c9e:	76 31                	jbe    ffffffff80009cd1 <flanterm_fb_init+0x1a4e>
ffffffff80009ca0:	48 81 7d e8 df 00 00 	cmpq   $0xdf,-0x18(%rbp)
ffffffff80009ca7:	00 
ffffffff80009ca8:	77 27                	ja     ffffffff80009cd1 <flanterm_fb_init+0x1a4e>
ffffffff80009caa:	48 8b 55 98          	mov    -0x68(%rbp),%rdx
ffffffff80009cae:	48 8b 45 e0          	mov    -0x20(%rbp),%rax
ffffffff80009cb2:	48 01 d0             	add    %rdx,%rax
ffffffff80009cb5:	0f b6 10             	movzbl (%rax),%edx
ffffffff80009cb8:	48 8b 45 a8          	mov    -0x58(%rbp),%rax
ffffffff80009cbc:	48 8b 88 40 02 00 00 	mov    0x240(%rax),%rcx
ffffffff80009cc3:	48 8b 45 90          	mov    -0x70(%rbp),%rax
ffffffff80009cc7:	48 01 c8             	add    %rcx,%rax
ffffffff80009cca:	83 e2 01             	and    $0x1,%edx
ffffffff80009ccd:	88 10                	mov    %dl,(%rax)
ffffffff80009ccf:	eb 15                	jmp    ffffffff80009ce6 <flanterm_fb_init+0x1a63>
ffffffff80009cd1:	48 8b 45 a8          	mov    -0x58(%rbp),%rax
ffffffff80009cd5:	48 8b 90 40 02 00 00 	mov    0x240(%rax),%rdx
ffffffff80009cdc:	48 8b 45 90          	mov    -0x70(%rbp),%rax
ffffffff80009ce0:	48 01 d0             	add    %rdx,%rax
ffffffff80009ce3:	c6 00 00             	movb   $0x0,(%rax)
ffffffff80009ce6:	48 83 45 d0 01       	addq   $0x1,-0x30(%rbp)
ffffffff80009ceb:	48 8b 45 a8          	mov    -0x58(%rbp),%rax
ffffffff80009cef:	48 8b 80 b8 01 00 00 	mov    0x1b8(%rax),%rax
ffffffff80009cf6:	48 39 45 d0          	cmp    %rax,-0x30(%rbp)
ffffffff80009cfa:	0f 82 66 ff ff ff    	jb     ffffffff80009c66 <flanterm_fb_init+0x19e3>
ffffffff80009d00:	48 83 45 e0 01       	addq   $0x1,-0x20(%rbp)
ffffffff80009d05:	48 8b 45 e0          	mov    -0x20(%rbp),%rax
ffffffff80009d09:	48 3b 85 88 00 00 00 	cmp    0x88(%rbp),%rax
ffffffff80009d10:	0f 82 a4 fe ff ff    	jb     ffffffff80009bba <flanterm_fb_init+0x1937>
ffffffff80009d16:	48 83 45 e8 01       	addq   $0x1,-0x18(%rbp)
ffffffff80009d1b:	48 81 7d e8 ff 00 00 	cmpq   $0xff,-0x18(%rbp)
ffffffff80009d22:	00 
ffffffff80009d23:	0f 86 66 fe ff ff    	jbe    ffffffff80009b8f <flanterm_fb_init+0x190c>
ffffffff80009d29:	48 8b 45 a8          	mov    -0x58(%rbp),%rax
ffffffff80009d2d:	48 8b 95 98 00 00 00 	mov    0x98(%rbp),%rdx
ffffffff80009d34:	48 89 90 d8 01 00 00 	mov    %rdx,0x1d8(%rax)
ffffffff80009d3b:	48 8b 45 a8          	mov    -0x58(%rbp),%rax
ffffffff80009d3f:	48 8b 95 a0 00 00 00 	mov    0xa0(%rbp),%rdx
ffffffff80009d46:	48 89 90 e0 01 00 00 	mov    %rdx,0x1e0(%rax)
ffffffff80009d4d:	48 8b 45 a8          	mov    -0x58(%rbp),%rax
ffffffff80009d51:	48 8b 80 b8 01 00 00 	mov    0x1b8(%rax),%rax
ffffffff80009d58:	48 0f af 85 98 00 00 	imul   0x98(%rbp),%rax
ffffffff80009d5f:	00 
ffffffff80009d60:	48 89 c2             	mov    %rax,%rdx
ffffffff80009d63:	48 8b 45 a8          	mov    -0x58(%rbp),%rax
ffffffff80009d67:	48 89 90 c8 01 00 00 	mov    %rdx,0x1c8(%rax)
ffffffff80009d6e:	48 8b 85 88 00 00 00 	mov    0x88(%rbp),%rax
ffffffff80009d75:	48 0f af 85 a0 00 00 	imul   0xa0(%rbp),%rax
ffffffff80009d7c:	00 
ffffffff80009d7d:	48 89 c2             	mov    %rax,%rdx
ffffffff80009d80:	48 8b 45 a8          	mov    -0x58(%rbp),%rax
ffffffff80009d84:	48 89 90 d0 01 00 00 	mov    %rdx,0x1d0(%rax)
ffffffff80009d8b:	48 8b 45 a8          	mov    -0x58(%rbp),%rax
ffffffff80009d8f:	48 8b 90 08 02 00 00 	mov    0x208(%rax),%rdx
ffffffff80009d96:	48 8b 85 a8 00 00 00 	mov    0xa8(%rbp),%rax
ffffffff80009d9d:	48 01 c0             	add    %rax,%rax
ffffffff80009da0:	48 89 d1             	mov    %rdx,%rcx
ffffffff80009da3:	48 29 c1             	sub    %rax,%rcx
ffffffff80009da6:	48 8b 45 a8          	mov    -0x58(%rbp),%rax
ffffffff80009daa:	48 8b b8 c8 01 00 00 	mov    0x1c8(%rax),%rdi
ffffffff80009db1:	48 89 c8             	mov    %rcx,%rax
ffffffff80009db4:	ba 00 00 00 00       	mov    $0x0,%edx
ffffffff80009db9:	48 f7 f7             	div    %rdi
ffffffff80009dbc:	48 89 c2             	mov    %rax,%rdx
ffffffff80009dbf:	48 8b 45 a0          	mov    -0x60(%rbp),%rax
ffffffff80009dc3:	48 89 90 e8 00 00 00 	mov    %rdx,0xe8(%rax)
ffffffff80009dca:	48 8b 45 a8          	mov    -0x58(%rbp),%rax
ffffffff80009dce:	48 8b 90 10 02 00 00 	mov    0x210(%rax),%rdx
ffffffff80009dd5:	48 8b 85 a8 00 00 00 	mov    0xa8(%rbp),%rax
ffffffff80009ddc:	48 01 c0             	add    %rax,%rax
ffffffff80009ddf:	48 89 d1             	mov    %rdx,%rcx
ffffffff80009de2:	48 29 c1             	sub    %rax,%rcx
ffffffff80009de5:	48 8b 45 a8          	mov    -0x58(%rbp),%rax
ffffffff80009de9:	48 8b b8 d0 01 00 00 	mov    0x1d0(%rax),%rdi
ffffffff80009df0:	48 89 c8             	mov    %rcx,%rax
ffffffff80009df3:	ba 00 00 00 00       	mov    $0x0,%edx
ffffffff80009df8:	48 f7 f7             	div    %rdi
ffffffff80009dfb:	48 89 c2             	mov    %rax,%rdx
ffffffff80009dfe:	48 8b 45 a0          	mov    -0x60(%rbp),%rax
ffffffff80009e02:	48 89 90 e0 00 00 00 	mov    %rdx,0xe0(%rax)
ffffffff80009e09:	48 8b 45 a8          	mov    -0x58(%rbp),%rax
ffffffff80009e0d:	48 8b 90 08 02 00 00 	mov    0x208(%rax),%rdx
ffffffff80009e14:	48 8b 85 a8 00 00 00 	mov    0xa8(%rbp),%rax
ffffffff80009e1b:	48 01 c0             	add    %rax,%rax
ffffffff80009e1e:	48 29 c2             	sub    %rax,%rdx
ffffffff80009e21:	48 8b 45 a8          	mov    -0x58(%rbp),%rax
ffffffff80009e25:	48 8b 88 c8 01 00 00 	mov    0x1c8(%rax),%rcx
ffffffff80009e2c:	48 89 d0             	mov    %rdx,%rax
ffffffff80009e2f:	ba 00 00 00 00       	mov    $0x0,%edx
ffffffff80009e34:	48 f7 f1             	div    %rcx
ffffffff80009e37:	48 89 d0             	mov    %rdx,%rax
ffffffff80009e3a:	48 d1 e8             	shr    $1,%rax
ffffffff80009e3d:	48 89 c2             	mov    %rax,%rdx
ffffffff80009e40:	48 8b 85 a8 00 00 00 	mov    0xa8(%rbp),%rax
ffffffff80009e47:	48 01 c2             	add    %rax,%rdx
ffffffff80009e4a:	48 8b 45 a8          	mov    -0x58(%rbp),%rax
ffffffff80009e4e:	48 89 90 e8 01 00 00 	mov    %rdx,0x1e8(%rax)
ffffffff80009e55:	48 8b 45 a8          	mov    -0x58(%rbp),%rax
ffffffff80009e59:	48 8b 90 10 02 00 00 	mov    0x210(%rax),%rdx
ffffffff80009e60:	48 8b 85 a8 00 00 00 	mov    0xa8(%rbp),%rax
ffffffff80009e67:	48 01 c0             	add    %rax,%rax
ffffffff80009e6a:	48 29 c2             	sub    %rax,%rdx
ffffffff80009e6d:	48 8b 45 a8          	mov    -0x58(%rbp),%rax
ffffffff80009e71:	48 8b 88 d0 01 00 00 	mov    0x1d0(%rax),%rcx
ffffffff80009e78:	48 89 d0             	mov    %rdx,%rax
ffffffff80009e7b:	ba 00 00 00 00       	mov    $0x0,%edx
ffffffff80009e80:	48 f7 f1             	div    %rcx
ffffffff80009e83:	48 89 d0             	mov    %rdx,%rax
ffffffff80009e86:	48 d1 e8             	shr    $1,%rax
ffffffff80009e89:	48 89 c2             	mov    %rax,%rdx
ffffffff80009e8c:	48 8b 85 a8 00 00 00 	mov    0xa8(%rbp),%rax
ffffffff80009e93:	48 01 c2             	add    %rax,%rdx
ffffffff80009e96:	48 8b 45 a8          	mov    -0x58(%rbp),%rax
ffffffff80009e9a:	48 89 90 f0 01 00 00 	mov    %rdx,0x1f0(%rax)
ffffffff80009ea1:	48 8b 45 a0          	mov    -0x60(%rbp),%rax
ffffffff80009ea5:	48 8b 90 e0 00 00 00 	mov    0xe0(%rax),%rdx
ffffffff80009eac:	48 8b 45 a0          	mov    -0x60(%rbp),%rax
ffffffff80009eb0:	48 8b 80 e8 00 00 00 	mov    0xe8(%rax),%rax
ffffffff80009eb7:	48 0f af d0          	imul   %rax,%rdx
ffffffff80009ebb:	48 89 d0             	mov    %rdx,%rax
ffffffff80009ebe:	48 01 c0             	add    %rax,%rax
ffffffff80009ec1:	48 01 d0             	add    %rdx,%rax
ffffffff80009ec4:	48 c1 e0 02          	shl    $0x2,%rax
ffffffff80009ec8:	48 89 c2             	mov    %rax,%rdx
ffffffff80009ecb:	48 8b 45 a8          	mov    -0x58(%rbp),%rax
ffffffff80009ecf:	48 89 90 a8 02 00 00 	mov    %rdx,0x2a8(%rax)
ffffffff80009ed6:	48 8b 45 a8          	mov    -0x58(%rbp),%rax
ffffffff80009eda:	48 8b 80 a8 02 00 00 	mov    0x2a8(%rax),%rax
ffffffff80009ee1:	48 8b 95 68 fb ff ff 	mov    -0x498(%rbp),%rdx
ffffffff80009ee8:	48 89 c7             	mov    %rax,%rdi
ffffffff80009eeb:	ff d2                	call   *%rdx
ffffffff80009eed:	48 8b 55 a8          	mov    -0x58(%rbp),%rdx
ffffffff80009ef1:	48 89 82 c0 02 00 00 	mov    %rax,0x2c0(%rdx)
ffffffff80009ef8:	48 8b 45 a8          	mov    -0x58(%rbp),%rax
ffffffff80009efc:	48 8b 80 c0 02 00 00 	mov    0x2c0(%rax),%rax
ffffffff80009f03:	48 85 c0             	test   %rax,%rax
ffffffff80009f06:	0f 84 a4 05 00 00    	je     ffffffff8000a4b0 <flanterm_fb_init+0x222d>
ffffffff80009f0c:	48 c7 45 c8 00 00 00 	movq   $0x0,-0x38(%rbp)
ffffffff80009f13:	00 
ffffffff80009f14:	e9 84 00 00 00       	jmp    ffffffff80009f9d <flanterm_fb_init+0x1d1a>
ffffffff80009f19:	48 8b 45 a8          	mov    -0x58(%rbp),%rax
ffffffff80009f1d:	48 8b 88 c0 02 00 00 	mov    0x2c0(%rax),%rcx
ffffffff80009f24:	48 8b 55 c8          	mov    -0x38(%rbp),%rdx
ffffffff80009f28:	48 89 d0             	mov    %rdx,%rax
ffffffff80009f2b:	48 01 c0             	add    %rax,%rax
ffffffff80009f2e:	48 01 d0             	add    %rdx,%rax
ffffffff80009f31:	48 c1 e0 02          	shl    $0x2,%rax
ffffffff80009f35:	48 01 c8             	add    %rcx,%rax
ffffffff80009f38:	c7 00 20 00 00 00    	movl   $0x20,(%rax)
ffffffff80009f3e:	48 8b 45 a8          	mov    -0x58(%rbp),%rax
ffffffff80009f42:	48 8b 88 c0 02 00 00 	mov    0x2c0(%rax),%rcx
ffffffff80009f49:	48 8b 55 c8          	mov    -0x38(%rbp),%rdx
ffffffff80009f4d:	48 89 d0             	mov    %rdx,%rax
ffffffff80009f50:	48 01 c0             	add    %rax,%rax
ffffffff80009f53:	48 01 d0             	add    %rdx,%rax
ffffffff80009f56:	48 c1 e0 02          	shl    $0x2,%rax
ffffffff80009f5a:	48 8d 14 01          	lea    (%rcx,%rax,1),%rdx
ffffffff80009f5e:	48 8b 45 a8          	mov    -0x58(%rbp),%rax
ffffffff80009f62:	8b 80 e0 02 00 00    	mov    0x2e0(%rax),%eax
ffffffff80009f68:	89 42 04             	mov    %eax,0x4(%rdx)
ffffffff80009f6b:	48 8b 45 a8          	mov    -0x58(%rbp),%rax
ffffffff80009f6f:	48 8b 88 c0 02 00 00 	mov    0x2c0(%rax),%rcx
ffffffff80009f76:	48 8b 55 c8          	mov    -0x38(%rbp),%rdx
ffffffff80009f7a:	48 89 d0             	mov    %rdx,%rax
ffffffff80009f7d:	48 01 c0             	add    %rax,%rax
ffffffff80009f80:	48 01 d0             	add    %rdx,%rax
ffffffff80009f83:	48 c1 e0 02          	shl    $0x2,%rax
ffffffff80009f87:	48 8d 14 01          	lea    (%rcx,%rax,1),%rdx
ffffffff80009f8b:	48 8b 45 a8          	mov    -0x58(%rbp),%rax
ffffffff80009f8f:	8b 80 e4 02 00 00    	mov    0x2e4(%rax),%eax
ffffffff80009f95:	89 42 08             	mov    %eax,0x8(%rdx)
ffffffff80009f98:	48 83 45 c8 01       	addq   $0x1,-0x38(%rbp)
ffffffff80009f9d:	48 8b 45 a0          	mov    -0x60(%rbp),%rax
ffffffff80009fa1:	48 8b 90 e0 00 00 00 	mov    0xe0(%rax),%rdx
ffffffff80009fa8:	48 8b 45 a0          	mov    -0x60(%rbp),%rax
ffffffff80009fac:	48 8b 80 e8 00 00 00 	mov    0xe8(%rax),%rax
ffffffff80009fb3:	48 0f af c2          	imul   %rdx,%rax
ffffffff80009fb7:	48 39 45 c8          	cmp    %rax,-0x38(%rbp)
ffffffff80009fbb:	0f 82 58 ff ff ff    	jb     ffffffff80009f19 <flanterm_fb_init+0x1c96>
ffffffff80009fc1:	48 8b 45 a0          	mov    -0x60(%rbp),%rax
ffffffff80009fc5:	48 8b 90 e0 00 00 00 	mov    0xe0(%rax),%rdx
ffffffff80009fcc:	48 8b 45 a0          	mov    -0x60(%rbp),%rax
ffffffff80009fd0:	48 8b 80 e8 00 00 00 	mov    0xe8(%rax),%rax
ffffffff80009fd7:	48 0f af c2          	imul   %rdx,%rax
ffffffff80009fdb:	48 c1 e0 05          	shl    $0x5,%rax
ffffffff80009fdf:	48 89 c2             	mov    %rax,%rdx
ffffffff80009fe2:	48 8b 45 a8          	mov    -0x58(%rbp),%rax
ffffffff80009fe6:	48 89 90 b0 02 00 00 	mov    %rdx,0x2b0(%rax)
ffffffff80009fed:	48 8b 45 a8          	mov    -0x58(%rbp),%rax
ffffffff80009ff1:	48 8b 80 b0 02 00 00 	mov    0x2b0(%rax),%rax
ffffffff80009ff8:	48 8b 95 68 fb ff ff 	mov    -0x498(%rbp),%rdx
ffffffff80009fff:	48 89 c7             	mov    %rax,%rdi
ffffffff8000a002:	ff d2                	call   *%rdx
ffffffff8000a004:	48 8b 55 a8          	mov    -0x58(%rbp),%rdx
ffffffff8000a008:	48 89 82 c8 02 00 00 	mov    %rax,0x2c8(%rdx)
ffffffff8000a00f:	48 8b 45 a8          	mov    -0x58(%rbp),%rax
ffffffff8000a013:	48 8b 80 c8 02 00 00 	mov    0x2c8(%rax),%rax
ffffffff8000a01a:	48 85 c0             	test   %rax,%rax
ffffffff8000a01d:	0f 84 90 04 00 00    	je     ffffffff8000a4b3 <flanterm_fb_init+0x2230>
ffffffff8000a023:	48 8b 45 a8          	mov    -0x58(%rbp),%rax
ffffffff8000a027:	48 c7 80 d0 02 00 00 	movq   $0x0,0x2d0(%rax)
ffffffff8000a02e:	00 00 00 00 
ffffffff8000a032:	48 8b 45 a8          	mov    -0x58(%rbp),%rax
ffffffff8000a036:	48 8b 90 b0 02 00 00 	mov    0x2b0(%rax),%rdx
ffffffff8000a03d:	48 8b 45 a8          	mov    -0x58(%rbp),%rax
ffffffff8000a041:	48 8b 80 c8 02 00 00 	mov    0x2c8(%rax),%rax
ffffffff8000a048:	be 00 00 00 00       	mov    $0x0,%esi
ffffffff8000a04d:	48 89 c7             	mov    %rax,%rdi
ffffffff8000a050:	e8 5b 13 00 00       	call   ffffffff8000b3b0 <memset>
ffffffff8000a055:	48 8b 45 a0          	mov    -0x60(%rbp),%rax
ffffffff8000a059:	48 8b 90 e0 00 00 00 	mov    0xe0(%rax),%rdx
ffffffff8000a060:	48 8b 45 a0          	mov    -0x60(%rbp),%rax
ffffffff8000a064:	48 8b 80 e8 00 00 00 	mov    0xe8(%rax),%rax
ffffffff8000a06b:	48 0f af c2          	imul   %rdx,%rax
ffffffff8000a06f:	48 8d 14 c5 00 00 00 	lea    0x0(,%rax,8),%rdx
ffffffff8000a076:	00 
ffffffff8000a077:	48 8b 45 a8          	mov    -0x58(%rbp),%rax
ffffffff8000a07b:	48 89 90 b8 02 00 00 	mov    %rdx,0x2b8(%rax)
ffffffff8000a082:	48 8b 45 a8          	mov    -0x58(%rbp),%rax
ffffffff8000a086:	48 8b 80 b8 02 00 00 	mov    0x2b8(%rax),%rax
ffffffff8000a08d:	48 8b 95 68 fb ff ff 	mov    -0x498(%rbp),%rdx
ffffffff8000a094:	48 89 c7             	mov    %rax,%rdi
ffffffff8000a097:	ff d2                	call   *%rdx
ffffffff8000a099:	48 8b 55 a8          	mov    -0x58(%rbp),%rdx
ffffffff8000a09d:	48 89 82 d8 02 00 00 	mov    %rax,0x2d8(%rdx)
ffffffff8000a0a4:	48 8b 45 a8          	mov    -0x58(%rbp),%rax
ffffffff8000a0a8:	48 8b 80 d8 02 00 00 	mov    0x2d8(%rax),%rax
ffffffff8000a0af:	48 85 c0             	test   %rax,%rax
ffffffff8000a0b2:	0f 84 fe 03 00 00    	je     ffffffff8000a4b6 <flanterm_fb_init+0x2233>
ffffffff8000a0b8:	48 8b 45 a8          	mov    -0x58(%rbp),%rax
ffffffff8000a0bc:	48 8b 90 b8 02 00 00 	mov    0x2b8(%rax),%rdx
ffffffff8000a0c3:	48 8b 45 a8          	mov    -0x58(%rbp),%rax
ffffffff8000a0c7:	48 8b 80 d8 02 00 00 	mov    0x2d8(%rax),%rax
ffffffff8000a0ce:	be 00 00 00 00       	mov    $0x0,%esi
ffffffff8000a0d3:	48 89 c7             	mov    %rax,%rdi
ffffffff8000a0d6:	e8 d5 12 00 00       	call   ffffffff8000b3b0 <memset>
ffffffff8000a0db:	48 83 7d 40 00       	cmpq   $0x0,0x40(%rbp)
ffffffff8000a0e0:	0f 84 78 01 00 00    	je     ffffffff8000a25e <flanterm_fb_init+0x1fdb>
ffffffff8000a0e6:	48 8b 45 a8          	mov    -0x58(%rbp),%rax
ffffffff8000a0ea:	48 8b 90 08 02 00 00 	mov    0x208(%rax),%rdx
ffffffff8000a0f1:	48 8b 45 a8          	mov    -0x58(%rbp),%rax
ffffffff8000a0f5:	48 8b 80 10 02 00 00 	mov    0x210(%rax),%rax
ffffffff8000a0fc:	48 0f af c2          	imul   %rdx,%rax
ffffffff8000a100:	48 8d 14 85 00 00 00 	lea    0x0(,%rax,4),%rdx
ffffffff8000a107:	00 
ffffffff8000a108:	48 8b 45 a8          	mov    -0x58(%rbp),%rax
ffffffff8000a10c:	48 89 90 98 02 00 00 	mov    %rdx,0x298(%rax)
ffffffff8000a113:	48 8b 45 a8          	mov    -0x58(%rbp),%rax
ffffffff8000a117:	48 8b 80 98 02 00 00 	mov    0x298(%rax),%rax
ffffffff8000a11e:	48 8b 95 68 fb ff ff 	mov    -0x498(%rbp),%rdx
ffffffff8000a125:	48 89 c7             	mov    %rax,%rdi
ffffffff8000a128:	ff d2                	call   *%rdx
ffffffff8000a12a:	48 8b 55 a8          	mov    -0x58(%rbp),%rdx
ffffffff8000a12e:	48 89 82 a0 02 00 00 	mov    %rax,0x2a0(%rdx)
ffffffff8000a135:	48 8b 45 a8          	mov    -0x58(%rbp),%rax
ffffffff8000a139:	48 8b 80 a0 02 00 00 	mov    0x2a0(%rax),%rax
ffffffff8000a140:	48 85 c0             	test   %rax,%rax
ffffffff8000a143:	0f 84 70 03 00 00    	je     ffffffff8000a4b9 <flanterm_fb_init+0x2236>
ffffffff8000a149:	48 c7 45 c0 00 00 00 	movq   $0x0,-0x40(%rbp)
ffffffff8000a150:	00 
ffffffff8000a151:	e9 e4 00 00 00       	jmp    ffffffff8000a23a <flanterm_fb_init+0x1fb7>
ffffffff8000a156:	48 8b 45 c0          	mov    -0x40(%rbp),%rax
ffffffff8000a15a:	48 8d 14 85 00 00 00 	lea    0x0(,%rax,4),%rdx
ffffffff8000a161:	00 
ffffffff8000a162:	48 8b 45 40          	mov    0x40(%rbp),%rax
ffffffff8000a166:	48 01 d0             	add    %rdx,%rax
ffffffff8000a169:	8b 00                	mov    (%rax),%eax
ffffffff8000a16b:	48 8b 55 a8          	mov    -0x58(%rbp),%rdx
ffffffff8000a16f:	48 8b 92 a0 02 00 00 	mov    0x2a0(%rdx),%rdx
ffffffff8000a176:	48 8b 4d c0          	mov    -0x40(%rbp),%rcx
ffffffff8000a17a:	48 c1 e1 02          	shl    $0x2,%rcx
ffffffff8000a17e:	48 8d 34 0a          	lea    (%rdx,%rcx,1),%rsi
ffffffff8000a182:	48 8b 55 a0          	mov    -0x60(%rbp),%rdx
ffffffff8000a186:	48 89 95 98 fb ff ff 	mov    %rdx,-0x468(%rbp)
ffffffff8000a18d:	89 85 94 fb ff ff    	mov    %eax,-0x46c(%rbp)
ffffffff8000a193:	48 8b 85 98 fb ff ff 	mov    -0x468(%rbp),%rax
ffffffff8000a19a:	48 89 85 88 fb ff ff 	mov    %rax,-0x478(%rbp)
ffffffff8000a1a1:	8b 85 94 fb ff ff    	mov    -0x46c(%rbp),%eax
ffffffff8000a1a7:	c1 e8 10             	shr    $0x10,%eax
ffffffff8000a1aa:	25 ff 00 00 00       	and    $0xff,%eax
ffffffff8000a1af:	89 85 84 fb ff ff    	mov    %eax,-0x47c(%rbp)
ffffffff8000a1b5:	8b 85 94 fb ff ff    	mov    -0x46c(%rbp),%eax
ffffffff8000a1bb:	c1 e8 08             	shr    $0x8,%eax
ffffffff8000a1be:	25 ff 00 00 00       	and    $0xff,%eax
ffffffff8000a1c3:	89 85 80 fb ff ff    	mov    %eax,-0x480(%rbp)
ffffffff8000a1c9:	8b 85 94 fb ff ff    	mov    -0x46c(%rbp),%eax
ffffffff8000a1cf:	0f b6 c0             	movzbl %al,%eax
ffffffff8000a1d2:	89 85 7c fb ff ff    	mov    %eax,-0x484(%rbp)
ffffffff8000a1d8:	48 8b 85 88 fb ff ff 	mov    -0x478(%rbp),%rax
ffffffff8000a1df:	0f b6 80 21 02 00 00 	movzbl 0x221(%rax),%eax
ffffffff8000a1e6:	0f b6 c0             	movzbl %al,%eax
ffffffff8000a1e9:	8b 95 84 fb ff ff    	mov    -0x47c(%rbp),%edx
ffffffff8000a1ef:	89 d7                	mov    %edx,%edi
ffffffff8000a1f1:	89 c1                	mov    %eax,%ecx
ffffffff8000a1f3:	d3 e7                	shl    %cl,%edi
ffffffff8000a1f5:	48 8b 85 88 fb ff ff 	mov    -0x478(%rbp),%rax
ffffffff8000a1fc:	0f b6 80 23 02 00 00 	movzbl 0x223(%rax),%eax
ffffffff8000a203:	0f b6 c0             	movzbl %al,%eax
ffffffff8000a206:	8b 95 80 fb ff ff    	mov    -0x480(%rbp),%edx
ffffffff8000a20c:	89 c1                	mov    %eax,%ecx
ffffffff8000a20e:	d3 e2                	shl    %cl,%edx
ffffffff8000a210:	89 d0                	mov    %edx,%eax
ffffffff8000a212:	09 c7                	or     %eax,%edi
ffffffff8000a214:	48 8b 85 88 fb ff ff 	mov    -0x478(%rbp),%rax
ffffffff8000a21b:	0f b6 80 25 02 00 00 	movzbl 0x225(%rax),%eax
ffffffff8000a222:	0f b6 c0             	movzbl %al,%eax
ffffffff8000a225:	8b 95 7c fb ff ff    	mov    -0x484(%rbp),%edx
ffffffff8000a22b:	89 c1                	mov    %eax,%ecx
ffffffff8000a22d:	d3 e2                	shl    %cl,%edx
ffffffff8000a22f:	89 d0                	mov    %edx,%eax
ffffffff8000a231:	09 f8                	or     %edi,%eax
ffffffff8000a233:	89 06                	mov    %eax,(%rsi)
ffffffff8000a235:	48 83 45 c0 01       	addq   $0x1,-0x40(%rbp)
ffffffff8000a23a:	48 8b 45 a8          	mov    -0x58(%rbp),%rax
ffffffff8000a23e:	48 8b 90 08 02 00 00 	mov    0x208(%rax),%rdx
ffffffff8000a245:	48 8b 45 a8          	mov    -0x58(%rbp),%rax
ffffffff8000a249:	48 8b 80 10 02 00 00 	mov    0x210(%rax),%rax
ffffffff8000a250:	48 0f af c2          	imul   %rdx,%rax
ffffffff8000a254:	48 39 45 c0          	cmp    %rax,-0x40(%rbp)
ffffffff8000a258:	0f 82 f8 fe ff ff    	jb     ffffffff8000a156 <flanterm_fb_init+0x1ed3>
ffffffff8000a25e:	48 83 bd 98 00 00 00 	cmpq   $0x1,0x98(%rbp)
ffffffff8000a265:	01 
ffffffff8000a266:	75 39                	jne    ffffffff8000a2a1 <flanterm_fb_init+0x201e>
ffffffff8000a268:	48 83 bd a0 00 00 00 	cmpq   $0x1,0xa0(%rbp)
ffffffff8000a26f:	01 
ffffffff8000a270:	75 2f                	jne    ffffffff8000a2a1 <flanterm_fb_init+0x201e>
ffffffff8000a272:	48 83 7d 40 00       	cmpq   $0x0,0x40(%rbp)
ffffffff8000a277:	75 14                	jne    ffffffff8000a28d <flanterm_fb_init+0x200a>
ffffffff8000a279:	48 8b 45 a8          	mov    -0x58(%rbp),%rax
ffffffff8000a27d:	48 8d 15 2e cb ff ff 	lea    -0x34d2(%rip),%rdx        # ffffffff80006db2 <plot_char_unscaled_uncanvas>
ffffffff8000a284:	48 89 90 b0 01 00 00 	mov    %rdx,0x1b0(%rax)
ffffffff8000a28b:	eb 41                	jmp    ffffffff8000a2ce <flanterm_fb_init+0x204b>
ffffffff8000a28d:	48 8b 45 a8          	mov    -0x58(%rbp),%rax
ffffffff8000a291:	48 8d 15 e1 c8 ff ff 	lea    -0x371f(%rip),%rdx        # ffffffff80006b79 <plot_char_unscaled_canvas>
ffffffff8000a298:	48 89 90 b0 01 00 00 	mov    %rdx,0x1b0(%rax)
ffffffff8000a29f:	eb 2d                	jmp    ffffffff8000a2ce <flanterm_fb_init+0x204b>
ffffffff8000a2a1:	48 83 7d 40 00       	cmpq   $0x0,0x40(%rbp)
ffffffff8000a2a6:	75 14                	jne    ffffffff8000a2bc <flanterm_fb_init+0x2039>
ffffffff8000a2a8:	48 8b 45 a8          	mov    -0x58(%rbp),%rax
ffffffff8000a2ac:	48 8d 15 89 c6 ff ff 	lea    -0x3977(%rip),%rdx        # ffffffff8000693c <plot_char_scaled_uncanvas>
ffffffff8000a2b3:	48 89 90 b0 01 00 00 	mov    %rdx,0x1b0(%rax)
ffffffff8000a2ba:	eb 12                	jmp    ffffffff8000a2ce <flanterm_fb_init+0x204b>
ffffffff8000a2bc:	48 8b 45 a8          	mov    -0x58(%rbp),%rax
ffffffff8000a2c0:	48 8d 15 e0 c3 ff ff 	lea    -0x3c20(%rip),%rdx        # ffffffff800066a7 <plot_char_scaled_canvas>
ffffffff8000a2c7:	48 89 90 b0 01 00 00 	mov    %rdx,0x1b0(%rax)
ffffffff8000a2ce:	48 8b 45 a0          	mov    -0x60(%rbp),%rax
ffffffff8000a2d2:	48 8d 15 3e db ff ff 	lea    -0x24c2(%rip),%rdx        # ffffffff80007e17 <flanterm_fb_raw_putchar>
ffffffff8000a2d9:	48 89 90 f0 00 00 00 	mov    %rdx,0xf0(%rax)
ffffffff8000a2e0:	48 8b 45 a0          	mov    -0x60(%rbp),%rax
ffffffff8000a2e4:	48 8d 15 52 d1 ff ff 	lea    -0x2eae(%rip),%rdx        # ffffffff8000743d <flanterm_fb_clear>
ffffffff8000a2eb:	48 89 90 f8 00 00 00 	mov    %rdx,0xf8(%rax)
ffffffff8000a2f2:	48 8b 45 a0          	mov    -0x60(%rbp),%rax
ffffffff8000a2f6:	48 8d 15 14 d2 ff ff 	lea    -0x2dec(%rip),%rdx        # ffffffff80007511 <flanterm_fb_set_cursor_pos>
ffffffff8000a2fd:	48 89 90 00 01 00 00 	mov    %rdx,0x100(%rax)
ffffffff8000a304:	48 8b 45 a0          	mov    -0x60(%rbp),%rax
ffffffff8000a308:	48 8d 15 ab d2 ff ff 	lea    -0x2d55(%rip),%rdx        # ffffffff800075ba <flanterm_fb_get_cursor_pos>
ffffffff8000a30f:	48 89 90 08 01 00 00 	mov    %rdx,0x108(%rax)
ffffffff8000a316:	48 8b 45 a0          	mov    -0x60(%rbp),%rax
ffffffff8000a31a:	48 8d 15 3c d4 ff ff 	lea    -0x2bc4(%rip),%rdx        # ffffffff8000775d <flanterm_fb_set_text_fg>
ffffffff8000a321:	48 89 90 10 01 00 00 	mov    %rdx,0x110(%rax)
ffffffff8000a328:	48 8b 45 a0          	mov    -0x60(%rbp),%rax
ffffffff8000a32c:	48 8d 15 62 d4 ff ff 	lea    -0x2b9e(%rip),%rdx        # ffffffff80007795 <flanterm_fb_set_text_bg>
ffffffff8000a333:	48 89 90 18 01 00 00 	mov    %rdx,0x118(%rax)
ffffffff8000a33a:	48 8b 45 a0          	mov    -0x60(%rbp),%rax
ffffffff8000a33e:	48 8d 15 88 d4 ff ff 	lea    -0x2b78(%rip),%rdx        # ffffffff800077cd <flanterm_fb_set_text_fg_bright>
ffffffff8000a345:	48 89 90 20 01 00 00 	mov    %rdx,0x120(%rax)
ffffffff8000a34c:	48 8b 45 a0          	mov    -0x60(%rbp),%rax
ffffffff8000a350:	48 8d 15 ae d4 ff ff 	lea    -0x2b52(%rip),%rdx        # ffffffff80007805 <flanterm_fb_set_text_bg_bright>
ffffffff8000a357:	48 89 90 28 01 00 00 	mov    %rdx,0x128(%rax)
ffffffff8000a35e:	48 8b 45 a0          	mov    -0x60(%rbp),%rax
ffffffff8000a362:	48 8d 15 d4 d4 ff ff 	lea    -0x2b2c(%rip),%rdx        # ffffffff8000783d <flanterm_fb_set_text_fg_rgb>
ffffffff8000a369:	48 89 90 30 01 00 00 	mov    %rdx,0x130(%rax)
ffffffff8000a370:	48 8b 45 a0          	mov    -0x60(%rbp),%rax
ffffffff8000a374:	48 8d 15 6c d5 ff ff 	lea    -0x2a94(%rip),%rdx        # ffffffff800078e7 <flanterm_fb_set_text_bg_rgb>
ffffffff8000a37b:	48 89 90 38 01 00 00 	mov    %rdx,0x138(%rax)
ffffffff8000a382:	48 8b 45 a0          	mov    -0x60(%rbp),%rax
ffffffff8000a386:	48 8d 15 04 d6 ff ff 	lea    -0x29fc(%rip),%rdx        # ffffffff80007991 <flanterm_fb_set_text_fg_default>
ffffffff8000a38d:	48 89 90 40 01 00 00 	mov    %rdx,0x140(%rax)
ffffffff8000a394:	48 8b 45 a0          	mov    -0x60(%rbp),%rax
ffffffff8000a398:	48 8d 15 1d d6 ff ff 	lea    -0x29e3(%rip),%rdx        # ffffffff800079bc <flanterm_fb_set_text_bg_default>
ffffffff8000a39f:	48 89 90 48 01 00 00 	mov    %rdx,0x148(%rax)
ffffffff8000a3a6:	48 8b 45 a0          	mov    -0x60(%rbp),%rax
ffffffff8000a3aa:	48 8d 15 30 d6 ff ff 	lea    -0x29d0(%rip),%rdx        # ffffffff800079e1 <flanterm_fb_set_text_fg_default_bright>
ffffffff8000a3b1:	48 89 90 50 01 00 00 	mov    %rdx,0x150(%rax)
ffffffff8000a3b8:	48 8b 45 a0          	mov    -0x60(%rbp),%rax
ffffffff8000a3bc:	48 8d 15 49 d6 ff ff 	lea    -0x29b7(%rip),%rdx        # ffffffff80007a0c <flanterm_fb_set_text_bg_default_bright>
ffffffff8000a3c3:	48 89 90 58 01 00 00 	mov    %rdx,0x158(%rax)
ffffffff8000a3ca:	48 8b 45 a0          	mov    -0x60(%rbp),%rax
ffffffff8000a3ce:	48 8d 15 80 d2 ff ff 	lea    -0x2d80(%rip),%rdx        # ffffffff80007655 <flanterm_fb_move_character>
ffffffff8000a3d5:	48 89 90 60 01 00 00 	mov    %rdx,0x160(%rax)
ffffffff8000a3dc:	48 8b 45 a0          	mov    -0x60(%rbp),%rax
ffffffff8000a3e0:	48 8d 15 d5 ce ff ff 	lea    -0x312b(%rip),%rdx        # ffffffff800072bc <flanterm_fb_scroll>
ffffffff8000a3e7:	48 89 90 68 01 00 00 	mov    %rdx,0x168(%rax)
ffffffff8000a3ee:	48 8b 45 a0          	mov    -0x60(%rbp),%rax
ffffffff8000a3f2:	48 8d 15 36 cd ff ff 	lea    -0x32ca(%rip),%rdx        # ffffffff8000712f <flanterm_fb_revscroll>
ffffffff8000a3f9:	48 89 90 70 01 00 00 	mov    %rdx,0x170(%rax)
ffffffff8000a400:	48 8b 45 a0          	mov    -0x60(%rbp),%rax
ffffffff8000a404:	48 8d 15 57 c2 ff ff 	lea    -0x3da9(%rip),%rdx        # ffffffff80006662 <flanterm_fb_swap_palette>
ffffffff8000a40b:	48 89 90 78 01 00 00 	mov    %rdx,0x178(%rax)
ffffffff8000a412:	48 8b 45 a0          	mov    -0x60(%rbp),%rax
ffffffff8000a416:	48 8d 15 6f c1 ff ff 	lea    -0x3e91(%rip),%rdx        # ffffffff8000658c <flanterm_fb_save_state>
ffffffff8000a41d:	48 89 90 80 01 00 00 	mov    %rdx,0x180(%rax)
ffffffff8000a424:	48 8b 45 a0          	mov    -0x60(%rbp),%rax
ffffffff8000a428:	48 8d 15 c8 c1 ff ff 	lea    -0x3e38(%rip),%rdx        # ffffffff800065f7 <flanterm_fb_restore_state>
ffffffff8000a42f:	48 89 90 88 01 00 00 	mov    %rdx,0x188(%rax)
ffffffff8000a436:	48 8b 45 a0          	mov    -0x60(%rbp),%rax
ffffffff8000a43a:	48 8d 15 73 d7 ff ff 	lea    -0x288d(%rip),%rdx        # ffffffff80007bb4 <flanterm_fb_double_buffer_flush>
ffffffff8000a441:	48 89 90 90 01 00 00 	mov    %rdx,0x190(%rax)
ffffffff8000a448:	48 8b 45 a0          	mov    -0x60(%rbp),%rax
ffffffff8000a44c:	48 8d 15 20 db ff ff 	lea    -0x24e0(%rip),%rdx        # ffffffff80007f73 <flanterm_fb_full_refresh>
ffffffff8000a453:	48 89 90 98 01 00 00 	mov    %rdx,0x198(%rax)
ffffffff8000a45a:	48 8b 45 a0          	mov    -0x60(%rbp),%rax
ffffffff8000a45e:	48 8d 15 e6 dc ff ff 	lea    -0x231a(%rip),%rdx        # ffffffff8000814b <flanterm_fb_deinit>
ffffffff8000a465:	48 89 90 a0 01 00 00 	mov    %rdx,0x1a0(%rax)
ffffffff8000a46c:	48 8b 45 a0          	mov    -0x60(%rbp),%rax
ffffffff8000a470:	48 89 c7             	mov    %rax,%rdi
ffffffff8000a473:	e8 be 71 ff ff       	call   ffffffff80001636 <flanterm_context_reinit>
ffffffff8000a478:	48 8b 45 a0          	mov    -0x60(%rbp),%rax
ffffffff8000a47c:	48 89 c7             	mov    %rax,%rdi
ffffffff8000a47f:	e8 ef da ff ff       	call   ffffffff80007f73 <flanterm_fb_full_refresh>
ffffffff8000a484:	48 8d 05 4f c0 ff ff 	lea    -0x3fb1(%rip),%rax        # ffffffff800064da <bump_alloc>
ffffffff8000a48b:	48 39 85 68 fb ff ff 	cmp    %rax,-0x498(%rbp)
ffffffff8000a492:	75 07                	jne    ffffffff8000a49b <flanterm_fb_init+0x2218>
ffffffff8000a494:	c6 05 55 9e 0d 00 01 	movb   $0x1,0xd9e55(%rip)        # ffffffff800e42f0 <bump_allocated_instance>
ffffffff8000a49b:	48 8b 45 a0          	mov    -0x60(%rbp),%rax
ffffffff8000a49f:	e9 bf 01 00 00       	jmp    ffffffff8000a663 <flanterm_fb_init+0x23e0>
ffffffff8000a4a4:	90                   	nop
ffffffff8000a4a5:	eb 13                	jmp    ffffffff8000a4ba <flanterm_fb_init+0x2237>
ffffffff8000a4a7:	90                   	nop
ffffffff8000a4a8:	eb 10                	jmp    ffffffff8000a4ba <flanterm_fb_init+0x2237>
ffffffff8000a4aa:	90                   	nop
ffffffff8000a4ab:	eb 0d                	jmp    ffffffff8000a4ba <flanterm_fb_init+0x2237>
ffffffff8000a4ad:	90                   	nop
ffffffff8000a4ae:	eb 0a                	jmp    ffffffff8000a4ba <flanterm_fb_init+0x2237>
ffffffff8000a4b0:	90                   	nop
ffffffff8000a4b1:	eb 07                	jmp    ffffffff8000a4ba <flanterm_fb_init+0x2237>
ffffffff8000a4b3:	90                   	nop
ffffffff8000a4b4:	eb 04                	jmp    ffffffff8000a4ba <flanterm_fb_init+0x2237>
ffffffff8000a4b6:	90                   	nop
ffffffff8000a4b7:	eb 01                	jmp    ffffffff8000a4ba <flanterm_fb_init+0x2237>
ffffffff8000a4b9:	90                   	nop
ffffffff8000a4ba:	48 83 7d a8 00       	cmpq   $0x0,-0x58(%rbp)
ffffffff8000a4bf:	75 0a                	jne    ffffffff8000a4cb <flanterm_fb_init+0x2248>
ffffffff8000a4c1:	b8 00 00 00 00       	mov    $0x0,%eax
ffffffff8000a4c6:	e9 98 01 00 00       	jmp    ffffffff8000a663 <flanterm_fb_init+0x23e0>
ffffffff8000a4cb:	48 8d 05 08 c0 ff ff 	lea    -0x3ff8(%rip),%rax        # ffffffff800064da <bump_alloc>
ffffffff8000a4d2:	48 39 85 68 fb ff ff 	cmp    %rax,-0x498(%rbp)
ffffffff8000a4d9:	75 15                	jne    ffffffff8000a4f0 <flanterm_fb_init+0x226d>
ffffffff8000a4db:	48 c7 05 02 9e 0d 00 	movq   $0x0,0xd9e02(%rip)        # ffffffff800e42e8 <bump_alloc_ptr>
ffffffff8000a4e2:	00 00 00 00 
ffffffff8000a4e6:	b8 00 00 00 00       	mov    $0x0,%eax
ffffffff8000a4eb:	e9 73 01 00 00       	jmp    ffffffff8000a663 <flanterm_fb_init+0x23e0>
ffffffff8000a4f0:	48 83 bd 60 fb ff ff 	cmpq   $0x0,-0x4a0(%rbp)
ffffffff8000a4f7:	00 
ffffffff8000a4f8:	75 0a                	jne    ffffffff8000a504 <flanterm_fb_init+0x2281>
ffffffff8000a4fa:	b8 00 00 00 00       	mov    $0x0,%eax
ffffffff8000a4ff:	e9 5f 01 00 00       	jmp    ffffffff8000a663 <flanterm_fb_init+0x23e0>
ffffffff8000a504:	48 8b 45 a8          	mov    -0x58(%rbp),%rax
ffffffff8000a508:	48 8b 80 a0 02 00 00 	mov    0x2a0(%rax),%rax
ffffffff8000a50f:	48 85 c0             	test   %rax,%rax
ffffffff8000a512:	74 25                	je     ffffffff8000a539 <flanterm_fb_init+0x22b6>
ffffffff8000a514:	48 8b 45 a8          	mov    -0x58(%rbp),%rax
ffffffff8000a518:	48 8b 90 98 02 00 00 	mov    0x298(%rax),%rdx
ffffffff8000a51f:	48 8b 45 a8          	mov    -0x58(%rbp),%rax
ffffffff8000a523:	48 8b 80 a0 02 00 00 	mov    0x2a0(%rax),%rax
ffffffff8000a52a:	48 8b 8d 60 fb ff ff 	mov    -0x4a0(%rbp),%rcx
ffffffff8000a531:	48 89 d6             	mov    %rdx,%rsi
ffffffff8000a534:	48 89 c7             	mov    %rax,%rdi
ffffffff8000a537:	ff d1                	call   *%rcx
ffffffff8000a539:	48 8b 45 a8          	mov    -0x58(%rbp),%rax
ffffffff8000a53d:	48 8b 80 d8 02 00 00 	mov    0x2d8(%rax),%rax
ffffffff8000a544:	48 85 c0             	test   %rax,%rax
ffffffff8000a547:	74 25                	je     ffffffff8000a56e <flanterm_fb_init+0x22eb>
ffffffff8000a549:	48 8b 45 a8          	mov    -0x58(%rbp),%rax
ffffffff8000a54d:	48 8b 90 b8 02 00 00 	mov    0x2b8(%rax),%rdx
ffffffff8000a554:	48 8b 45 a8          	mov    -0x58(%rbp),%rax
ffffffff8000a558:	48 8b 80 d8 02 00 00 	mov    0x2d8(%rax),%rax
ffffffff8000a55f:	48 8b 8d 60 fb ff ff 	mov    -0x4a0(%rbp),%rcx
ffffffff8000a566:	48 89 d6             	mov    %rdx,%rsi
ffffffff8000a569:	48 89 c7             	mov    %rax,%rdi
ffffffff8000a56c:	ff d1                	call   *%rcx
ffffffff8000a56e:	48 8b 45 a8          	mov    -0x58(%rbp),%rax
ffffffff8000a572:	48 8b 80 c8 02 00 00 	mov    0x2c8(%rax),%rax
ffffffff8000a579:	48 85 c0             	test   %rax,%rax
ffffffff8000a57c:	74 25                	je     ffffffff8000a5a3 <flanterm_fb_init+0x2320>
ffffffff8000a57e:	48 8b 45 a8          	mov    -0x58(%rbp),%rax
ffffffff8000a582:	48 8b 90 b0 02 00 00 	mov    0x2b0(%rax),%rdx
ffffffff8000a589:	48 8b 45 a8          	mov    -0x58(%rbp),%rax
ffffffff8000a58d:	48 8b 80 c8 02 00 00 	mov    0x2c8(%rax),%rax
ffffffff8000a594:	48 8b 8d 60 fb ff ff 	mov    -0x4a0(%rbp),%rcx
ffffffff8000a59b:	48 89 d6             	mov    %rdx,%rsi
ffffffff8000a59e:	48 89 c7             	mov    %rax,%rdi
ffffffff8000a5a1:	ff d1                	call   *%rcx
ffffffff8000a5a3:	48 8b 45 a8          	mov    -0x58(%rbp),%rax
ffffffff8000a5a7:	48 8b 80 c0 02 00 00 	mov    0x2c0(%rax),%rax
ffffffff8000a5ae:	48 85 c0             	test   %rax,%rax
ffffffff8000a5b1:	74 25                	je     ffffffff8000a5d8 <flanterm_fb_init+0x2355>
ffffffff8000a5b3:	48 8b 45 a8          	mov    -0x58(%rbp),%rax
ffffffff8000a5b7:	48 8b 90 a8 02 00 00 	mov    0x2a8(%rax),%rdx
ffffffff8000a5be:	48 8b 45 a8          	mov    -0x58(%rbp),%rax
ffffffff8000a5c2:	48 8b 80 c0 02 00 00 	mov    0x2c0(%rax),%rax
ffffffff8000a5c9:	48 8b 8d 60 fb ff ff 	mov    -0x4a0(%rbp),%rcx
ffffffff8000a5d0:	48 89 d6             	mov    %rdx,%rsi
ffffffff8000a5d3:	48 89 c7             	mov    %rax,%rdi
ffffffff8000a5d6:	ff d1                	call   *%rcx
ffffffff8000a5d8:	48 8b 45 a8          	mov    -0x58(%rbp),%rax
ffffffff8000a5dc:	48 8b 80 40 02 00 00 	mov    0x240(%rax),%rax
ffffffff8000a5e3:	48 85 c0             	test   %rax,%rax
ffffffff8000a5e6:	74 25                	je     ffffffff8000a60d <flanterm_fb_init+0x238a>
ffffffff8000a5e8:	48 8b 45 a8          	mov    -0x58(%rbp),%rax
ffffffff8000a5ec:	48 8b 90 38 02 00 00 	mov    0x238(%rax),%rdx
ffffffff8000a5f3:	48 8b 45 a8          	mov    -0x58(%rbp),%rax
ffffffff8000a5f7:	48 8b 80 40 02 00 00 	mov    0x240(%rax),%rax
ffffffff8000a5fe:	48 8b 8d 60 fb ff ff 	mov    -0x4a0(%rbp),%rcx
ffffffff8000a605:	48 89 d6             	mov    %rdx,%rsi
ffffffff8000a608:	48 89 c7             	mov    %rax,%rdi
ffffffff8000a60b:	ff d1                	call   *%rcx
ffffffff8000a60d:	48 8b 45 a8          	mov    -0x58(%rbp),%rax
ffffffff8000a611:	48 8b 80 30 02 00 00 	mov    0x230(%rax),%rax
ffffffff8000a618:	48 85 c0             	test   %rax,%rax
ffffffff8000a61b:	74 25                	je     ffffffff8000a642 <flanterm_fb_init+0x23bf>
ffffffff8000a61d:	48 8b 45 a8          	mov    -0x58(%rbp),%rax
ffffffff8000a621:	48 8b 90 28 02 00 00 	mov    0x228(%rax),%rdx
ffffffff8000a628:	48 8b 45 a8          	mov    -0x58(%rbp),%rax
ffffffff8000a62c:	48 8b 80 30 02 00 00 	mov    0x230(%rax),%rax
ffffffff8000a633:	48 8b 8d 60 fb ff ff 	mov    -0x4a0(%rbp),%rcx
ffffffff8000a63a:	48 89 d6             	mov    %rdx,%rsi
ffffffff8000a63d:	48 89 c7             	mov    %rax,%rdi
ffffffff8000a640:	ff d1                	call   *%rcx
ffffffff8000a642:	48 83 7d a8 00       	cmpq   $0x0,-0x58(%rbp)
ffffffff8000a647:	74 15                	je     ffffffff8000a65e <flanterm_fb_init+0x23db>
ffffffff8000a649:	48 8b 45 a8          	mov    -0x58(%rbp),%rax
ffffffff8000a64d:	48 8b 95 60 fb ff ff 	mov    -0x4a0(%rbp),%rdx
ffffffff8000a654:	be 20 03 00 00       	mov    $0x320,%esi
ffffffff8000a659:	48 89 c7             	mov    %rax,%rdi
ffffffff8000a65c:	ff d2                	call   *%rdx
ffffffff8000a65e:	b8 00 00 00 00       	mov    $0x0,%eax
ffffffff8000a663:	c9                   	leave
ffffffff8000a664:	c3                   	ret
ffffffff8000a665:	cc                   	int3
ffffffff8000a666:	cc                   	int3
ffffffff8000a667:	cc                   	int3
ffffffff8000a668:	cc                   	int3
ffffffff8000a669:	cc                   	int3
ffffffff8000a66a:	cc                   	int3
ffffffff8000a66b:	cc                   	int3
ffffffff8000a66c:	cc                   	int3
ffffffff8000a66d:	cc                   	int3
ffffffff8000a66e:	cc                   	int3
ffffffff8000a66f:	cc                   	int3

ffffffff8000a670 <_RNvMsa_NtCsksYxuqllC4c_4core3fmtNtB5_9Formatter12pad_integral>:
ffffffff8000a670:	55                   	push   %rbp
ffffffff8000a671:	48 89 e5             	mov    %rsp,%rbp
ffffffff8000a674:	41 57                	push   %r15
ffffffff8000a676:	41 56                	push   %r14
ffffffff8000a678:	41 55                	push   %r13
ffffffff8000a67a:	41 54                	push   %r12
ffffffff8000a67c:	53                   	push   %rbx
ffffffff8000a67d:	48 83 ec 48          	sub    $0x48,%rsp
ffffffff8000a681:	4c 89 45 b8          	mov    %r8,-0x48(%rbp)
ffffffff8000a685:	49 89 d6             	mov    %rdx,%r14
ffffffff8000a688:	49 89 fc             	mov    %rdi,%r12
ffffffff8000a68b:	85 f6                	test   %esi,%esi
ffffffff8000a68d:	74 5e                	je     ffffffff8000a6ed <_RNvMsa_NtCsksYxuqllC4c_4core3fmtNtB5_9Formatter12pad_integral+0x7d>
ffffffff8000a68f:	45 8b 7c 24 10       	mov    0x10(%r12),%r15d
ffffffff8000a694:	44 89 fa             	mov    %r15d,%edx
ffffffff8000a697:	81 e2 00 00 20 00    	and    $0x200000,%edx
ffffffff8000a69d:	b8 00 00 11 00       	mov    $0x110000,%eax
ffffffff8000a6a2:	be 2b 00 00 00       	mov    $0x2b,%esi
ffffffff8000a6a7:	0f 44 f0             	cmove  %eax,%esi
ffffffff8000a6aa:	89 75 d4             	mov    %esi,-0x2c(%rbp)
ffffffff8000a6ad:	c1 ea 15             	shr    $0x15,%edx
ffffffff8000a6b0:	4c 01 ca             	add    %r9,%rdx
ffffffff8000a6b3:	41 f7 c7 00 00 80 00 	test   $0x800000,%r15d
ffffffff8000a6ba:	74 4a                	je     ffffffff8000a706 <_RNvMsa_NtCsksYxuqllC4c_4core3fmtNtB5_9Formatter12pad_integral+0x96>
ffffffff8000a6bc:	48 89 55 c8          	mov    %rdx,-0x38(%rbp)
ffffffff8000a6c0:	48 83 f9 20          	cmp    $0x20,%rcx
ffffffff8000a6c4:	0f 83 97 00 00 00    	jae    ffffffff8000a761 <_RNvMsa_NtCsksYxuqllC4c_4core3fmtNtB5_9Formatter12pad_integral+0xf1>
ffffffff8000a6ca:	48 85 c9             	test   %rcx,%rcx
ffffffff8000a6cd:	0f 84 ab 00 00 00    	je     ffffffff8000a77e <_RNvMsa_NtCsksYxuqllC4c_4core3fmtNtB5_9Formatter12pad_integral+0x10e>
ffffffff8000a6d3:	41 89 ca             	mov    %ecx,%r10d
ffffffff8000a6d6:	41 83 e2 03          	and    $0x3,%r10d
ffffffff8000a6da:	48 83 f9 04          	cmp    $0x4,%rcx
ffffffff8000a6de:	0f 83 9e 00 00 00    	jae    ffffffff8000a782 <_RNvMsa_NtCsksYxuqllC4c_4core3fmtNtB5_9Formatter12pad_integral+0x112>
ffffffff8000a6e4:	31 d2                	xor    %edx,%edx
ffffffff8000a6e6:	31 c0                	xor    %eax,%eax
ffffffff8000a6e8:	e9 e6 00 00 00       	jmp    ffffffff8000a7d3 <_RNvMsa_NtCsksYxuqllC4c_4core3fmtNtB5_9Formatter12pad_integral+0x163>
ffffffff8000a6ed:	49 8d 51 01          	lea    0x1(%r9),%rdx
ffffffff8000a6f1:	45 8b 7c 24 10       	mov    0x10(%r12),%r15d
ffffffff8000a6f6:	c7 45 d4 2d 00 00 00 	movl   $0x2d,-0x2c(%rbp)
ffffffff8000a6fd:	41 f7 c7 00 00 80 00 	test   $0x800000,%r15d
ffffffff8000a704:	75 b6                	jne    ffffffff8000a6bc <_RNvMsa_NtCsksYxuqllC4c_4core3fmtNtB5_9Formatter12pad_integral+0x4c>
ffffffff8000a706:	45 31 f6             	xor    %r14d,%r14d
ffffffff8000a709:	45 0f b7 6c 24 14    	movzwl 0x14(%r12),%r13d
ffffffff8000a70f:	4c 39 ea             	cmp    %r13,%rdx
ffffffff8000a712:	0f 82 f3 00 00 00    	jb     ffffffff8000a80b <_RNvMsa_NtCsksYxuqllC4c_4core3fmtNtB5_9Formatter12pad_integral+0x19b>
ffffffff8000a718:	4d 89 cd             	mov    %r9,%r13
ffffffff8000a71b:	49 89 c8             	mov    %rcx,%r8
ffffffff8000a71e:	49 8b 1c 24          	mov    (%r12),%rbx
ffffffff8000a722:	4d 8b 7c 24 08       	mov    0x8(%r12),%r15
ffffffff8000a727:	48 89 df             	mov    %rbx,%rdi
ffffffff8000a72a:	4c 89 fe             	mov    %r15,%rsi
ffffffff8000a72d:	8b 55 d4             	mov    -0x2c(%rbp),%edx
ffffffff8000a730:	4c 89 f1             	mov    %r14,%rcx
ffffffff8000a733:	e8 e8 0a 00 00       	call   ffffffff8000b220 <_RNvNvMsa_NtCsksYxuqllC4c_4core3fmtNtB7_9Formatter12pad_integral12write_prefix>
ffffffff8000a738:	41 b6 01             	mov    $0x1,%r14b
ffffffff8000a73b:	84 c0                	test   %al,%al
ffffffff8000a73d:	0f 85 58 02 00 00    	jne    ffffffff8000a99b <_RNvMsa_NtCsksYxuqllC4c_4core3fmtNtB5_9Formatter12pad_integral+0x32b>
ffffffff8000a743:	49 8b 47 18          	mov    0x18(%r15),%rax
ffffffff8000a747:	48 89 df             	mov    %rbx,%rdi
ffffffff8000a74a:	48 8b 75 b8          	mov    -0x48(%rbp),%rsi
ffffffff8000a74e:	4c 89 ea             	mov    %r13,%rdx
ffffffff8000a751:	48 83 c4 48          	add    $0x48,%rsp
ffffffff8000a755:	5b                   	pop    %rbx
ffffffff8000a756:	41 5c                	pop    %r12
ffffffff8000a758:	41 5d                	pop    %r13
ffffffff8000a75a:	41 5e                	pop    %r14
ffffffff8000a75c:	41 5f                	pop    %r15
ffffffff8000a75e:	5d                   	pop    %rbp
ffffffff8000a75f:	ff e0                	jmp    *%rax
ffffffff8000a761:	4c 89 f7             	mov    %r14,%rdi
ffffffff8000a764:	48 89 ce             	mov    %rcx,%rsi
ffffffff8000a767:	49 89 cd             	mov    %rcx,%r13
ffffffff8000a76a:	4c 89 cb             	mov    %r9,%rbx
ffffffff8000a76d:	ff 15 bd 9b 0d 00    	call   *0xd9bbd(%rip)        # ffffffff800e4330 <base_offset_added.0+0x3f>
ffffffff8000a773:	49 89 d9             	mov    %rbx,%r9
ffffffff8000a776:	4c 89 e9             	mov    %r13,%rcx
ffffffff8000a779:	e9 77 00 00 00       	jmp    ffffffff8000a7f5 <_RNvMsa_NtCsksYxuqllC4c_4core3fmtNtB5_9Formatter12pad_integral+0x185>
ffffffff8000a77e:	31 c0                	xor    %eax,%eax
ffffffff8000a780:	eb 73                	jmp    ffffffff8000a7f5 <_RNvMsa_NtCsksYxuqllC4c_4core3fmtNtB5_9Formatter12pad_integral+0x185>
ffffffff8000a782:	89 ce                	mov    %ecx,%esi
ffffffff8000a784:	83 e6 1c             	and    $0x1c,%esi
ffffffff8000a787:	31 d2                	xor    %edx,%edx
ffffffff8000a789:	31 c0                	xor    %eax,%eax
ffffffff8000a78b:	0f 1f 44 00 00       	nopl   0x0(%rax,%rax,1)
ffffffff8000a790:	31 ff                	xor    %edi,%edi
ffffffff8000a792:	41 80 3c 16 c0       	cmpb   $0xc0,(%r14,%rdx,1)
ffffffff8000a797:	40 0f 9d c7          	setge  %dil
ffffffff8000a79b:	48 01 c7             	add    %rax,%rdi
ffffffff8000a79e:	31 c0                	xor    %eax,%eax
ffffffff8000a7a0:	41 80 7c 16 01 c0    	cmpb   $0xc0,0x1(%r14,%rdx,1)
ffffffff8000a7a6:	0f 9d c0             	setge  %al
ffffffff8000a7a9:	45 31 c0             	xor    %r8d,%r8d
ffffffff8000a7ac:	41 80 7c 16 02 c0    	cmpb   $0xc0,0x2(%r14,%rdx,1)
ffffffff8000a7b2:	41 0f 9d c0          	setge  %r8b
ffffffff8000a7b6:	49 01 c0             	add    %rax,%r8
ffffffff8000a7b9:	49 01 f8             	add    %rdi,%r8
ffffffff8000a7bc:	31 c0                	xor    %eax,%eax
ffffffff8000a7be:	41 80 7c 16 03 c0    	cmpb   $0xc0,0x3(%r14,%rdx,1)
ffffffff8000a7c4:	0f 9d c0             	setge  %al
ffffffff8000a7c7:	4c 01 c0             	add    %r8,%rax
ffffffff8000a7ca:	48 83 c2 04          	add    $0x4,%rdx
ffffffff8000a7ce:	48 39 d6             	cmp    %rdx,%rsi
ffffffff8000a7d1:	75 bd                	jne    ffffffff8000a790 <_RNvMsa_NtCsksYxuqllC4c_4core3fmtNtB5_9Formatter12pad_integral+0x120>
ffffffff8000a7d3:	4d 85 d2             	test   %r10,%r10
ffffffff8000a7d6:	74 1d                	je     ffffffff8000a7f5 <_RNvMsa_NtCsksYxuqllC4c_4core3fmtNtB5_9Formatter12pad_integral+0x185>
ffffffff8000a7d8:	4c 01 f2             	add    %r14,%rdx
ffffffff8000a7db:	31 f6                	xor    %esi,%esi
ffffffff8000a7dd:	0f 1f 00             	nopl   (%rax)
ffffffff8000a7e0:	31 ff                	xor    %edi,%edi
ffffffff8000a7e2:	80 3c 32 c0          	cmpb   $0xc0,(%rdx,%rsi,1)
ffffffff8000a7e6:	40 0f 9d c7          	setge  %dil
ffffffff8000a7ea:	48 01 f8             	add    %rdi,%rax
ffffffff8000a7ed:	48 ff c6             	inc    %rsi
ffffffff8000a7f0:	49 39 f2             	cmp    %rsi,%r10
ffffffff8000a7f3:	75 eb                	jne    ffffffff8000a7e0 <_RNvMsa_NtCsksYxuqllC4c_4core3fmtNtB5_9Formatter12pad_integral+0x170>
ffffffff8000a7f5:	48 8b 55 c8          	mov    -0x38(%rbp),%rdx
ffffffff8000a7f9:	48 01 c2             	add    %rax,%rdx
ffffffff8000a7fc:	45 0f b7 6c 24 14    	movzwl 0x14(%r12),%r13d
ffffffff8000a802:	4c 39 ea             	cmp    %r13,%rdx
ffffffff8000a805:	0f 83 0d ff ff ff    	jae    ffffffff8000a718 <_RNvMsa_NtCsksYxuqllC4c_4core3fmtNtB5_9Formatter12pad_integral+0xa8>
ffffffff8000a80b:	41 f7 c7 00 00 00 01 	test   $0x1000000,%r15d
ffffffff8000a812:	4c 89 4d b0          	mov    %r9,-0x50(%rbp)
ffffffff8000a816:	48 89 55 c8          	mov    %rdx,-0x38(%rbp)
ffffffff8000a81a:	75 2c                	jne    ffffffff8000a848 <_RNvMsa_NtCsksYxuqllC4c_4core3fmtNtB5_9Formatter12pad_integral+0x1d8>
ffffffff8000a81c:	44 89 ee             	mov    %r13d,%esi
ffffffff8000a81f:	29 d6                	sub    %edx,%esi
ffffffff8000a821:	44 89 f8             	mov    %r15d,%eax
ffffffff8000a824:	c1 e8 1d             	shr    $0x1d,%eax
ffffffff8000a827:	83 e0 03             	and    $0x3,%eax
ffffffff8000a82a:	48 8d 15 0f 3a 00 00 	lea    0x3a0f(%rip),%rdx        # ffffffff8000e240 <builtin_font+0x1000>
ffffffff8000a831:	48 63 04 82          	movslq (%rdx,%rax,4),%rax
ffffffff8000a835:	48 01 d0             	add    %rdx,%rax
ffffffff8000a838:	48 89 4d 98          	mov    %rcx,-0x68(%rbp)
ffffffff8000a83c:	89 75 d0             	mov    %esi,-0x30(%rbp)
ffffffff8000a83f:	ff e0                	jmp    *%rax
ffffffff8000a841:	89 f0                	mov    %esi,%eax
ffffffff8000a843:	e9 92 00 00 00       	jmp    ffffffff8000a8da <_RNvMsa_NtCsksYxuqllC4c_4core3fmtNtB5_9Formatter12pad_integral+0x26a>
ffffffff8000a848:	49 8b 44 24 10       	mov    0x10(%r12),%rax
ffffffff8000a84d:	48 89 45 c0          	mov    %rax,-0x40(%rbp)
ffffffff8000a851:	25 00 00 e0 9f       	and    $0x9fe00000,%eax
ffffffff8000a856:	0d 30 00 00 20       	or     $0x20000030,%eax
ffffffff8000a85b:	41 89 44 24 10       	mov    %eax,0x10(%r12)
ffffffff8000a860:	4d 8b 3c 24          	mov    (%r12),%r15
ffffffff8000a864:	49 89 c8             	mov    %rcx,%r8
ffffffff8000a867:	49 8b 5c 24 08       	mov    0x8(%r12),%rbx
ffffffff8000a86c:	4c 89 ff             	mov    %r15,%rdi
ffffffff8000a86f:	48 89 de             	mov    %rbx,%rsi
ffffffff8000a872:	8b 55 d4             	mov    -0x2c(%rbp),%edx
ffffffff8000a875:	4c 89 f1             	mov    %r14,%rcx
ffffffff8000a878:	e8 a3 09 00 00       	call   ffffffff8000b220 <_RNvNvMsa_NtCsksYxuqllC4c_4core3fmtNtB7_9Formatter12pad_integral12write_prefix>
ffffffff8000a87d:	41 b6 01             	mov    $0x1,%r14b
ffffffff8000a880:	84 c0                	test   %al,%al
ffffffff8000a882:	0f 85 13 01 00 00    	jne    ffffffff8000a99b <_RNvMsa_NtCsksYxuqllC4c_4core3fmtNtB5_9Formatter12pad_integral+0x32b>
ffffffff8000a888:	44 2b 6d c8          	sub    -0x38(%rbp),%r13d
ffffffff8000a88c:	41 ff c5             	inc    %r13d
ffffffff8000a88f:	90                   	nop
ffffffff8000a890:	66 41 ff cd          	dec    %r13w
ffffffff8000a894:	74 14                	je     ffffffff8000a8aa <_RNvMsa_NtCsksYxuqllC4c_4core3fmtNtB5_9Formatter12pad_integral+0x23a>
ffffffff8000a896:	4c 89 ff             	mov    %r15,%rdi
ffffffff8000a899:	be 30 00 00 00       	mov    $0x30,%esi
ffffffff8000a89e:	ff 53 20             	call   *0x20(%rbx)
ffffffff8000a8a1:	84 c0                	test   %al,%al
ffffffff8000a8a3:	74 eb                	je     ffffffff8000a890 <_RNvMsa_NtCsksYxuqllC4c_4core3fmtNtB5_9Formatter12pad_integral+0x220>
ffffffff8000a8a5:	e9 f1 00 00 00       	jmp    ffffffff8000a99b <_RNvMsa_NtCsksYxuqllC4c_4core3fmtNtB5_9Formatter12pad_integral+0x32b>
ffffffff8000a8aa:	4c 89 ff             	mov    %r15,%rdi
ffffffff8000a8ad:	48 8b 75 b8          	mov    -0x48(%rbp),%rsi
ffffffff8000a8b1:	48 8b 55 b0          	mov    -0x50(%rbp),%rdx
ffffffff8000a8b5:	ff 53 18             	call   *0x18(%rbx)
ffffffff8000a8b8:	84 c0                	test   %al,%al
ffffffff8000a8ba:	0f 85 db 00 00 00    	jne    ffffffff8000a99b <_RNvMsa_NtCsksYxuqllC4c_4core3fmtNtB5_9Formatter12pad_integral+0x32b>
ffffffff8000a8c0:	48 8b 45 c0          	mov    -0x40(%rbp),%rax
ffffffff8000a8c4:	49 89 44 24 10       	mov    %rax,0x10(%r12)
ffffffff8000a8c9:	45 31 f6             	xor    %r14d,%r14d
ffffffff8000a8cc:	e9 ca 00 00 00       	jmp    ffffffff8000a99b <_RNvMsa_NtCsksYxuqllC4c_4core3fmtNtB5_9Formatter12pad_integral+0x32b>
ffffffff8000a8d1:	31 c0                	xor    %eax,%eax
ffffffff8000a8d3:	eb 05                	jmp    ffffffff8000a8da <_RNvMsa_NtCsksYxuqllC4c_4core3fmtNtB5_9Formatter12pad_integral+0x26a>
ffffffff8000a8d5:	0f b7 c6             	movzwl %si,%eax
ffffffff8000a8d8:	d1 e8                	shr    $1,%eax
ffffffff8000a8da:	41 81 e7 ff ff 1f 00 	and    $0x1fffff,%r15d
ffffffff8000a8e1:	44 89 7d c0          	mov    %r15d,-0x40(%rbp)
ffffffff8000a8e5:	4c 89 e1             	mov    %r12,%rcx
ffffffff8000a8e8:	4d 8b 24 24          	mov    (%r12),%r12
ffffffff8000a8ec:	48 8b 59 08          	mov    0x8(%rcx),%rbx
ffffffff8000a8f0:	48 89 45 a0          	mov    %rax,-0x60(%rbp)
ffffffff8000a8f4:	44 8d 78 01          	lea    0x1(%rax),%r15d
ffffffff8000a8f8:	0f 1f 84 00 00 00 00 	nopl   0x0(%rax,%rax,1)
ffffffff8000a8ff:	00 
ffffffff8000a900:	66 41 ff cf          	dec    %r15w
ffffffff8000a904:	74 15                	je     ffffffff8000a91b <_RNvMsa_NtCsksYxuqllC4c_4core3fmtNtB5_9Formatter12pad_integral+0x2ab>
ffffffff8000a906:	4c 89 e7             	mov    %r12,%rdi
ffffffff8000a909:	8b 75 c0             	mov    -0x40(%rbp),%esi
ffffffff8000a90c:	ff 53 20             	call   *0x20(%rbx)
ffffffff8000a90f:	84 c0                	test   %al,%al
ffffffff8000a911:	74 ed                	je     ffffffff8000a900 <_RNvMsa_NtCsksYxuqllC4c_4core3fmtNtB5_9Formatter12pad_integral+0x290>
ffffffff8000a913:	41 b6 01             	mov    $0x1,%r14b
ffffffff8000a916:	e9 80 00 00 00       	jmp    ffffffff8000a99b <_RNvMsa_NtCsksYxuqllC4c_4core3fmtNtB5_9Formatter12pad_integral+0x32b>
ffffffff8000a91b:	4d 89 e7             	mov    %r12,%r15
ffffffff8000a91e:	4c 89 e7             	mov    %r12,%rdi
ffffffff8000a921:	48 89 de             	mov    %rbx,%rsi
ffffffff8000a924:	48 89 5d a8          	mov    %rbx,-0x58(%rbp)
ffffffff8000a928:	8b 55 d4             	mov    -0x2c(%rbp),%edx
ffffffff8000a92b:	4c 89 f1             	mov    %r14,%rcx
ffffffff8000a92e:	4c 8b 45 98          	mov    -0x68(%rbp),%r8
ffffffff8000a932:	e8 e9 08 00 00       	call   ffffffff8000b220 <_RNvNvMsa_NtCsksYxuqllC4c_4core3fmtNtB7_9Formatter12pad_integral12write_prefix>
ffffffff8000a937:	41 b6 01             	mov    $0x1,%r14b
ffffffff8000a93a:	84 c0                	test   %al,%al
ffffffff8000a93c:	75 5d                	jne    ffffffff8000a99b <_RNvMsa_NtCsksYxuqllC4c_4core3fmtNtB5_9Formatter12pad_integral+0x32b>
ffffffff8000a93e:	4c 89 ff             	mov    %r15,%rdi
ffffffff8000a941:	48 8b 75 b8          	mov    -0x48(%rbp),%rsi
ffffffff8000a945:	48 8b 55 b0          	mov    -0x50(%rbp),%rdx
ffffffff8000a949:	48 8b 45 a8          	mov    -0x58(%rbp),%rax
ffffffff8000a94d:	ff 50 18             	call   *0x18(%rax)
ffffffff8000a950:	84 c0                	test   %al,%al
ffffffff8000a952:	75 47                	jne    ffffffff8000a99b <_RNvMsa_NtCsksYxuqllC4c_4core3fmtNtB5_9Formatter12pad_integral+0x32b>
ffffffff8000a954:	4c 8b 7d a0          	mov    -0x60(%rbp),%r15
ffffffff8000a958:	44 29 7d d0          	sub    %r15d,-0x30(%rbp)
ffffffff8000a95c:	44 03 7d c8          	add    -0x38(%rbp),%r15d
ffffffff8000a960:	45 29 ef             	sub    %r13d,%r15d
ffffffff8000a963:	66 41 be ff ff       	mov    $0xffff,%r14w
ffffffff8000a968:	44 8b 6d c0          	mov    -0x40(%rbp),%r13d
ffffffff8000a96c:	0f 1f 40 00          	nopl   0x0(%rax)
ffffffff8000a970:	43 8d 04 37          	lea    (%r15,%r14,1),%eax
ffffffff8000a974:	66 83 f8 ff          	cmp    $0xffff,%ax
ffffffff8000a978:	74 12                	je     ffffffff8000a98c <_RNvMsa_NtCsksYxuqllC4c_4core3fmtNtB5_9Formatter12pad_integral+0x31c>
ffffffff8000a97a:	4c 89 e7             	mov    %r12,%rdi
ffffffff8000a97d:	44 89 ee             	mov    %r13d,%esi
ffffffff8000a980:	ff 53 20             	call   *0x20(%rbx)
ffffffff8000a983:	41 ff c6             	inc    %r14d
ffffffff8000a986:	84 c0                	test   %al,%al
ffffffff8000a988:	74 e6                	je     ffffffff8000a970 <_RNvMsa_NtCsksYxuqllC4c_4core3fmtNtB5_9Formatter12pad_integral+0x300>
ffffffff8000a98a:	eb 06                	jmp    ffffffff8000a992 <_RNvMsa_NtCsksYxuqllC4c_4core3fmtNtB5_9Formatter12pad_integral+0x322>
ffffffff8000a98c:	8b 45 d0             	mov    -0x30(%rbp),%eax
ffffffff8000a98f:	41 89 c6             	mov    %eax,%r14d
ffffffff8000a992:	66 44 3b 75 d0       	cmp    -0x30(%rbp),%r14w
ffffffff8000a997:	41 0f 92 c6          	setb   %r14b
ffffffff8000a99b:	44 89 f0             	mov    %r14d,%eax
ffffffff8000a99e:	48 83 c4 48          	add    $0x48,%rsp
ffffffff8000a9a2:	5b                   	pop    %rbx
ffffffff8000a9a3:	41 5c                	pop    %r12
ffffffff8000a9a5:	41 5d                	pop    %r13
ffffffff8000a9a7:	41 5e                	pop    %r14
ffffffff8000a9a9:	41 5f                	pop    %r15
ffffffff8000a9ab:	5d                   	pop    %rbp
ffffffff8000a9ac:	c3                   	ret
ffffffff8000a9ad:	cc                   	int3
ffffffff8000a9ae:	cc                   	int3
ffffffff8000a9af:	cc                   	int3

ffffffff8000a9b0 <_RNvMsf_NtNtNtCsksYxuqllC4c_4core3fmt3num3impy10__fmt_inner>:
ffffffff8000a9b0:	55                   	push   %rbp
ffffffff8000a9b1:	48 89 e5             	mov    %rsp,%rbp
ffffffff8000a9b4:	41 57                	push   %r15
ffffffff8000a9b6:	41 56                	push   %r14
ffffffff8000a9b8:	41 54                	push   %r12
ffffffff8000a9ba:	53                   	push   %rbx
ffffffff8000a9bb:	48 89 d1             	mov    %rdx,%rcx
ffffffff8000a9be:	48 89 fa             	mov    %rdi,%rdx
ffffffff8000a9c1:	49 89 c8             	mov    %rcx,%r8
ffffffff8000a9c4:	48 81 ff e8 03 00 00 	cmp    $0x3e8,%rdi
ffffffff8000a9cb:	0f 82 d6 00 00 00    	jb     ffffffff8000aaa7 <_RNvMsf_NtNtNtCsksYxuqllC4c_4core3fmt3num3impy10__fmt_inner+0xf7>
ffffffff8000a9d1:	4c 8d 5e ff          	lea    -0x1(%rsi),%r11
ffffffff8000a9d5:	45 31 c0             	xor    %r8d,%r8d
ffffffff8000a9d8:	48 bb 4b 59 86 38 d6 	movabs $0x346dc5d63886594b,%rbx
ffffffff8000a9df:	c5 6d 34 
ffffffff8000a9e2:	4c 8d 35 88 38 00 00 	lea    0x3888(%rip),%r14        # ffffffff8000e271 <builtin_font+0x1031>
ffffffff8000a9e9:	49 89 f9             	mov    %rdi,%r9
ffffffff8000a9ec:	0f 1f 40 00          	nopl   0x0(%rax)
ffffffff8000a9f0:	4e 8d 14 01          	lea    (%rcx,%r8,1),%r10
ffffffff8000a9f4:	49 83 c2 fc          	add    $0xfffffffffffffffc,%r10
ffffffff8000a9f8:	4c 89 c8             	mov    %r9,%rax
ffffffff8000a9fb:	48 f7 e3             	mul    %rbx
ffffffff8000a9fe:	49 39 ca             	cmp    %rcx,%r10
ffffffff8000aa01:	0f 83 3c 01 00 00    	jae    ffffffff8000ab43 <_RNvMsf_NtNtNtCsksYxuqllC4c_4core3fmt3num3impy10__fmt_inner+0x193>
ffffffff8000aa07:	48 c1 ea 0b          	shr    $0xb,%rdx
ffffffff8000aa0b:	69 c2 10 27 00 00    	imul   $0x2710,%edx,%eax
ffffffff8000aa11:	45 89 ca             	mov    %r9d,%r10d
ffffffff8000aa14:	41 29 c2             	sub    %eax,%r10d
ffffffff8000aa17:	45 69 fa 7b 14 00 00 	imul   $0x147b,%r10d,%r15d
ffffffff8000aa1e:	41 c1 ef 13          	shr    $0x13,%r15d
ffffffff8000aa22:	45 0f b7 e7          	movzwl %r15w,%r12d
ffffffff8000aa26:	43 0f b6 04 66       	movzbl (%r14,%r12,2),%eax
ffffffff8000aa2b:	41 88 44 0b fd       	mov    %al,-0x3(%r11,%rcx,1)
ffffffff8000aa30:	4a 8d 04 01          	lea    (%rcx,%r8,1),%rax
ffffffff8000aa34:	48 83 c0 fd          	add    $0xfffffffffffffffd,%rax
ffffffff8000aa38:	48 39 c8             	cmp    %rcx,%rax
ffffffff8000aa3b:	0f 83 ef 00 00 00    	jae    ffffffff8000ab30 <_RNvMsf_NtNtNtCsksYxuqllC4c_4core3fmt3num3impy10__fmt_inner+0x180>
ffffffff8000aa41:	43 0f b6 44 66 01    	movzbl 0x1(%r14,%r12,2),%eax
ffffffff8000aa47:	41 88 44 0b fe       	mov    %al,-0x2(%r11,%rcx,1)
ffffffff8000aa4c:	4a 8d 04 01          	lea    (%rcx,%r8,1),%rax
ffffffff8000aa50:	48 83 c0 fe          	add    $0xfffffffffffffffe,%rax
ffffffff8000aa54:	48 39 c8             	cmp    %rcx,%rax
ffffffff8000aa57:	0f 83 d3 00 00 00    	jae    ffffffff8000ab30 <_RNvMsf_NtNtNtCsksYxuqllC4c_4core3fmt3num3impy10__fmt_inner+0x180>
ffffffff8000aa5d:	41 6b c7 64          	imul   $0x64,%r15d,%eax
ffffffff8000aa61:	41 29 c2             	sub    %eax,%r10d
ffffffff8000aa64:	45 0f b7 d2          	movzwl %r10w,%r10d
ffffffff8000aa68:	43 0f b6 04 56       	movzbl (%r14,%r10,2),%eax
ffffffff8000aa6d:	41 88 44 0b ff       	mov    %al,-0x1(%r11,%rcx,1)
ffffffff8000aa72:	4a 8d 04 01          	lea    (%rcx,%r8,1),%rax
ffffffff8000aa76:	48 ff c8             	dec    %rax
ffffffff8000aa79:	48 39 c8             	cmp    %rcx,%rax
ffffffff8000aa7c:	0f 83 ae 00 00 00    	jae    ffffffff8000ab30 <_RNvMsf_NtNtNtCsksYxuqllC4c_4core3fmt3num3impy10__fmt_inner+0x180>
ffffffff8000aa82:	43 0f b6 44 56 01    	movzbl 0x1(%r14,%r10,2),%eax
ffffffff8000aa88:	41 88 04 0b          	mov    %al,(%r11,%rcx,1)
ffffffff8000aa8c:	49 83 c0 fc          	add    $0xfffffffffffffffc,%r8
ffffffff8000aa90:	49 83 c3 fc          	add    $0xfffffffffffffffc,%r11
ffffffff8000aa94:	49 81 f9 7f 96 98 00 	cmp    $0x98967f,%r9
ffffffff8000aa9b:	49 89 d1             	mov    %rdx,%r9
ffffffff8000aa9e:	0f 87 4c ff ff ff    	ja     ffffffff8000a9f0 <_RNvMsf_NtNtNtCsksYxuqllC4c_4core3fmt3num3impy10__fmt_inner+0x40>
ffffffff8000aaa4:	49 01 c8             	add    %rcx,%r8
ffffffff8000aaa7:	48 83 fa 09          	cmp    $0x9,%rdx
ffffffff8000aaab:	76 56                	jbe    ffffffff8000ab03 <_RNvMsf_NtNtNtCsksYxuqllC4c_4core3fmt3num3impy10__fmt_inner+0x153>
ffffffff8000aaad:	49 8d 40 fe          	lea    -0x2(%r8),%rax
ffffffff8000aab1:	48 39 c8             	cmp    %rcx,%rax
ffffffff8000aab4:	73 7a                	jae    ffffffff8000ab30 <_RNvMsf_NtNtNtCsksYxuqllC4c_4core3fmt3num3impy10__fmt_inner+0x180>
ffffffff8000aab6:	41 89 d1             	mov    %edx,%r9d
ffffffff8000aab9:	41 c1 e9 02          	shr    $0x2,%r9d
ffffffff8000aabd:	45 0f b7 c9          	movzwl %r9w,%r9d
ffffffff8000aac1:	45 69 c9 7b 14 00 00 	imul   $0x147b,%r9d,%r9d
ffffffff8000aac8:	41 c1 e9 11          	shr    $0x11,%r9d
ffffffff8000aacc:	45 6b d1 64          	imul   $0x64,%r9d,%r10d
ffffffff8000aad0:	44 29 d2             	sub    %r10d,%edx
ffffffff8000aad3:	0f b7 d2             	movzwl %dx,%edx
ffffffff8000aad6:	4c 8d 15 94 37 00 00 	lea    0x3794(%rip),%r10        # ffffffff8000e271 <builtin_font+0x1031>
ffffffff8000aadd:	45 0f b6 1c 52       	movzbl (%r10,%rdx,2),%r11d
ffffffff8000aae2:	46 88 5c 06 fe       	mov    %r11b,-0x2(%rsi,%r8,1)
ffffffff8000aae7:	49 ff c8             	dec    %r8
ffffffff8000aaea:	49 39 c8             	cmp    %rcx,%r8
ffffffff8000aaed:	73 67                	jae    ffffffff8000ab56 <_RNvMsf_NtNtNtCsksYxuqllC4c_4core3fmt3num3impy10__fmt_inner+0x1a6>
ffffffff8000aaef:	41 0f b6 54 52 01    	movzbl 0x1(%r10,%rdx,2),%edx
ffffffff8000aaf5:	42 88 14 06          	mov    %dl,(%rsi,%r8,1)
ffffffff8000aaf9:	4c 89 ca             	mov    %r9,%rdx
ffffffff8000aafc:	48 85 ff             	test   %rdi,%rdi
ffffffff8000aaff:	75 0a                	jne    ffffffff8000ab0b <_RNvMsf_NtNtNtCsksYxuqllC4c_4core3fmt3num3impy10__fmt_inner+0x15b>
ffffffff8000ab01:	eb 0d                	jmp    ffffffff8000ab10 <_RNvMsf_NtNtNtCsksYxuqllC4c_4core3fmt3num3impy10__fmt_inner+0x160>
ffffffff8000ab03:	4c 89 c0             	mov    %r8,%rax
ffffffff8000ab06:	48 85 ff             	test   %rdi,%rdi
ffffffff8000ab09:	74 05                	je     ffffffff8000ab10 <_RNvMsf_NtNtNtCsksYxuqllC4c_4core3fmt3num3impy10__fmt_inner+0x160>
ffffffff8000ab0b:	48 85 d2             	test   %rdx,%rdx
ffffffff8000ab0e:	74 17                	je     ffffffff8000ab27 <_RNvMsf_NtNtNtCsksYxuqllC4c_4core3fmt3num3impy10__fmt_inner+0x177>
ffffffff8000ab10:	48 ff c8             	dec    %rax
ffffffff8000ab13:	48 39 c8             	cmp    %rcx,%rax
ffffffff8000ab16:	73 18                	jae    ffffffff8000ab30 <_RNvMsf_NtNtNtCsksYxuqllC4c_4core3fmt3num3impy10__fmt_inner+0x180>
ffffffff8000ab18:	48 8d 0d 52 37 00 00 	lea    0x3752(%rip),%rcx        # ffffffff8000e271 <builtin_font+0x1031>
ffffffff8000ab1f:	0f b6 4c 51 01       	movzbl 0x1(%rcx,%rdx,2),%ecx
ffffffff8000ab24:	88 0c 06             	mov    %cl,(%rsi,%rax,1)
ffffffff8000ab27:	5b                   	pop    %rbx
ffffffff8000ab28:	41 5c                	pop    %r12
ffffffff8000ab2a:	41 5e                	pop    %r14
ffffffff8000ab2c:	41 5f                	pop    %r15
ffffffff8000ab2e:	5d                   	pop    %rbp
ffffffff8000ab2f:	c3                   	ret
ffffffff8000ab30:	48 8d 15 c9 44 00 00 	lea    0x44c9(%rip),%rdx        # ffffffff8000f000 <builtin_font+0x1dc0>
ffffffff8000ab37:	48 89 c7             	mov    %rax,%rdi
ffffffff8000ab3a:	48 89 ce             	mov    %rcx,%rsi
ffffffff8000ab3d:	ff 15 cd 97 0d 00    	call   *0xd97cd(%rip)        # ffffffff800e4310 <base_offset_added.0+0x1f>
ffffffff8000ab43:	48 8d 15 b6 44 00 00 	lea    0x44b6(%rip),%rdx        # ffffffff8000f000 <builtin_font+0x1dc0>
ffffffff8000ab4a:	4c 89 d7             	mov    %r10,%rdi
ffffffff8000ab4d:	48 89 ce             	mov    %rcx,%rsi
ffffffff8000ab50:	ff 15 ba 97 0d 00    	call   *0xd97ba(%rip)        # ffffffff800e4310 <base_offset_added.0+0x1f>
ffffffff8000ab56:	48 8d 15 a3 44 00 00 	lea    0x44a3(%rip),%rdx        # ffffffff8000f000 <builtin_font+0x1dc0>
ffffffff8000ab5d:	4c 89 c7             	mov    %r8,%rdi
ffffffff8000ab60:	48 89 ce             	mov    %rcx,%rsi
ffffffff8000ab63:	ff 15 a7 97 0d 00    	call   *0xd97a7(%rip)        # ffffffff800e4310 <base_offset_added.0+0x1f>
ffffffff8000ab69:	cc                   	int3
ffffffff8000ab6a:	cc                   	int3
ffffffff8000ab6b:	cc                   	int3
ffffffff8000ab6c:	cc                   	int3
ffffffff8000ab6d:	cc                   	int3
ffffffff8000ab6e:	cc                   	int3
ffffffff8000ab6f:	cc                   	int3

ffffffff8000ab70 <_RNvNtCsksYxuqllC4c_4core3fmt5write>:
ffffffff8000ab70:	55                   	push   %rbp
ffffffff8000ab71:	48 89 e5             	mov    %rsp,%rbp
ffffffff8000ab74:	41 57                	push   %r15
ffffffff8000ab76:	41 56                	push   %r14
ffffffff8000ab78:	41 55                	push   %r13
ffffffff8000ab7a:	41 54                	push   %r12
ffffffff8000ab7c:	53                   	push   %rbx
ffffffff8000ab7d:	48 83 ec 38          	sub    $0x38,%rsp
ffffffff8000ab81:	48 89 cb             	mov    %rcx,%rbx
ffffffff8000ab84:	49 89 d5             	mov    %rdx,%r13
ffffffff8000ab87:	49 89 fe             	mov    %rdi,%r14
ffffffff8000ab8a:	f6 c3 01             	test   $0x1,%bl
ffffffff8000ab8d:	0f 85 74 01 00 00    	jne    ffffffff8000ad07 <_RNvNtCsksYxuqllC4c_4core3fmt5write+0x197>
ffffffff8000ab93:	41 0f b6 45 00       	movzbl 0x0(%r13),%eax
ffffffff8000ab98:	84 c0                	test   %al,%al
ffffffff8000ab9a:	0f 84 87 01 00 00    	je     ffffffff8000ad27 <_RNvNtCsksYxuqllC4c_4core3fmt5write+0x1b7>
ffffffff8000aba0:	48 89 75 b0          	mov    %rsi,-0x50(%rbp)
ffffffff8000aba4:	48 8b 4e 18          	mov    0x18(%rsi),%rcx
ffffffff8000aba8:	48 89 4d a8          	mov    %rcx,-0x58(%rbp)
ffffffff8000abac:	48 c7 45 d0 00 00 00 	movq   $0x0,-0x30(%rbp)
ffffffff8000abb3:	00 
ffffffff8000abb4:	eb 1a                	jmp    ffffffff8000abd0 <_RNvNtCsksYxuqllC4c_4core3fmt5write+0x60>
ffffffff8000abb6:	66 2e 0f 1f 84 00 00 	cs nopw 0x0(%rax,%rax,1)
ffffffff8000abbd:	00 00 00 
ffffffff8000abc0:	41 0f b6 04 24       	movzbl (%r12),%eax
ffffffff8000abc5:	4d 89 e5             	mov    %r12,%r13
ffffffff8000abc8:	84 c0                	test   %al,%al
ffffffff8000abca:	0f 84 57 01 00 00    	je     ffffffff8000ad27 <_RNvNtCsksYxuqllC4c_4core3fmt5write+0x1b7>
ffffffff8000abd0:	4d 8d 65 01          	lea    0x1(%r13),%r12
ffffffff8000abd4:	44 0f b6 f8          	movzbl %al,%r15d
ffffffff8000abd8:	84 c0                	test   %al,%al
ffffffff8000abda:	78 24                	js     ffffffff8000ac00 <_RNvNtCsksYxuqllC4c_4core3fmt5write+0x90>
ffffffff8000abdc:	4c 89 f7             	mov    %r14,%rdi
ffffffff8000abdf:	4c 89 e6             	mov    %r12,%rsi
ffffffff8000abe2:	4c 89 fa             	mov    %r15,%rdx
ffffffff8000abe5:	ff 55 a8             	call   *-0x58(%rbp)
ffffffff8000abe8:	84 c0                	test   %al,%al
ffffffff8000abea:	0f 85 3b 01 00 00    	jne    ffffffff8000ad2b <_RNvNtCsksYxuqllC4c_4core3fmt5write+0x1bb>
ffffffff8000abf0:	4d 01 fc             	add    %r15,%r12
ffffffff8000abf3:	eb cb                	jmp    ffffffff8000abc0 <_RNvNtCsksYxuqllC4c_4core3fmt5write+0x50>
ffffffff8000abf5:	66 66 2e 0f 1f 84 00 	data16 cs nopw 0x0(%rax,%rax,1)
ffffffff8000abfc:	00 00 00 00 
ffffffff8000ac00:	3c 80                	cmp    $0x80,%al
ffffffff8000ac02:	74 21                	je     ffffffff8000ac25 <_RNvNtCsksYxuqllC4c_4core3fmt5write+0xb5>
ffffffff8000ac04:	41 81 ff c0 00 00 00 	cmp    $0xc0,%r15d
ffffffff8000ac0b:	75 3f                	jne    ffffffff8000ac4c <_RNvNtCsksYxuqllC4c_4core3fmt5write+0xdc>
ffffffff8000ac0d:	4c 8b 7d d0          	mov    -0x30(%rbp),%r15
ffffffff8000ac11:	4c 89 f8             	mov    %r15,%rax
ffffffff8000ac14:	48 c1 e0 04          	shl    $0x4,%rax
ffffffff8000ac18:	48 c7 45 c8 20 00 00 	movq   $0x60000020,-0x38(%rbp)
ffffffff8000ac1f:	60 
ffffffff8000ac20:	e9 ba 00 00 00       	jmp    ffffffff8000acdf <_RNvNtCsksYxuqllC4c_4core3fmt5write+0x16f>
ffffffff8000ac25:	45 0f b7 7d 01       	movzwl 0x1(%r13),%r15d
ffffffff8000ac2a:	49 8d 75 03          	lea    0x3(%r13),%rsi
ffffffff8000ac2e:	4c 89 f7             	mov    %r14,%rdi
ffffffff8000ac31:	4c 89 fa             	mov    %r15,%rdx
ffffffff8000ac34:	ff 55 a8             	call   *-0x58(%rbp)
ffffffff8000ac37:	84 c0                	test   %al,%al
ffffffff8000ac39:	0f 85 ec 00 00 00    	jne    ffffffff8000ad2b <_RNvNtCsksYxuqllC4c_4core3fmt5write+0x1bb>
ffffffff8000ac3f:	4f 8d 24 2f          	lea    (%r15,%r13,1),%r12
ffffffff8000ac43:	49 83 c4 03          	add    $0x3,%r12
ffffffff8000ac47:	e9 74 ff ff ff       	jmp    ffffffff8000abc0 <_RNvNtCsksYxuqllC4c_4core3fmt5write+0x50>
ffffffff8000ac4c:	b9 20 00 00 60       	mov    $0x60000020,%ecx
ffffffff8000ac51:	a8 01                	test   $0x1,%al
ffffffff8000ac53:	74 0b                	je     ffffffff8000ac60 <_RNvNtCsksYxuqllC4c_4core3fmt5write+0xf0>
ffffffff8000ac55:	41 8b 4d 01          	mov    0x1(%r13),%ecx
ffffffff8000ac59:	49 83 c5 05          	add    $0x5,%r13
ffffffff8000ac5d:	4d 89 ec             	mov    %r13,%r12
ffffffff8000ac60:	a8 02                	test   $0x2,%al
ffffffff8000ac62:	75 19                	jne    ffffffff8000ac7d <_RNvNtCsksYxuqllC4c_4core3fmt5write+0x10d>
ffffffff8000ac64:	31 d2                	xor    %edx,%edx
ffffffff8000ac66:	4c 8b 7d d0          	mov    -0x30(%rbp),%r15
ffffffff8000ac6a:	a8 04                	test   $0x4,%al
ffffffff8000ac6c:	74 20                	je     ffffffff8000ac8e <_RNvNtCsksYxuqllC4c_4core3fmt5write+0x11e>
ffffffff8000ac6e:	41 0f b7 34 24       	movzwl (%r12),%esi
ffffffff8000ac73:	49 83 c4 02          	add    $0x2,%r12
ffffffff8000ac77:	a8 08                	test   $0x8,%al
ffffffff8000ac79:	75 19                	jne    ffffffff8000ac94 <_RNvNtCsksYxuqllC4c_4core3fmt5write+0x124>
ffffffff8000ac7b:	eb 20                	jmp    ffffffff8000ac9d <_RNvNtCsksYxuqllC4c_4core3fmt5write+0x12d>
ffffffff8000ac7d:	41 0f b7 14 24       	movzwl (%r12),%edx
ffffffff8000ac82:	49 83 c4 02          	add    $0x2,%r12
ffffffff8000ac86:	4c 8b 7d d0          	mov    -0x30(%rbp),%r15
ffffffff8000ac8a:	a8 04                	test   $0x4,%al
ffffffff8000ac8c:	75 e0                	jne    ffffffff8000ac6e <_RNvNtCsksYxuqllC4c_4core3fmt5write+0xfe>
ffffffff8000ac8e:	31 f6                	xor    %esi,%esi
ffffffff8000ac90:	a8 08                	test   $0x8,%al
ffffffff8000ac92:	74 09                	je     ffffffff8000ac9d <_RNvNtCsksYxuqllC4c_4core3fmt5write+0x12d>
ffffffff8000ac94:	45 0f b7 3c 24       	movzwl (%r12),%r15d
ffffffff8000ac99:	49 83 c4 02          	add    $0x2,%r12
ffffffff8000ac9d:	a8 10                	test   $0x10,%al
ffffffff8000ac9f:	74 14                	je     ffffffff8000acb5 <_RNvNtCsksYxuqllC4c_4core3fmt5write+0x145>
ffffffff8000aca1:	0f b7 fa             	movzwl %dx,%edi
ffffffff8000aca4:	c1 e7 04             	shl    $0x4,%edi
ffffffff8000aca7:	48 83 3c 3b 00       	cmpq   $0x0,(%rbx,%rdi,1)
ffffffff8000acac:	75 07                	jne    ffffffff8000acb5 <_RNvNtCsksYxuqllC4c_4core3fmt5write+0x145>
ffffffff8000acae:	48 01 df             	add    %rbx,%rdi
ffffffff8000acb1:	0f b7 57 08          	movzwl 0x8(%rdi),%edx
ffffffff8000acb5:	a8 20                	test   $0x20,%al
ffffffff8000acb7:	74 14                	je     ffffffff8000accd <_RNvNtCsksYxuqllC4c_4core3fmt5write+0x15d>
ffffffff8000acb9:	0f b7 c6             	movzwl %si,%eax
ffffffff8000acbc:	c1 e0 04             	shl    $0x4,%eax
ffffffff8000acbf:	48 83 3c 03 00       	cmpq   $0x0,(%rbx,%rax,1)
ffffffff8000acc4:	75 07                	jne    ffffffff8000accd <_RNvNtCsksYxuqllC4c_4core3fmt5write+0x15d>
ffffffff8000acc6:	48 01 d8             	add    %rbx,%rax
ffffffff8000acc9:	0f b7 70 08          	movzwl 0x8(%rax),%esi
ffffffff8000accd:	4c 89 f8             	mov    %r15,%rax
ffffffff8000acd0:	48 c1 e0 04          	shl    $0x4,%rax
ffffffff8000acd4:	89 4d c8             	mov    %ecx,-0x38(%rbp)
ffffffff8000acd7:	66 89 55 cc          	mov    %dx,-0x34(%rbp)
ffffffff8000acdb:	66 89 75 ce          	mov    %si,-0x32(%rbp)
ffffffff8000acdf:	4c 89 75 b8          	mov    %r14,-0x48(%rbp)
ffffffff8000ace3:	48 8b 4d b0          	mov    -0x50(%rbp),%rcx
ffffffff8000ace7:	48 89 4d c0          	mov    %rcx,-0x40(%rbp)
ffffffff8000aceb:	48 8b 3c 03          	mov    (%rbx,%rax,1),%rdi
ffffffff8000acef:	48 8d 75 b8          	lea    -0x48(%rbp),%rsi
ffffffff8000acf3:	ff 54 03 08          	call   *0x8(%rbx,%rax,1)
ffffffff8000acf7:	84 c0                	test   %al,%al
ffffffff8000acf9:	75 30                	jne    ffffffff8000ad2b <_RNvNtCsksYxuqllC4c_4core3fmt5write+0x1bb>
ffffffff8000acfb:	49 ff c7             	inc    %r15
ffffffff8000acfe:	4c 89 7d d0          	mov    %r15,-0x30(%rbp)
ffffffff8000ad02:	e9 b9 fe ff ff       	jmp    ffffffff8000abc0 <_RNvNtCsksYxuqllC4c_4core3fmt5write+0x50>
ffffffff8000ad07:	48 d1 eb             	shr    $1,%rbx
ffffffff8000ad0a:	48 8b 46 18          	mov    0x18(%rsi),%rax
ffffffff8000ad0e:	4c 89 f7             	mov    %r14,%rdi
ffffffff8000ad11:	4c 89 ee             	mov    %r13,%rsi
ffffffff8000ad14:	48 89 da             	mov    %rbx,%rdx
ffffffff8000ad17:	48 83 c4 38          	add    $0x38,%rsp
ffffffff8000ad1b:	5b                   	pop    %rbx
ffffffff8000ad1c:	41 5c                	pop    %r12
ffffffff8000ad1e:	41 5d                	pop    %r13
ffffffff8000ad20:	41 5e                	pop    %r14
ffffffff8000ad22:	41 5f                	pop    %r15
ffffffff8000ad24:	5d                   	pop    %rbp
ffffffff8000ad25:	ff e0                	jmp    *%rax
ffffffff8000ad27:	31 c0                	xor    %eax,%eax
ffffffff8000ad29:	eb 02                	jmp    ffffffff8000ad2d <_RNvNtCsksYxuqllC4c_4core3fmt5write+0x1bd>
ffffffff8000ad2b:	b0 01                	mov    $0x1,%al
ffffffff8000ad2d:	48 83 c4 38          	add    $0x38,%rsp
ffffffff8000ad31:	5b                   	pop    %rbx
ffffffff8000ad32:	41 5c                	pop    %r12
ffffffff8000ad34:	41 5d                	pop    %r13
ffffffff8000ad36:	41 5e                	pop    %r14
ffffffff8000ad38:	41 5f                	pop    %r15
ffffffff8000ad3a:	5d                   	pop    %rbp
ffffffff8000ad3b:	c3                   	ret

ffffffff8000ad3c <_RNvNtCsksYxuqllC4c_4core9panicking18panic_bounds_check>:
ffffffff8000ad3c:	55                   	push   %rbp
ffffffff8000ad3d:	48 89 e5             	mov    %rsp,%rbp
ffffffff8000ad40:	48 83 ec 30          	sub    $0x30,%rsp
ffffffff8000ad44:	48 8d 45 f8          	lea    -0x8(%rbp),%rax
ffffffff8000ad48:	48 89 38             	mov    %rdi,(%rax)
ffffffff8000ad4b:	48 8d 4d f0          	lea    -0x10(%rbp),%rcx
ffffffff8000ad4f:	48 89 31             	mov    %rsi,(%rcx)
ffffffff8000ad52:	48 8d 75 d0          	lea    -0x30(%rbp),%rsi
ffffffff8000ad56:	48 89 0e             	mov    %rcx,(%rsi)
ffffffff8000ad59:	48 8b 0d c0 95 0d 00 	mov    0xd95c0(%rip),%rcx        # ffffffff800e4320 <base_offset_added.0+0x2f>
ffffffff8000ad60:	48 89 4e 08          	mov    %rcx,0x8(%rsi)
ffffffff8000ad64:	48 89 46 10          	mov    %rax,0x10(%rsi)
ffffffff8000ad68:	48 89 4e 18          	mov    %rcx,0x18(%rsi)
ffffffff8000ad6c:	48 8d 3d 06 13 00 00 	lea    0x1306(%rip),%rdi        # ffffffff8000c079 <memcpy+0xc79>
ffffffff8000ad73:	ff 15 8f 95 0d 00    	call   *0xd958f(%rip)        # ffffffff800e4308 <base_offset_added.0+0x17>
ffffffff8000ad79:	cc                   	int3
ffffffff8000ad7a:	cc                   	int3
ffffffff8000ad7b:	cc                   	int3
ffffffff8000ad7c:	cc                   	int3
ffffffff8000ad7d:	cc                   	int3
ffffffff8000ad7e:	cc                   	int3
ffffffff8000ad7f:	cc                   	int3

ffffffff8000ad80 <_RNvNtCsksYxuqllC4c_4core9panicking18panic_nounwind_fmt>:
ffffffff8000ad80:	55                   	push   %rbp
ffffffff8000ad81:	48 89 e5             	mov    %rsp,%rbp
ffffffff8000ad84:	48 83 ec 30          	sub    $0x30,%rsp
ffffffff8000ad88:	48 89 7d d8          	mov    %rdi,-0x28(%rbp)
ffffffff8000ad8c:	48 89 75 e0          	mov    %rsi,-0x20(%rbp)
ffffffff8000ad90:	48 8d 45 d8          	lea    -0x28(%rbp),%rax
ffffffff8000ad94:	48 89 45 e8          	mov    %rax,-0x18(%rbp)
ffffffff8000ad98:	48 89 4d f0          	mov    %rcx,-0x10(%rbp)
ffffffff8000ad9c:	c6 45 f8 00          	movb   $0x0,-0x8(%rbp)
ffffffff8000ada0:	88 55 f9             	mov    %dl,-0x7(%rbp)
ffffffff8000ada3:	48 8d 7d e8          	lea    -0x18(%rbp),%rdi
ffffffff8000ada7:	ff 15 4b 95 0d 00    	call   *0xd954b(%rip)        # ffffffff800e42f8 <base_offset_added.0+0x7>

ffffffff8000adad <_RNvNtCsksYxuqllC4c_4core9panicking30panic_null_pointer_dereference>:
ffffffff8000adad:	55                   	push   %rbp
ffffffff8000adae:	48 89 e5             	mov    %rsp,%rbp
ffffffff8000adb1:	48 89 f9             	mov    %rdi,%rcx
ffffffff8000adb4:	48 8d 3d 95 34 00 00 	lea    0x3495(%rip),%rdi        # ffffffff8000e250 <builtin_font+0x1010>
ffffffff8000adbb:	6a 43                	push   $0x43
ffffffff8000adbd:	5e                   	pop    %rsi
ffffffff8000adbe:	31 d2                	xor    %edx,%edx
ffffffff8000adc0:	ff 15 3a 95 0d 00    	call   *0xd953a(%rip)        # ffffffff800e4300 <base_offset_added.0+0xf>
ffffffff8000adc6:	cc                   	int3
ffffffff8000adc7:	cc                   	int3
ffffffff8000adc8:	cc                   	int3
ffffffff8000adc9:	cc                   	int3
ffffffff8000adca:	cc                   	int3
ffffffff8000adcb:	cc                   	int3
ffffffff8000adcc:	cc                   	int3
ffffffff8000adcd:	cc                   	int3
ffffffff8000adce:	cc                   	int3
ffffffff8000adcf:	cc                   	int3

ffffffff8000add0 <_RNvNtCsksYxuqllC4c_4core9panicking5panic>:
ffffffff8000add0:	55                   	push   %rbp
ffffffff8000add1:	48 89 e5             	mov    %rsp,%rbp
ffffffff8000add4:	48 8d 34 75 01 00 00 	lea    0x1(,%rsi,2),%rsi
ffffffff8000addb:	00 
ffffffff8000addc:	ff 15 26 95 0d 00    	call   *0xd9526(%rip)        # ffffffff800e4308 <base_offset_added.0+0x17>
ffffffff8000ade2:	cc                   	int3
ffffffff8000ade3:	cc                   	int3
ffffffff8000ade4:	cc                   	int3
ffffffff8000ade5:	cc                   	int3
ffffffff8000ade6:	cc                   	int3
ffffffff8000ade7:	cc                   	int3
ffffffff8000ade8:	cc                   	int3
ffffffff8000ade9:	cc                   	int3
ffffffff8000adea:	cc                   	int3
ffffffff8000adeb:	cc                   	int3
ffffffff8000adec:	cc                   	int3
ffffffff8000aded:	cc                   	int3
ffffffff8000adee:	cc                   	int3
ffffffff8000adef:	cc                   	int3

ffffffff8000adf0 <_RNvNtCsksYxuqllC4c_4core9panicking9panic_fmt>:
ffffffff8000adf0:	55                   	push   %rbp
ffffffff8000adf1:	48 89 e5             	mov    %rsp,%rbp
ffffffff8000adf4:	48 83 ec 30          	sub    $0x30,%rsp
ffffffff8000adf8:	48 89 7d f0          	mov    %rdi,-0x10(%rbp)
ffffffff8000adfc:	48 89 75 f8          	mov    %rsi,-0x8(%rbp)
ffffffff8000ae00:	48 8d 45 f0          	lea    -0x10(%rbp),%rax
ffffffff8000ae04:	48 89 45 d8          	mov    %rax,-0x28(%rbp)
ffffffff8000ae08:	48 89 55 e0          	mov    %rdx,-0x20(%rbp)
ffffffff8000ae0c:	66 c7 45 e8 01 00    	movw   $0x1,-0x18(%rbp)
ffffffff8000ae12:	48 8d 7d d8          	lea    -0x28(%rbp),%rdi
ffffffff8000ae16:	ff 15 dc 94 0d 00    	call   *0xd94dc(%rip)        # ffffffff800e42f8 <base_offset_added.0+0x7>
ffffffff8000ae1c:	cc                   	int3
ffffffff8000ae1d:	cc                   	int3
ffffffff8000ae1e:	cc                   	int3
ffffffff8000ae1f:	cc                   	int3

ffffffff8000ae20 <_RNvNtNtCsksYxuqllC4c_4core3str5count14do_count_chars>:
ffffffff8000ae20:	4c 8d 4f 07          	lea    0x7(%rdi),%r9
ffffffff8000ae24:	49 83 e1 f8          	and    $0xfffffffffffffff8,%r9
ffffffff8000ae28:	4c 89 c8             	mov    %r9,%rax
ffffffff8000ae2b:	48 29 f8             	sub    %rdi,%rax
ffffffff8000ae2e:	48 89 f1             	mov    %rsi,%rcx
ffffffff8000ae31:	48 29 c1             	sub    %rax,%rcx
ffffffff8000ae34:	73 19                	jae    ffffffff8000ae4f <_RNvNtNtCsksYxuqllC4c_4core3str5count14do_count_chars+0x2f>
ffffffff8000ae36:	48 85 f6             	test   %rsi,%rsi
ffffffff8000ae39:	74 55                	je     ffffffff8000ae90 <_RNvNtNtCsksYxuqllC4c_4core3str5count14do_count_chars+0x70>
ffffffff8000ae3b:	89 f1                	mov    %esi,%ecx
ffffffff8000ae3d:	83 e1 03             	and    $0x3,%ecx
ffffffff8000ae40:	48 83 fe 04          	cmp    $0x4,%rsi
ffffffff8000ae44:	73 4d                	jae    ffffffff8000ae93 <_RNvNtNtCsksYxuqllC4c_4core3str5count14do_count_chars+0x73>
ffffffff8000ae46:	31 d2                	xor    %edx,%edx
ffffffff8000ae48:	31 c0                	xor    %eax,%eax
ffffffff8000ae4a:	e9 91 00 00 00       	jmp    ffffffff8000aee0 <_RNvNtNtCsksYxuqllC4c_4core3str5count14do_count_chars+0xc0>
ffffffff8000ae4f:	48 83 f9 08          	cmp    $0x8,%rcx
ffffffff8000ae53:	72 e1                	jb     ffffffff8000ae36 <_RNvNtNtCsksYxuqllC4c_4core3str5count14do_count_chars+0x16>
ffffffff8000ae55:	41 57                	push   %r15
ffffffff8000ae57:	41 56                	push   %r14
ffffffff8000ae59:	41 55                	push   %r13
ffffffff8000ae5b:	41 54                	push   %r12
ffffffff8000ae5d:	53                   	push   %rbx
ffffffff8000ae5e:	89 ca                	mov    %ecx,%edx
ffffffff8000ae60:	83 e2 07             	and    $0x7,%edx
ffffffff8000ae63:	49 39 f9             	cmp    %rdi,%r9
ffffffff8000ae66:	75 07                	jne    ffffffff8000ae6f <_RNvNtNtCsksYxuqllC4c_4core3str5count14do_count_chars+0x4f>
ffffffff8000ae68:	31 f6                	xor    %esi,%esi
ffffffff8000ae6a:	e9 18 01 00 00       	jmp    ffffffff8000af87 <_RNvNtNtCsksYxuqllC4c_4core3str5count14do_count_chars+0x167>
ffffffff8000ae6f:	41 89 c0             	mov    %eax,%r8d
ffffffff8000ae72:	41 83 e0 03          	and    $0x3,%r8d
ffffffff8000ae76:	48 89 fe             	mov    %rdi,%rsi
ffffffff8000ae79:	4c 29 ce             	sub    %r9,%rsi
ffffffff8000ae7c:	48 83 fe fc          	cmp    $0xfffffffffffffffc,%rsi
ffffffff8000ae80:	0f 86 80 00 00 00    	jbe    ffffffff8000af06 <_RNvNtNtCsksYxuqllC4c_4core3str5count14do_count_chars+0xe6>
ffffffff8000ae86:	45 31 c9             	xor    %r9d,%r9d
ffffffff8000ae89:	31 f6                	xor    %esi,%esi
ffffffff8000ae8b:	e9 d4 00 00 00       	jmp    ffffffff8000af64 <_RNvNtNtCsksYxuqllC4c_4core3str5count14do_count_chars+0x144>
ffffffff8000ae90:	31 c0                	xor    %eax,%eax
ffffffff8000ae92:	c3                   	ret
ffffffff8000ae93:	48 83 e6 fc          	and    $0xfffffffffffffffc,%rsi
ffffffff8000ae97:	31 d2                	xor    %edx,%edx
ffffffff8000ae99:	31 c0                	xor    %eax,%eax
ffffffff8000ae9b:	0f 1f 44 00 00       	nopl   0x0(%rax,%rax,1)
ffffffff8000aea0:	45 31 c0             	xor    %r8d,%r8d
ffffffff8000aea3:	80 3c 17 c0          	cmpb   $0xc0,(%rdi,%rdx,1)
ffffffff8000aea7:	41 0f 9d c0          	setge  %r8b
ffffffff8000aeab:	49 01 c0             	add    %rax,%r8
ffffffff8000aeae:	31 c0                	xor    %eax,%eax
ffffffff8000aeb0:	80 7c 17 01 c0       	cmpb   $0xc0,0x1(%rdi,%rdx,1)
ffffffff8000aeb5:	0f 9d c0             	setge  %al
ffffffff8000aeb8:	45 31 c9             	xor    %r9d,%r9d
ffffffff8000aebb:	80 7c 17 02 c0       	cmpb   $0xc0,0x2(%rdi,%rdx,1)
ffffffff8000aec0:	41 0f 9d c1          	setge  %r9b
ffffffff8000aec4:	49 01 c1             	add    %rax,%r9
ffffffff8000aec7:	4d 01 c1             	add    %r8,%r9
ffffffff8000aeca:	31 c0                	xor    %eax,%eax
ffffffff8000aecc:	80 7c 17 03 c0       	cmpb   $0xc0,0x3(%rdi,%rdx,1)
ffffffff8000aed1:	0f 9d c0             	setge  %al
ffffffff8000aed4:	4c 01 c8             	add    %r9,%rax
ffffffff8000aed7:	48 83 c2 04          	add    $0x4,%rdx
ffffffff8000aedb:	48 39 d6             	cmp    %rdx,%rsi
ffffffff8000aede:	75 c0                	jne    ffffffff8000aea0 <_RNvNtNtCsksYxuqllC4c_4core3str5count14do_count_chars+0x80>
ffffffff8000aee0:	48 85 c9             	test   %rcx,%rcx
ffffffff8000aee3:	74 20                	je     ffffffff8000af05 <_RNvNtNtCsksYxuqllC4c_4core3str5count14do_count_chars+0xe5>
ffffffff8000aee5:	48 01 d7             	add    %rdx,%rdi
ffffffff8000aee8:	31 d2                	xor    %edx,%edx
ffffffff8000aeea:	66 0f 1f 44 00 00    	nopw   0x0(%rax,%rax,1)
ffffffff8000aef0:	31 f6                	xor    %esi,%esi
ffffffff8000aef2:	80 3c 17 c0          	cmpb   $0xc0,(%rdi,%rdx,1)
ffffffff8000aef6:	40 0f 9d c6          	setge  %sil
ffffffff8000aefa:	48 01 f0             	add    %rsi,%rax
ffffffff8000aefd:	48 ff c2             	inc    %rdx
ffffffff8000af00:	48 39 d1             	cmp    %rdx,%rcx
ffffffff8000af03:	75 eb                	jne    ffffffff8000aef0 <_RNvNtNtCsksYxuqllC4c_4core3str5count14do_count_chars+0xd0>
ffffffff8000af05:	c3                   	ret
ffffffff8000af06:	41 89 c2             	mov    %eax,%r10d
ffffffff8000af09:	41 83 e2 04          	and    $0x4,%r10d
ffffffff8000af0d:	45 31 c9             	xor    %r9d,%r9d
ffffffff8000af10:	31 f6                	xor    %esi,%esi
ffffffff8000af12:	66 66 66 66 66 2e 0f 	data16 data16 data16 data16 cs nopw 0x0(%rax,%rax,1)
ffffffff8000af19:	1f 84 00 00 00 00 00 
ffffffff8000af20:	45 31 db             	xor    %r11d,%r11d
ffffffff8000af23:	42 80 3c 0f c0       	cmpb   $0xc0,(%rdi,%r9,1)
ffffffff8000af28:	41 0f 9d c3          	setge  %r11b
ffffffff8000af2c:	49 01 f3             	add    %rsi,%r11
ffffffff8000af2f:	31 f6                	xor    %esi,%esi
ffffffff8000af31:	42 80 7c 0f 01 c0    	cmpb   $0xc0,0x1(%rdi,%r9,1)
ffffffff8000af37:	40 0f 9d c6          	setge  %sil
ffffffff8000af3b:	31 db                	xor    %ebx,%ebx
ffffffff8000af3d:	42 80 7c 0f 02 c0    	cmpb   $0xc0,0x2(%rdi,%r9,1)
ffffffff8000af43:	0f 9d c3             	setge  %bl
ffffffff8000af46:	48 01 f3             	add    %rsi,%rbx
ffffffff8000af49:	4c 01 db             	add    %r11,%rbx
ffffffff8000af4c:	31 f6                	xor    %esi,%esi
ffffffff8000af4e:	42 80 7c 0f 03 c0    	cmpb   $0xc0,0x3(%rdi,%r9,1)
ffffffff8000af54:	40 0f 9d c6          	setge  %sil
ffffffff8000af58:	48 01 de             	add    %rbx,%rsi
ffffffff8000af5b:	49 83 c1 04          	add    $0x4,%r9
ffffffff8000af5f:	4d 39 ca             	cmp    %r9,%r10
ffffffff8000af62:	75 bc                	jne    ffffffff8000af20 <_RNvNtNtCsksYxuqllC4c_4core3str5count14do_count_chars+0x100>
ffffffff8000af64:	4d 85 c0             	test   %r8,%r8
ffffffff8000af67:	74 1e                	je     ffffffff8000af87 <_RNvNtNtCsksYxuqllC4c_4core3str5count14do_count_chars+0x167>
ffffffff8000af69:	49 01 f9             	add    %rdi,%r9
ffffffff8000af6c:	45 31 d2             	xor    %r10d,%r10d
ffffffff8000af6f:	90                   	nop
ffffffff8000af70:	45 31 db             	xor    %r11d,%r11d
ffffffff8000af73:	43 80 3c 11 c0       	cmpb   $0xc0,(%r9,%r10,1)
ffffffff8000af78:	41 0f 9d c3          	setge  %r11b
ffffffff8000af7c:	4c 01 de             	add    %r11,%rsi
ffffffff8000af7f:	49 ff c2             	inc    %r10
ffffffff8000af82:	4d 39 d0             	cmp    %r10,%r8
ffffffff8000af85:	75 e9                	jne    ffffffff8000af70 <_RNvNtNtCsksYxuqllC4c_4core3str5count14do_count_chars+0x150>
ffffffff8000af87:	48 01 c7             	add    %rax,%rdi
ffffffff8000af8a:	48 85 d2             	test   %rdx,%rdx
ffffffff8000af8d:	0f 84 95 00 00 00    	je     ffffffff8000b028 <_RNvNtNtCsksYxuqllC4c_4core3str5count14do_count_chars+0x208>
ffffffff8000af93:	49 b8 f8 ff ff ff ff 	movabs $0x7ffffffffffffff8,%r8
ffffffff8000af9a:	ff ff 7f 
ffffffff8000af9d:	49 21 c8             	and    %rcx,%r8
ffffffff8000afa0:	31 c0                	xor    %eax,%eax
ffffffff8000afa2:	42 80 3c 07 c0       	cmpb   $0xc0,(%rdi,%r8,1)
ffffffff8000afa7:	0f 9d c0             	setge  %al
ffffffff8000afaa:	83 fa 01             	cmp    $0x1,%edx
ffffffff8000afad:	74 7b                	je     ffffffff8000b02a <_RNvNtNtCsksYxuqllC4c_4core3str5count14do_count_chars+0x20a>
ffffffff8000afaf:	45 31 c9             	xor    %r9d,%r9d
ffffffff8000afb2:	42 80 7c 07 01 c0    	cmpb   $0xc0,0x1(%rdi,%r8,1)
ffffffff8000afb8:	41 0f 9d c1          	setge  %r9b
ffffffff8000afbc:	4c 01 c8             	add    %r9,%rax
ffffffff8000afbf:	83 fa 02             	cmp    $0x2,%edx
ffffffff8000afc2:	74 66                	je     ffffffff8000b02a <_RNvNtNtCsksYxuqllC4c_4core3str5count14do_count_chars+0x20a>
ffffffff8000afc4:	45 31 c9             	xor    %r9d,%r9d
ffffffff8000afc7:	42 80 7c 07 02 c0    	cmpb   $0xc0,0x2(%rdi,%r8,1)
ffffffff8000afcd:	41 0f 9d c1          	setge  %r9b
ffffffff8000afd1:	4c 01 c8             	add    %r9,%rax
ffffffff8000afd4:	83 fa 03             	cmp    $0x3,%edx
ffffffff8000afd7:	74 51                	je     ffffffff8000b02a <_RNvNtNtCsksYxuqllC4c_4core3str5count14do_count_chars+0x20a>
ffffffff8000afd9:	45 31 c9             	xor    %r9d,%r9d
ffffffff8000afdc:	42 80 7c 07 03 c0    	cmpb   $0xc0,0x3(%rdi,%r8,1)
ffffffff8000afe2:	41 0f 9d c1          	setge  %r9b
ffffffff8000afe6:	4c 01 c8             	add    %r9,%rax
ffffffff8000afe9:	83 fa 04             	cmp    $0x4,%edx
ffffffff8000afec:	74 3c                	je     ffffffff8000b02a <_RNvNtNtCsksYxuqllC4c_4core3str5count14do_count_chars+0x20a>
ffffffff8000afee:	45 31 c9             	xor    %r9d,%r9d
ffffffff8000aff1:	42 80 7c 07 04 c0    	cmpb   $0xc0,0x4(%rdi,%r8,1)
ffffffff8000aff7:	41 0f 9d c1          	setge  %r9b
ffffffff8000affb:	4c 01 c8             	add    %r9,%rax
ffffffff8000affe:	83 fa 05             	cmp    $0x5,%edx
ffffffff8000b001:	74 27                	je     ffffffff8000b02a <_RNvNtNtCsksYxuqllC4c_4core3str5count14do_count_chars+0x20a>
ffffffff8000b003:	45 31 c9             	xor    %r9d,%r9d
ffffffff8000b006:	42 80 7c 07 05 c0    	cmpb   $0xc0,0x5(%rdi,%r8,1)
ffffffff8000b00c:	41 0f 9d c1          	setge  %r9b
ffffffff8000b010:	4c 01 c8             	add    %r9,%rax
ffffffff8000b013:	83 fa 06             	cmp    $0x6,%edx
ffffffff8000b016:	74 12                	je     ffffffff8000b02a <_RNvNtNtCsksYxuqllC4c_4core3str5count14do_count_chars+0x20a>
ffffffff8000b018:	31 d2                	xor    %edx,%edx
ffffffff8000b01a:	42 80 7c 07 06 c0    	cmpb   $0xc0,0x6(%rdi,%r8,1)
ffffffff8000b020:	0f 9d c2             	setge  %dl
ffffffff8000b023:	48 01 d0             	add    %rdx,%rax
ffffffff8000b026:	eb 02                	jmp    ffffffff8000b02a <_RNvNtNtCsksYxuqllC4c_4core3str5count14do_count_chars+0x20a>
ffffffff8000b028:	31 c0                	xor    %eax,%eax
ffffffff8000b02a:	48 01 f0             	add    %rsi,%rax
ffffffff8000b02d:	48 c1 e9 03          	shr    $0x3,%rcx
ffffffff8000b031:	49 b8 01 01 01 01 01 	movabs $0x101010101010101,%r8
ffffffff8000b038:	01 01 01 
ffffffff8000b03b:	48 be ff 00 ff 00 ff 	movabs $0xff00ff00ff00ff,%rsi
ffffffff8000b042:	00 ff 00 
ffffffff8000b045:	48 ba 01 00 01 00 01 	movabs $0x1000100010001,%rdx
ffffffff8000b04c:	00 01 00 
ffffffff8000b04f:	eb 43                	jmp    ffffffff8000b094 <_RNvNtNtCsksYxuqllC4c_4core3str5count14do_count_chars+0x274>
ffffffff8000b051:	66 66 66 66 66 66 2e 	data16 data16 data16 data16 data16 cs nopw 0x0(%rax,%rax,1)
ffffffff8000b058:	0f 1f 84 00 00 00 00 
ffffffff8000b05f:	00 
ffffffff8000b060:	45 31 f6             	xor    %r14d,%r14d
ffffffff8000b063:	4c 01 cf             	add    %r9,%rdi
ffffffff8000b066:	4c 29 d1             	sub    %r10,%rcx
ffffffff8000b069:	45 89 d3             	mov    %r10d,%r11d
ffffffff8000b06c:	41 83 e3 03          	and    $0x3,%r11d
ffffffff8000b070:	4c 89 f3             	mov    %r14,%rbx
ffffffff8000b073:	48 21 f3             	and    %rsi,%rbx
ffffffff8000b076:	49 c1 ee 08          	shr    $0x8,%r14
ffffffff8000b07a:	49 21 f6             	and    %rsi,%r14
ffffffff8000b07d:	49 01 de             	add    %rbx,%r14
ffffffff8000b080:	4c 0f af f2          	imul   %rdx,%r14
ffffffff8000b084:	49 c1 ee 30          	shr    $0x30,%r14
ffffffff8000b088:	4c 01 f0             	add    %r14,%rax
ffffffff8000b08b:	4d 85 db             	test   %r11,%r11
ffffffff8000b08e:	0f 85 b9 00 00 00    	jne    ffffffff8000b14d <_RNvNtNtCsksYxuqllC4c_4core3str5count14do_count_chars+0x32d>
ffffffff8000b094:	48 85 c9             	test   %rcx,%rcx
ffffffff8000b097:	0f 84 31 01 00 00    	je     ffffffff8000b1ce <_RNvNtNtCsksYxuqllC4c_4core3str5count14do_count_chars+0x3ae>
ffffffff8000b09d:	49 89 f9             	mov    %rdi,%r9
ffffffff8000b0a0:	48 81 f9 c0 00 00 00 	cmp    $0xc0,%rcx
ffffffff8000b0a7:	41 ba c0 00 00 00    	mov    $0xc0,%r10d
ffffffff8000b0ad:	4c 0f 42 d1          	cmovb  %rcx,%r10
ffffffff8000b0b1:	42 8d 3c d5 00 00 00 	lea    0x0(,%r10,8),%edi
ffffffff8000b0b8:	00 
ffffffff8000b0b9:	41 89 fb             	mov    %edi,%r11d
ffffffff8000b0bc:	41 81 e3 e0 07 00 00 	and    $0x7e0,%r11d
ffffffff8000b0c3:	74 9b                	je     ffffffff8000b060 <_RNvNtNtCsksYxuqllC4c_4core3str5count14do_count_chars+0x240>
ffffffff8000b0c5:	31 db                	xor    %ebx,%ebx
ffffffff8000b0c7:	45 31 f6             	xor    %r14d,%r14d
ffffffff8000b0ca:	66 0f 1f 44 00 00    	nopw   0x0(%rax,%rax,1)
ffffffff8000b0d0:	4d 8b 3c 19          	mov    (%r9,%rbx,1),%r15
ffffffff8000b0d4:	4d 8b 64 19 08       	mov    0x8(%r9,%rbx,1),%r12
ffffffff8000b0d9:	4d 89 fd             	mov    %r15,%r13
ffffffff8000b0dc:	49 f7 d5             	not    %r13
ffffffff8000b0df:	49 c1 ed 07          	shr    $0x7,%r13
ffffffff8000b0e3:	49 c1 ef 06          	shr    $0x6,%r15
ffffffff8000b0e7:	4d 09 ef             	or     %r13,%r15
ffffffff8000b0ea:	4d 21 c7             	and    %r8,%r15
ffffffff8000b0ed:	4d 01 f7             	add    %r14,%r15
ffffffff8000b0f0:	4d 89 e6             	mov    %r12,%r14
ffffffff8000b0f3:	49 f7 d6             	not    %r14
ffffffff8000b0f6:	49 c1 ee 07          	shr    $0x7,%r14
ffffffff8000b0fa:	49 c1 ec 06          	shr    $0x6,%r12
ffffffff8000b0fe:	4d 09 f4             	or     %r14,%r12
ffffffff8000b101:	4d 21 c4             	and    %r8,%r12
ffffffff8000b104:	4d 8b 6c 19 10       	mov    0x10(%r9,%rbx,1),%r13
ffffffff8000b109:	4d 89 ee             	mov    %r13,%r14
ffffffff8000b10c:	49 f7 d6             	not    %r14
ffffffff8000b10f:	49 c1 ee 07          	shr    $0x7,%r14
ffffffff8000b113:	49 c1 ed 06          	shr    $0x6,%r13
ffffffff8000b117:	4d 09 f5             	or     %r14,%r13
ffffffff8000b11a:	4d 21 c5             	and    %r8,%r13
ffffffff8000b11d:	4d 01 e5             	add    %r12,%r13
ffffffff8000b120:	4d 01 fd             	add    %r15,%r13
ffffffff8000b123:	4d 8b 74 19 18       	mov    0x18(%r9,%rbx,1),%r14
ffffffff8000b128:	4d 89 f7             	mov    %r14,%r15
ffffffff8000b12b:	49 f7 d7             	not    %r15
ffffffff8000b12e:	49 c1 ef 07          	shr    $0x7,%r15
ffffffff8000b132:	49 c1 ee 06          	shr    $0x6,%r14
ffffffff8000b136:	4d 09 fe             	or     %r15,%r14
ffffffff8000b139:	4d 21 c6             	and    %r8,%r14
ffffffff8000b13c:	4d 01 ee             	add    %r13,%r14
ffffffff8000b13f:	48 83 c3 20          	add    $0x20,%rbx
ffffffff8000b143:	49 39 db             	cmp    %rbx,%r11
ffffffff8000b146:	75 88                	jne    ffffffff8000b0d0 <_RNvNtNtCsksYxuqllC4c_4core3str5count14do_count_chars+0x2b0>
ffffffff8000b148:	e9 16 ff ff ff       	jmp    ffffffff8000b063 <_RNvNtNtCsksYxuqllC4c_4core3str5count14do_count_chars+0x243>
ffffffff8000b14d:	41 81 e2 fc 00 00 00 	and    $0xfc,%r10d
ffffffff8000b154:	44 89 d1             	mov    %r10d,%ecx
ffffffff8000b157:	49 8b 0c c9          	mov    (%r9,%rcx,8),%rcx
ffffffff8000b15b:	48 89 cf             	mov    %rcx,%rdi
ffffffff8000b15e:	48 f7 d7             	not    %rdi
ffffffff8000b161:	48 c1 ef 07          	shr    $0x7,%rdi
ffffffff8000b165:	48 c1 e9 06          	shr    $0x6,%rcx
ffffffff8000b169:	48 09 f9             	or     %rdi,%rcx
ffffffff8000b16c:	4c 21 c1             	and    %r8,%rcx
ffffffff8000b16f:	41 83 fb 01          	cmp    $0x1,%r11d
ffffffff8000b173:	74 3e                	je     ffffffff8000b1b3 <_RNvNtNtCsksYxuqllC4c_4core3str5count14do_count_chars+0x393>
ffffffff8000b175:	4b 8b 7c d1 08       	mov    0x8(%r9,%r10,8),%rdi
ffffffff8000b17a:	48 89 fb             	mov    %rdi,%rbx
ffffffff8000b17d:	48 f7 d3             	not    %rbx
ffffffff8000b180:	48 c1 eb 07          	shr    $0x7,%rbx
ffffffff8000b184:	48 c1 ef 06          	shr    $0x6,%rdi
ffffffff8000b188:	48 09 df             	or     %rbx,%rdi
ffffffff8000b18b:	4c 21 c7             	and    %r8,%rdi
ffffffff8000b18e:	48 01 f9             	add    %rdi,%rcx
ffffffff8000b191:	41 83 fb 02          	cmp    $0x2,%r11d
ffffffff8000b195:	74 1c                	je     ffffffff8000b1b3 <_RNvNtNtCsksYxuqllC4c_4core3str5count14do_count_chars+0x393>
ffffffff8000b197:	4b 8b 7c d1 10       	mov    0x10(%r9,%r10,8),%rdi
ffffffff8000b19c:	49 89 f9             	mov    %rdi,%r9
ffffffff8000b19f:	49 f7 d1             	not    %r9
ffffffff8000b1a2:	49 c1 e9 07          	shr    $0x7,%r9
ffffffff8000b1a6:	48 c1 ef 06          	shr    $0x6,%rdi
ffffffff8000b1aa:	4c 09 cf             	or     %r9,%rdi
ffffffff8000b1ad:	4c 21 c7             	and    %r8,%rdi
ffffffff8000b1b0:	48 01 f9             	add    %rdi,%rcx
ffffffff8000b1b3:	48 89 cf             	mov    %rcx,%rdi
ffffffff8000b1b6:	48 21 f7             	and    %rsi,%rdi
ffffffff8000b1b9:	48 c1 e9 08          	shr    $0x8,%rcx
ffffffff8000b1bd:	48 21 f1             	and    %rsi,%rcx
ffffffff8000b1c0:	48 01 f9             	add    %rdi,%rcx
ffffffff8000b1c3:	48 0f af ca          	imul   %rdx,%rcx
ffffffff8000b1c7:	48 c1 e9 30          	shr    $0x30,%rcx
ffffffff8000b1cb:	48 01 c8             	add    %rcx,%rax
ffffffff8000b1ce:	5b                   	pop    %rbx
ffffffff8000b1cf:	41 5c                	pop    %r12
ffffffff8000b1d1:	41 5d                	pop    %r13
ffffffff8000b1d3:	41 5e                	pop    %r14
ffffffff8000b1d5:	41 5f                	pop    %r15
ffffffff8000b1d7:	c3                   	ret
ffffffff8000b1d8:	cc                   	int3
ffffffff8000b1d9:	cc                   	int3
ffffffff8000b1da:	cc                   	int3
ffffffff8000b1db:	cc                   	int3
ffffffff8000b1dc:	cc                   	int3
ffffffff8000b1dd:	cc                   	int3
ffffffff8000b1de:	cc                   	int3
ffffffff8000b1df:	cc                   	int3

ffffffff8000b1e0 <_RNvNtNtCsksYxuqllC4c_4core9panicking11panic_const23panic_const_div_by_zero>:
ffffffff8000b1e0:	55                   	push   %rbp
ffffffff8000b1e1:	48 89 e5             	mov    %rsp,%rbp
ffffffff8000b1e4:	48 89 fa             	mov    %rdi,%rdx
ffffffff8000b1e7:	48 8d 3d 6c 31 00 00 	lea    0x316c(%rip),%rdi        # ffffffff8000e35a <builtin_font+0x111a>
ffffffff8000b1ee:	be 33 00 00 00       	mov    $0x33,%esi
ffffffff8000b1f3:	ff 15 0f 91 0d 00    	call   *0xd910f(%rip)        # ffffffff800e4308 <base_offset_added.0+0x17>
ffffffff8000b1f9:	cc                   	int3
ffffffff8000b1fa:	cc                   	int3
ffffffff8000b1fb:	cc                   	int3
ffffffff8000b1fc:	cc                   	int3
ffffffff8000b1fd:	cc                   	int3
ffffffff8000b1fe:	cc                   	int3
ffffffff8000b1ff:	cc                   	int3

ffffffff8000b200 <_RNvNtNtCsksYxuqllC4c_4core9panicking11panic_const24panic_const_sub_overflow>:
ffffffff8000b200:	55                   	push   %rbp
ffffffff8000b201:	48 89 e5             	mov    %rsp,%rbp
ffffffff8000b204:	48 89 fa             	mov    %rdi,%rdx
ffffffff8000b207:	48 8d 3d 2b 31 00 00 	lea    0x312b(%rip),%rdi        # ffffffff8000e339 <builtin_font+0x10f9>
ffffffff8000b20e:	be 43 00 00 00       	mov    $0x43,%esi
ffffffff8000b213:	ff 15 ef 90 0d 00    	call   *0xd90ef(%rip)        # ffffffff800e4308 <base_offset_added.0+0x17>
ffffffff8000b219:	cc                   	int3
ffffffff8000b21a:	cc                   	int3
ffffffff8000b21b:	cc                   	int3
ffffffff8000b21c:	cc                   	int3
ffffffff8000b21d:	cc                   	int3
ffffffff8000b21e:	cc                   	int3
ffffffff8000b21f:	cc                   	int3

ffffffff8000b220 <_RNvNvMsa_NtCsksYxuqllC4c_4core3fmtNtB7_9Formatter12pad_integral12write_prefix>:
ffffffff8000b220:	55                   	push   %rbp
ffffffff8000b221:	48 89 e5             	mov    %rsp,%rbp
ffffffff8000b224:	41 57                	push   %r15
ffffffff8000b226:	41 56                	push   %r14
ffffffff8000b228:	41 54                	push   %r12
ffffffff8000b22a:	53                   	push   %rbx
ffffffff8000b22b:	4c 89 c3             	mov    %r8,%rbx
ffffffff8000b22e:	49 89 ce             	mov    %rcx,%r14
ffffffff8000b231:	49 89 f7             	mov    %rsi,%r15
ffffffff8000b234:	81 fa 00 00 11 00    	cmp    $0x110000,%edx
ffffffff8000b23a:	74 14                	je     ffffffff8000b250 <_RNvNvMsa_NtCsksYxuqllC4c_4core3fmtNtB7_9Formatter12pad_integral12write_prefix+0x30>
ffffffff8000b23c:	49 89 fc             	mov    %rdi,%r12
ffffffff8000b23f:	89 d6                	mov    %edx,%esi
ffffffff8000b241:	41 ff 57 20          	call   *0x20(%r15)
ffffffff8000b245:	4c 89 e7             	mov    %r12,%rdi
ffffffff8000b248:	89 c1                	mov    %eax,%ecx
ffffffff8000b24a:	b0 01                	mov    $0x1,%al
ffffffff8000b24c:	84 c9                	test   %cl,%cl
ffffffff8000b24e:	75 1b                	jne    ffffffff8000b26b <_RNvNvMsa_NtCsksYxuqllC4c_4core3fmtNtB7_9Formatter12pad_integral12write_prefix+0x4b>
ffffffff8000b250:	4d 85 f6             	test   %r14,%r14
ffffffff8000b253:	74 14                	je     ffffffff8000b269 <_RNvNvMsa_NtCsksYxuqllC4c_4core3fmtNtB7_9Formatter12pad_integral12write_prefix+0x49>
ffffffff8000b255:	49 8b 47 18          	mov    0x18(%r15),%rax
ffffffff8000b259:	4c 89 f6             	mov    %r14,%rsi
ffffffff8000b25c:	48 89 da             	mov    %rbx,%rdx
ffffffff8000b25f:	5b                   	pop    %rbx
ffffffff8000b260:	41 5c                	pop    %r12
ffffffff8000b262:	41 5e                	pop    %r14
ffffffff8000b264:	41 5f                	pop    %r15
ffffffff8000b266:	5d                   	pop    %rbp
ffffffff8000b267:	ff e0                	jmp    *%rax
ffffffff8000b269:	31 c0                	xor    %eax,%eax
ffffffff8000b26b:	5b                   	pop    %rbx
ffffffff8000b26c:	41 5c                	pop    %r12
ffffffff8000b26e:	41 5e                	pop    %r14
ffffffff8000b270:	41 5f                	pop    %r15
ffffffff8000b272:	5d                   	pop    %rbp
ffffffff8000b273:	c3                   	ret
ffffffff8000b274:	cc                   	int3
ffffffff8000b275:	cc                   	int3
ffffffff8000b276:	cc                   	int3
ffffffff8000b277:	cc                   	int3
ffffffff8000b278:	cc                   	int3
ffffffff8000b279:	cc                   	int3
ffffffff8000b27a:	cc                   	int3
ffffffff8000b27b:	cc                   	int3
ffffffff8000b27c:	cc                   	int3
ffffffff8000b27d:	cc                   	int3
ffffffff8000b27e:	cc                   	int3
ffffffff8000b27f:	cc                   	int3

ffffffff8000b280 <_RNvNvNvNtNtCsksYxuqllC4c_4core4char7methods15encode_utf8_raw8do_panic7runtime>:
ffffffff8000b280:	55                   	push   %rbp
ffffffff8000b281:	48 89 e5             	mov    %rsp,%rbp
ffffffff8000b284:	48 83 ec 50          	sub    $0x50,%rsp
ffffffff8000b288:	89 7d fc             	mov    %edi,-0x4(%rbp)
ffffffff8000b28b:	48 89 75 f0          	mov    %rsi,-0x10(%rbp)
ffffffff8000b28f:	48 89 55 e8          	mov    %rdx,-0x18(%rbp)
ffffffff8000b293:	48 8d 45 f0          	lea    -0x10(%rbp),%rax
ffffffff8000b297:	48 89 45 b8          	mov    %rax,-0x48(%rbp)
ffffffff8000b29b:	48 8b 05 7e 90 0d 00 	mov    0xd907e(%rip),%rax        # ffffffff800e4320 <base_offset_added.0+0x2f>
ffffffff8000b2a2:	48 89 45 c0          	mov    %rax,-0x40(%rbp)
ffffffff8000b2a6:	48 8d 55 fc          	lea    -0x4(%rbp),%rdx
ffffffff8000b2aa:	48 89 55 c8          	mov    %rdx,-0x38(%rbp)
ffffffff8000b2ae:	48 8b 15 63 90 0d 00 	mov    0xd9063(%rip),%rdx        # ffffffff800e4318 <base_offset_added.0+0x27>
ffffffff8000b2b5:	48 89 55 d0          	mov    %rdx,-0x30(%rbp)
ffffffff8000b2b9:	48 8d 55 e8          	lea    -0x18(%rbp),%rdx
ffffffff8000b2bd:	48 89 55 d8          	mov    %rdx,-0x28(%rbp)
ffffffff8000b2c1:	48 89 45 e0          	mov    %rax,-0x20(%rbp)
ffffffff8000b2c5:	48 8d 3d a7 30 00 00 	lea    0x30a7(%rip),%rdi        # ffffffff8000e373 <builtin_font+0x1133>
ffffffff8000b2cc:	48 8d 75 b8          	lea    -0x48(%rbp),%rsi
ffffffff8000b2d0:	48 89 ca             	mov    %rcx,%rdx
ffffffff8000b2d3:	ff 15 2f 90 0d 00    	call   *0xd902f(%rip)        # ffffffff800e4308 <base_offset_added.0+0x17>
ffffffff8000b2d9:	cc                   	int3
ffffffff8000b2da:	cc                   	int3
ffffffff8000b2db:	cc                   	int3
ffffffff8000b2dc:	cc                   	int3
ffffffff8000b2dd:	cc                   	int3
ffffffff8000b2de:	cc                   	int3
ffffffff8000b2df:	cc                   	int3

ffffffff8000b2e0 <_RNvXsd_NtNtNtCsksYxuqllC4c_4core3fmt3num3impyNtB9_7Display3fmt>:
ffffffff8000b2e0:	55                   	push   %rbp
ffffffff8000b2e1:	48 89 e5             	mov    %rsp,%rbp
ffffffff8000b2e4:	41 56                	push   %r14
ffffffff8000b2e6:	53                   	push   %rbx
ffffffff8000b2e7:	48 83 ec 20          	sub    $0x20,%rsp
ffffffff8000b2eb:	48 89 f3             	mov    %rsi,%rbx
ffffffff8000b2ee:	48 8b 3f             	mov    (%rdi),%rdi
ffffffff8000b2f1:	48 8d 75 dc          	lea    -0x24(%rbp),%rsi
ffffffff8000b2f5:	41 be 14 00 00 00    	mov    $0x14,%r14d
ffffffff8000b2fb:	ba 14 00 00 00       	mov    $0x14,%edx
ffffffff8000b300:	e8 ab f6 ff ff       	call   ffffffff8000a9b0 <_RNvMsf_NtNtNtCsksYxuqllC4c_4core3fmt3num3impy10__fmt_inner>
ffffffff8000b305:	49 29 c6             	sub    %rax,%r14
ffffffff8000b308:	4c 8d 04 28          	lea    (%rax,%rbp,1),%r8
ffffffff8000b30c:	49 83 c0 dc          	add    $0xffffffffffffffdc,%r8
ffffffff8000b310:	ba 01 00 00 00       	mov    $0x1,%edx
ffffffff8000b315:	48 89 df             	mov    %rbx,%rdi
ffffffff8000b318:	be 01 00 00 00       	mov    $0x1,%esi
ffffffff8000b31d:	31 c9                	xor    %ecx,%ecx
ffffffff8000b31f:	4d 89 f1             	mov    %r14,%r9
ffffffff8000b322:	ff 15 00 90 0d 00    	call   *0xd9000(%rip)        # ffffffff800e4328 <base_offset_added.0+0x37>
ffffffff8000b328:	48 83 c4 20          	add    $0x20,%rsp
ffffffff8000b32c:	5b                   	pop    %rbx
ffffffff8000b32d:	41 5e                	pop    %r14
ffffffff8000b32f:	5d                   	pop    %rbp
ffffffff8000b330:	c3                   	ret
ffffffff8000b331:	cc                   	int3
ffffffff8000b332:	cc                   	int3
ffffffff8000b333:	cc                   	int3
ffffffff8000b334:	cc                   	int3
ffffffff8000b335:	cc                   	int3
ffffffff8000b336:	cc                   	int3
ffffffff8000b337:	cc                   	int3
ffffffff8000b338:	cc                   	int3
ffffffff8000b339:	cc                   	int3
ffffffff8000b33a:	cc                   	int3
ffffffff8000b33b:	cc                   	int3
ffffffff8000b33c:	cc                   	int3
ffffffff8000b33d:	cc                   	int3
ffffffff8000b33e:	cc                   	int3
ffffffff8000b33f:	cc                   	int3

ffffffff8000b340 <_RNvXsw_NtNtCsksYxuqllC4c_4core3fmt3nummNtB7_8UpperHex3fmt>:
ffffffff8000b340:	55                   	push   %rbp
ffffffff8000b341:	48 89 e5             	mov    %rsp,%rbp
ffffffff8000b344:	48 83 ec 10          	sub    $0x10,%rsp
ffffffff8000b348:	8b 07                	mov    (%rdi),%eax
ffffffff8000b34a:	45 31 c9             	xor    %r9d,%r9d
ffffffff8000b34d:	48 8d 0d 9c 12 00 00 	lea    0x129c(%rip),%rcx        # ffffffff8000c5f0 <memcpy+0x11f0>
ffffffff8000b354:	89 c2                	mov    %eax,%edx
ffffffff8000b356:	66 2e 0f 1f 84 00 00 	cs nopw 0x0(%rax,%rax,1)
ffffffff8000b35d:	00 00 00 
ffffffff8000b360:	c1 ea 04             	shr    $0x4,%edx
ffffffff8000b363:	89 c7                	mov    %eax,%edi
ffffffff8000b365:	83 e7 0f             	and    $0xf,%edi
ffffffff8000b368:	0f b6 3c 0f          	movzbl (%rdi,%rcx,1),%edi
ffffffff8000b36c:	42 88 7c 0d ff       	mov    %dil,-0x1(%rbp,%r9,1)
ffffffff8000b371:	49 ff c9             	dec    %r9
ffffffff8000b374:	83 f8 0f             	cmp    $0xf,%eax
ffffffff8000b377:	89 d0                	mov    %edx,%eax
ffffffff8000b379:	77 e5                	ja     ffffffff8000b360 <_RNvXsw_NtNtCsksYxuqllC4c_4core3fmt3nummNtB7_8UpperHex3fmt+0x20>
ffffffff8000b37b:	4d 8d 04 29          	lea    (%r9,%rbp,1),%r8
ffffffff8000b37f:	49 f7 d9             	neg    %r9
ffffffff8000b382:	48 8d 15 31 30 00 00 	lea    0x3031(%rip),%rdx        # ffffffff8000e3ba <builtin_font+0x117a>
ffffffff8000b389:	b9 02 00 00 00       	mov    $0x2,%ecx
ffffffff8000b38e:	48 89 f7             	mov    %rsi,%rdi
ffffffff8000b391:	be 01 00 00 00       	mov    $0x1,%esi
ffffffff8000b396:	ff 15 8c 8f 0d 00    	call   *0xd8f8c(%rip)        # ffffffff800e4328 <base_offset_added.0+0x37>
ffffffff8000b39c:	48 83 c4 10          	add    $0x10,%rsp
ffffffff8000b3a0:	5d                   	pop    %rbp
ffffffff8000b3a1:	c3                   	ret
ffffffff8000b3a2:	cc                   	int3
ffffffff8000b3a3:	cc                   	int3
ffffffff8000b3a4:	cc                   	int3
ffffffff8000b3a5:	cc                   	int3
ffffffff8000b3a6:	cc                   	int3
ffffffff8000b3a7:	cc                   	int3
ffffffff8000b3a8:	cc                   	int3
ffffffff8000b3a9:	cc                   	int3
ffffffff8000b3aa:	cc                   	int3
ffffffff8000b3ab:	cc                   	int3
ffffffff8000b3ac:	cc                   	int3
ffffffff8000b3ad:	cc                   	int3
ffffffff8000b3ae:	cc                   	int3
ffffffff8000b3af:	cc                   	int3

ffffffff8000b3b0 <memset>:
ffffffff8000b3b0:	49 89 d0             	mov    %rdx,%r8
ffffffff8000b3b3:	48 89 fa             	mov    %rdi,%rdx
ffffffff8000b3b6:	40 0f b6 ce          	movzbl %sil,%ecx
ffffffff8000b3ba:	48 b8 01 01 01 01 01 	movabs $0x101010101010101,%rax
ffffffff8000b3c1:	01 01 01 
ffffffff8000b3c4:	48 0f af c1          	imul   %rcx,%rax
ffffffff8000b3c8:	89 d1                	mov    %edx,%ecx
ffffffff8000b3ca:	f7 d9                	neg    %ecx
ffffffff8000b3cc:	83 e1 07             	and    $0x7,%ecx
ffffffff8000b3cf:	49 39 c8             	cmp    %rcx,%r8
ffffffff8000b3d2:	49 0f 42 c8          	cmovb  %r8,%rcx
ffffffff8000b3d6:	49 29 c8             	sub    %rcx,%r8
ffffffff8000b3d9:	4c 89 c6             	mov    %r8,%rsi
ffffffff8000b3dc:	48 c1 ee 03          	shr    $0x3,%rsi
ffffffff8000b3e0:	41 83 e0 07          	and    $0x7,%r8d
ffffffff8000b3e4:	f3 aa                	rep stos %al,(%rdi)
ffffffff8000b3e6:	48 89 f1             	mov    %rsi,%rcx
ffffffff8000b3e9:	f3 48 ab             	rep stos %rax,(%rdi)
ffffffff8000b3ec:	4c 89 c1             	mov    %r8,%rcx
ffffffff8000b3ef:	f3 aa                	rep stos %al,(%rdi)
ffffffff8000b3f1:	48 89 d0             	mov    %rdx,%rax
ffffffff8000b3f4:	c3                   	ret
ffffffff8000b3f5:	cc                   	int3
ffffffff8000b3f6:	cc                   	int3
ffffffff8000b3f7:	cc                   	int3
ffffffff8000b3f8:	cc                   	int3
ffffffff8000b3f9:	cc                   	int3
ffffffff8000b3fa:	cc                   	int3
ffffffff8000b3fb:	cc                   	int3
ffffffff8000b3fc:	cc                   	int3
ffffffff8000b3fd:	cc                   	int3
ffffffff8000b3fe:	cc                   	int3
ffffffff8000b3ff:	cc                   	int3

ffffffff8000b400 <memcpy>:
ffffffff8000b400:	48 89 f8             	mov    %rdi,%rax
ffffffff8000b403:	41 89 c0             	mov    %eax,%r8d
ffffffff8000b406:	41 f7 d8             	neg    %r8d
ffffffff8000b409:	41 83 e0 07          	and    $0x7,%r8d
ffffffff8000b40d:	4c 39 c2             	cmp    %r8,%rdx
ffffffff8000b410:	4c 0f 42 c2          	cmovb  %rdx,%r8
ffffffff8000b414:	4c 89 c1             	mov    %r8,%rcx
ffffffff8000b417:	f3 a4                	rep movsb (%rsi),(%rdi)
ffffffff8000b419:	4c 29 c2             	sub    %r8,%rdx
ffffffff8000b41c:	48 89 d1             	mov    %rdx,%rcx
ffffffff8000b41f:	48 c1 e9 03          	shr    $0x3,%rcx
ffffffff8000b423:	f3 48 a5             	rep movsq (%rsi),(%rdi)
ffffffff8000b426:	83 e2 07             	and    $0x7,%edx
ffffffff8000b429:	48 89 d1             	mov    %rdx,%rcx
ffffffff8000b42c:	f3 a4                	rep movsb (%rsi),(%rdi)
ffffffff8000b42e:	c3                   	ret
